(dp0
I0
(dp1
I0
(lp2
cnumpy.core.multiarray
scalar
p3
(cnumpy
dtype
p4
(S'f8'
p5
I0
I1
tp6
Rp7
(I3
S'<'
p8
NNNI-1
I-1
I0
tp9
bS'\xab\xaa\xaa\xaa\xaa\xaa\x12@'
p10
tp11
Rp12
ag3
(g7
S'\xab\xaa\xaa\xaa\xaa\xaa\xfa?'
p13
tp14
Rp15
aF0.5384615384615384
aF0.19230769230769232
asI1
(lp16
g3
(g7
S'UUUUUU\x11@'
p17
tp18
Rp19
ag3
(g7
S'\xab\xaa\xaa\xaa\xaa\xaa\xfa?'
p20
tp21
Rp22
aF0.5
aF0.19230769230769232
asI2
(lp23
g3
(g7
S'\x00\x00\x00\x00\x00\x00\x16@'
p24
tp25
Rp26
ag3
(g7
S'\x00\x00\x00\x00\x00\x00\xfc?'
p27
tp28
Rp29
aF0.8461538461538461
aF0.2692307692307692
asI3
(lp30
g3
(g7
S'\xcd\xcc\xcc\xcc\xcc\xcc\x14@'
p31
tp32
Rp33
ag3
(g7
S'\xcd\xcc\xcc\xcc\xcc\xcc\xfc?'
p34
tp35
Rp36
aF0.8461538461538461
aF0.2692307692307692
asI4
(lp37
g3
(g7
S'\xcd\xcc\xcc\xcc\xcc\xcc\x14@'
p38
tp39
Rp40
ag3
(g7
S'\xcd\xcc\xcc\xcc\xcc\xcc\xfc?'
p41
tp42
Rp43
aF0.8461538461538461
aF0.2692307692307692
asI5
(lp44
g3
(g7
S'\xab\xaa\xaa\xaa\xaa\xaa\x16@'
p45
tp46
Rp47
ag3
(g7
S'UUUUUU\xfd?'
p48
tp49
Rp50
aF0.8461538461538461
aF0.2692307692307692
asI6
(lp51
g3
(g7
S'%I\x92$I\x92\x18@'
p52
tp53
Rp54
ag3
(g7
S'\x92$I\x92$I\x02@'
p55
tp56
Rp57
aF1.0769230769230769
aF0.4230769230769231
asI7
(lp58
g3
(g7
S'\x00\x00\x00\x00\x00\x80\x17@'
p59
tp60
Rp61
ag3
(g7
S'\x00\x00\x00\x00\x00\x00\x02@'
p62
tp63
Rp64
aF1.0769230769230769
aF0.4230769230769231
asI8
(lp65
g3
(g7
S'\x00\x00\x00\x00\x00\x80\x18@'
p66
tp67
Rp68
ag3
(g7
S'\x00\x00\x00\x00\x00\x00\x01@'
p69
tp70
Rp71
aF1.0769230769230769
aF0.4230769230769231
asI9
(lp72
g3
(g7
S'\x00\x00\x00\x00\x00\x80\x17@'
p73
tp74
Rp75
ag3
(g7
S'\x00\x00\x00\x00\x00\x00\x02@'
p76
tp77
Rp78
aF1.0769230769230769
aF0.4230769230769231
asI10
(lp79
g3
(g7
S'\x00\x00\x00\x00\x00\x80\x18@'
p80
tp81
Rp82
ag3
(g7
S'\x00\x00\x00\x00\x00\x00\x01@'
p83
tp84
Rp85
aF1.0769230769230769
aF0.4230769230769231
asI11
(lp86
g3
(g7
S'\xe48\x8e\xe38\x8e\x17@'
p87
tp88
Rp89
ag3
(g7
S'9\x8e\xe38\x8e\xe3\x00@'
p90
tp91
Rp92
aF1.0769230769230769
aF0.4230769230769231
asI12
(lp93
g3
(g7
S'\xc7q\x1c\xc7q\x1c\x17@'
p94
tp95
Rp96
ag3
(g7
S'9\x8e\xe38\x8e\xe3\x00@'
p97
tp98
Rp99
aF1.0769230769230769
aF0.4230769230769231
asI13
(lp100
g3
(g7
S'r\x1c\xc7q\x1c\xc7\x19@'
p101
tp102
Rp103
ag3
(g7
S'\xe48\x8e\xe38\x8e\x03@'
p104
tp105
Rp106
aF1.0769230769230769
aF0.4230769230769231
asI14
(lp107
g3
(g7
S'\xcd\xcc\xcc\xcc\xcc\xcc\x1a@'
p108
tp109
Rp110
ag3
(g7
S'\x9a\x99\x99\x99\x99\x99\x05@'
p111
tp112
Rp113
aF1.0769230769230769
aF0.4230769230769231
asI15
(lp114
g3
(g7
S'\xd1E\x17]t\xd1\x19@'
p115
tp116
Rp117
ag3
(g7
S'\x17]t\xd1E\x17\x05@'
p118
tp119
Rp120
aF1.0769230769230769
aF0.4230769230769231
asI16
(lp121
g3
(g7
S'\xa3\x8b.\xba\xe8\xa2\x1b@'
p122
tp123
Rp124
ag3
(g7
S'F\x17]t\xd1E\x07@'
p125
tp126
Rp127
aF1.0769230769230769
aF0.4230769230769231
asI17
(lp128
g3
(g7
S'UUUUUU\x1a@'
p129
tp130
Rp131
ag3
(g7
S'\xab\xaa\xaa\xaa\xaa\xaa\x04@'
p132
tp133
Rp134
aF1.0769230769230769
aF0.4230769230769231
asI18
(lp135
g3
(g7
S'\x00\x00\x00\x00\x00\x00\x1c@'
p136
tp137
Rp138
ag3
(g7
S'\xab\xaa\xaa\xaa\xaa\xaa\x06@'
p139
tp140
Rp141
aF1.0769230769230769
aF0.4230769230769231
asI19
(lp142
g3
(g7
S'\xe9\xa2\x8b.\xba\xe8\x1a@'
p143
tp144
Rp145
ag3
(g7
S']t\xd1E\x17]\x04@'
p146
tp147
Rp148
aF1.3076923076923077
aF0.46153846153846156
asI20
(lp149
g3
(g7
S'UUUUUU\x1b@'
p150
tp151
Rp152
ag3
(g7
S'\x00\x00\x00\x00\x00\x00\x04@'
p153
tp154
Rp155
aF1.3076923076923077
aF0.46153846153846156
asI21
(lp156
g3
(g7
S'\x00\x00\x00\x00\x00\x00\x1c@'
p157
tp158
Rp159
ag3
(g7
S'\x9e\xd8\x89\x9d\xd8\x89\x05@'
p160
tp161
Rp162
aF1.3076923076923077
aF0.46153846153846156
asI22
(lp163
g3
(g7
S'\x00\x00\x00\x00\x00\x00\x1c@'
p164
tp165
Rp166
ag3
(g7
S'%I\x92$I\x92\x04@'
p167
tp168
Rp169
aF1.3076923076923077
aF0.46153846153846156
asI23
(lp170
g3
(g7
S'\xec\xc4N\xec\xc4N\x1c@'
p171
tp172
Rp173
ag3
(g7
S'\xec\xc4N\xec\xc4N\x04@'
p174
tp175
Rp176
aF1.5
aF0.5
asI24
(lp177
g3
(g7
S'\x00\x00\x00\x00\x00\x00\x1c@'
p178
tp179
Rp180
ag3
(g7
S'\xec\xc4N\xec\xc4N\x04@'
p181
tp182
Rp183
aF1.5
aF0.5
asI25
(lp184
g3
(g7
S'\x14;\xb1\x13;\xb1\x1b@'
p185
tp186
Rp187
ag3
(g7
S'\x14;\xb1\x13;\xb1\x03@'
p188
tp189
Rp190
aF1.5
aF0.5
asI26
(lp191
g3
(g7
S'\xb7m\xdb\xb6m\xdb\x1a@'
p192
tp193
Rp194
ag3
(g7
S'\xdb\xb6m\xdb\xb6m\x03@'
p195
tp196
Rp197
aF1.5
aF0.5
asI27
(lp198
g3
(g7
S'\xdb\xb6m\xdb\xb6m\x1b@'
p199
tp200
Rp201
ag3
(g7
S'\xb7m\xdb\xb6m\xdb\x02@'
p202
tp203
Rp204
aF1.5
aF0.5
asI28
(lp205
g3
(g7
S'\xec\xc4N\xec\xc4N\x1c@'
p206
tp207
Rp208
ag3
(g7
S'\xc5N\xec\xc4N\xec\x04@'
p209
tp210
Rp211
aF1.5384615384615385
aF0.5384615384615384
asI29
(lp212
g3
(g7
S'\xec\xc4N\xec\xc4N\x1c@'
p213
tp214
Rp215
ag3
(g7
S'\xc5N\xec\xc4N\xec\x04@'
p216
tp217
Rp218
aF1.5384615384615385
aF0.5384615384615384
asI30
(lp219
g3
(g7
S'\xb7m\xdb\xb6m\xdb\x1c@'
p220
tp221
Rp222
ag3
(g7
S'\xb7m\xdb\xb6m\xdb\x06@'
p223
tp224
Rp225
aF1.5384615384615385
aF0.5384615384615384
asI31
(lp226
g3
(g7
S'\x9a\x99\x99\x99\x99\x99\x1d@'
p227
tp228
Rp229
ag3
(g7
S'\xef\xee\xee\xee\xee\xee\x06@'
p230
tp231
Rp232
aF1.5384615384615385
aF0.5384615384615384
asI32
(lp233
g3
(g7
S'\xd9\x89\x9d\xd8\x89\x9d\x1c@'
p234
tp235
Rp236
ag3
(g7
S'\x9e\xd8\x89\x9d\xd8\x89\x05@'
p237
tp238
Rp239
aF1.5769230769230769
aF0.5769230769230769
asI33
(lp240
g3
(g7
S'I\x92$I\x92$\x1b@'
p241
tp242
Rp243
ag3
(g7
S'\x00\x00\x00\x00\x00\x00\x04@'
p244
tp245
Rp246
aF1.5769230769230769
aF0.5769230769230769
asI34
(lp247
g3
(g7
S'\x00\x00\x00\x00\x00\x00\x1c@'
p248
tp249
Rp250
ag3
(g7
S'DDDDDD\x04@'
p251
tp252
Rp253
aF1.5769230769230769
aF0.5769230769230769
asI35
(lp254
g3
(g7
S'\x00\x00\x00\x00\x00\xc0\x1a@'
p255
tp256
Rp257
ag3
(g7
S'\x00\x00\x00\x00\x00\x80\x03@'
p258
tp259
Rp260
aF1.6538461538461537
aF0.6153846153846154
asI36
(lp261
g3
(g7
S'ffffff\x1e@'
p262
tp263
Rp264
ag3
(g7
S'wwwwww\x07@'
p265
tp266
Rp267
aF1.6923076923076923
aF0.6153846153846154
assI1
(dp268
I35
(lp269
g3
(g7
S'\x00\x00\x00\x00\x00\xc0\x1a@'
p270
tp271
Rp272
ag3
(g7
S'\x00\x00\x00\x00\x00\x00\x04@'
p273
tp274
Rp275
aF1.1025641025641026
aF0.4358974358974359
asI36
(lp276
g3
(g7
S'ffffff\x1e@'
p277
tp278
Rp279
ag3
(g7
S'\x00\x00\x00\x00\x00\x00\x08@'
p280
tp281
Rp282
aF1.1282051282051282
aF0.4358974358974359
asI37
(lp283
g3
(g7
S'\x00\x00\x00\x00\x00\x80\x1e@'
p284
tp285
Rp286
ag3
(g7
S'\x00\x00\x00\x00\x00\x00\x07@'
p287
tp288
Rp289
aF1.205128205128205
aF0.46153846153846156
asI38
(lp290
g3
(g7
S'\x00\x00\x00\x00\x00@\x1e@'
p291
tp292
Rp293
ag3
(g7
S'\x00\x00\x00\x00\x00\x00\x07@'
p294
tp295
Rp296
aF1.205128205128205
aF0.46153846153846156
asI39
(lp297
g3
(g7
S'ffffff\x1e@'
p298
tp299
Rp300
ag3
(g7
S'\x00\x00\x00\x00\x00\x00\x08@'
p301
tp302
Rp303
aF1.1282051282051282
aF0.4358974358974359
asI40
(lp304
g3
(g7
S'iiiiii\x1d@'
p305
tp306
Rp307
ag3
(g7
S'\x1e\x1e\x1e\x1e\x1e\x1e\x06@'
p308
tp309
Rp310
aF1.2820512820512822
aF0.48717948717948717
asI41
(lp311
g3
(g7
S'iiiiii\x1d@'
p312
tp313
Rp314
ag3
(g7
S'\x1e\x1e\x1e\x1e\x1e\x1e\x06@'
p315
tp316
Rp317
aF1.2820512820512822
aF0.48717948717948717
asI42
(lp318
g3
(g7
S'\xa6\xa5\xa5\xa5\xa5\xa5\x1d@'
p319
tp320
Rp321
ag3
(g7
S'\x1e\x1e\x1e\x1e\x1e\x1e\x06@'
p322
tp323
Rp324
aF1.2820512820512822
aF0.48717948717948717
asI43
(lp325
g3
(g7
S'\x00\x00\x00\x00\x00\x00\x1b@'
p326
tp327
Rp328
ag3
(g7
S'\x00\x00\x00\x00\x00\x80\x03@'
p329
tp330
Rp331
aF1.1794871794871795
aF0.46153846153846156
asI44
(lp332
g3
(g7
S'\xa6\xa5\xa5\xa5\xa5\xa5\x1d@'
p333
tp334
Rp335
ag3
(g7
S'\x1e\x1e\x1e\x1e\x1e\x1e\x06@'
p336
tp337
Rp338
aF1.2820512820512822
aF0.48717948717948717
asI45
(lp339
g3
(g7
S'\x8e\xe38\x8e\xe38\x1e@'
p340
tp341
Rp342
ag3
(g7
S'\xab\xaa\xaa\xaa\xaa\xaa\x06@'
p343
tp344
Rp345
aF1.2820512820512822
aF0.48717948717948717
asI46
(lp346
g3
(g7
S'\r\xe55\x94\xd7P\x1e@'
p347
tp348
Rp349
ag3
(g7
S'Q^Cy\r\xe5\x05@'
p350
tp351
Rp352
aF1.2820512820512822
aF0.48717948717948717
asI47
(lp353
g3
(g7
S'ZZZZZZ\x1a@'
p354
tp355
Rp356
ag3
(g7
S'\xd3\xd2\xd2\xd2\xd2\xd2\x02@'
p357
tp358
Rp359
aF1.1794871794871795
aF0.46153846153846156
asI48
(lp360
g3
(g7
S'\x97\x96\x96\x96\x96\x96\x1a@'
p361
tp362
Rp363
ag3
(g7
S'KKKKKK\x03@'
p364
tp365
Rp366
aF1.1794871794871795
aF0.46153846153846156
asI49
(lp367
g3
(g7
S'\x00\x00\x00\x00\x00\xc0\x1a@'
p368
tp369
Rp370
ag3
(g7
S'\x00\x00\x00\x00\x00\x80\x03@'
p371
tp372
Rp373
aF1.1282051282051282
aF0.46153846153846156
asI50
(lp374
g3
(g7
S'9\x8e\xe38\x8e\xe3\x1a@'
p375
tp376
Rp377
ag3
(g7
S'\xe48\x8e\xe38\x8e\x03@'
p378
tp379
Rp380
aF1.1794871794871795
aF0.46153846153846156
asI51
(lp381
g3
(g7
S'\xe2\xe1\xe1\xe1\xe1\xe1\x19@'
p382
tp383
Rp384
ag3
(g7
S'KKKKKK\x03@'
p385
tp386
Rp387
aF1.1538461538461537
aF0.46153846153846156
asI52
(lp388
g3
(g7
S'\xc7q\x1c\xc7q\x1c\x19@'
p389
tp390
Rp391
ag3
(g7
S'\xab\xaa\xaa\xaa\xaa\xaa\x02@'
p392
tp393
Rp394
aF1.1538461538461537
aF0.46153846153846156
asI53
(lp395
g3
(g7
S'\x0f\x0f\x0f\x0f\x0f\x0f\x1b@'
p396
tp397
Rp398
ag3
(g7
S'\xc4\xc3\xc3\xc3\xc3\xc3\x03@'
p399
tp400
Rp401
aF1.1282051282051282
aF0.46153846153846156
asI54
(lp402
g3
(g7
S'\x8e\xe38\x8e\xe38\x1a@'
p403
tp404
Rp405
ag3
(g7
S'\xe48\x8e\xe38\x8e\x03@'
p406
tp407
Rp408
aF1.1538461538461537
aF0.46153846153846156
asI55
(lp409
g3
(g7
S'UUUUUU\x19@'
p410
tp411
Rp412
ag3
(g7
S'\x8e\xe38\x8e\xe38\x02@'
p413
tp414
Rp415
aF1.2307692307692308
aF0.48717948717948717
asI56
(lp416
g3
(g7
S'\xc7q\x1c\xc7q\x1c\x19@'
p417
tp418
Rp419
ag3
(g7
S'\x8e\xe38\x8e\xe38\x02@'
p420
tp421
Rp422
aF1.2307692307692308
aF0.48717948717948717
asI57
(lp423
g3
(g7
S'9\x8e\xe38\x8e\xe3\x18@'
p424
tp425
Rp426
ag3
(g7
S'r\x1c\xc7q\x1c\xc7\x01@'
p427
tp428
Rp429
aF1.2307692307692308
aF0.48717948717948717
asI58
(lp430
g3
(g7
S'\x00\x00\x00\x00\x00\x00\x1e@'
p431
tp432
Rp433
ag3
(g7
S'\x00\x00\x00\x00\x00\x00\x07@'
p434
tp435
Rp436
aF1.2307692307692308
aF0.48717948717948717
asI59
(lp437
g3
(g7
S'Q^Cy\r\xe5\x19@'
p438
tp439
Rp440
ag3
(g7
S'\xa2\xbc\x86\xf2\x1a\xca\x03@'
p441
tp442
Rp443
aF1.3333333333333333
aF0.5641025641025641
asI60
(lp444
g3
(g7
S'ffffff\x1a@'
p445
tp446
Rp447
ag3
(g7
S'333333\x05@'
p448
tp449
Rp450
aF1.3333333333333333
aF0.5641025641025641
asI61
(lp451
g3
(g7
S'iiiiii\x1d@'
p452
tp453
Rp454
ag3
(g7
S'\x0f\x0f\x0f\x0f\x0f\x0f\x07@'
p455
tp456
Rp457
aF1.3076923076923077
aF0.5384615384615384
asI62
(lp458
g3
(g7
S'\xa6\xa5\xa5\xa5\xa5\xa5\x1d@'
p459
tp460
Rp461
ag3
(g7
S'\x88\x87\x87\x87\x87\x87\x07@'
p462
tp463
Rp464
aF1.3333333333333333
aF0.5641025641025641
asI63
(lp465
g3
(g7
S'\x00\x00\x00\x00\x00\x00\x1e@'
p466
tp467
Rp468
ag3
(g7
S'\x00\x00\x00\x00\x00\x00\x08@'
p469
tp470
Rp471
aF1.4871794871794872
aF0.6153846153846154
asI64
(lp472
g3
(g7
S'l(\xaf\xa1\xbc\x86\x1e@'
p473
tp474
Rp475
ag3
(g7
S'\xbd\x86\xf2\x1a\xcak\x08@'
p476
tp477
Rp478
aF1.4871794871794872
aF0.6153846153846154
asI65
(lp479
g3
(g7
S'\x8e\xe38\x8e\xe38\x1e@'
p480
tp481
Rp482
ag3
(g7
S'\x1c\xc7q\x1c\xc7q\x08@'
p483
tp484
Rp485
aF1.5128205128205128
aF0.6410256410256411
asI66
(lp486
g3
(g7
S'\x8e\xe38\x8e\xe38\x1e@'
p487
tp488
Rp489
ag3
(g7
S'\x1c\xc7q\x1c\xc7q\x08@'
p490
tp491
Rp492
aF1.5128205128205128
aF0.6410256410256411
asI67
(lp493
g3
(g7
S'\x00\x00\x00\x00\x00\x00\x1e@'
p494
tp495
Rp496
ag3
(g7
S'\x1c\xc7q\x1c\xc7q\x08@'
p497
tp498
Rp499
aF1.5128205128205128
aF0.6410256410256411
asI68
(lp500
g3
(g7
S'\r\xe55\x94\xd7P\x1e@'
p501
tp502
Rp503
ag3
(g7
S'y\r\xe55\x94\xd7\x08@'
p504
tp505
Rp506
aF1.5897435897435896
aF0.6666666666666666
asI69
(lp507
g3
(g7
S'\x9a\x99\x99\x99\x99\x99\x1e@'
p508
tp509
Rp510
ag3
(g7
S'\x9a\x99\x99\x99\x99\x99\t@'
p511
tp512
Rp513
aF1.5897435897435896
aF0.6666666666666666
asI70
(lp514
g3
(g7
S'\x9a\x99\x99\x99\x99\x99\x1e@'
p515
tp516
Rp517
ag3
(g7
S'\x9a\x99\x99\x99\x99\x99\t@'
p518
tp519
Rp520
aF1.5897435897435896
aF0.6666666666666666
asI71
(lp521
g3
(g7
S'\x9a\x99\x99\x99\x99\x99\x1e@'
p522
tp523
Rp524
ag3
(g7
S'\x9a\x99\x99\x99\x99\x99\t@'
p525
tp526
Rp527
aF1.5897435897435896
aF0.6666666666666666
asI72
(lp528
g3
(g7
S'\x9e\xe7y\x9e\xe7y\x1e@'
p529
tp530
Rp531
ag3
(g7
S'z\x9e\xe7y\x9e\xe7\t@'
p532
tp533
Rp534
aF1.5897435897435896
aF0.6666666666666666
asI73
(lp535
g3
(g7
S'\x92$I\x92$I\x1e@'
p536
tp537
Rp538
ag3
(g7
S'b\x18\x86a\x18\x86\t@'
p539
tp540
Rp541
aF1.5897435897435896
aF0.6666666666666666
asI74
(lp542
g3
(g7
S'\xba\xe8\xa2\x8b.\xba\x1e@'
p543
tp544
Rp545
ag3
(g7
S'\xd1E\x17]t\xd1\t@'
p546
tp547
Rp548
aF1.5897435897435896
aF0.6666666666666666
asI75
(lp549
g3
(g7
S'\x92$I\x92$I\x1e@'
p550
tp551
Rp552
ag3
(g7
S'\x92$I\x92$I\n@'
p553
tp554
Rp555
aF1.641025641025641
aF0.6923076923076923
asI76
(lp556
g3
(g7
S'\x8c.\xba\xe8\xa2\x8b\x1e@'
p557
tp558
Rp559
ag3
(g7
S't\xd1E\x17]t\t@'
p560
tp561
Rp562
aF1.6923076923076923
aF0.717948717948718
asI77
(lp563
g3
(g7
S'\xeaMoz\xd3\x9b\x1e@'
p564
tp565
Rp566
ag3
(g7
S'\x91\x85,d!\x0b\t@'
p567
tp568
Rp569
aF1.6923076923076923
aF0.717948717948718
asI78
(lp570
g3
(g7
S'\xeaMoz\xd3\x9b\x1e@'
p571
tp572
Rp573
ag3
(g7
S'\x91\x85,d!\x0b\t@'
p574
tp575
Rp576
aF1.6923076923076923
aF0.717948717948718
asI79
(lp577
g3
(g7
S'UUUUU\xd5\x1e@'
p578
tp579
Rp580
ag3
(g7
S'UUUUUU\t@'
p581
tp582
Rp583
aF1.6923076923076923
aF0.717948717948718
asI80
(lp584
g3
(g7
S'333333\x1f@'
p585
tp586
Rp587
ag3
(g7
S'\x9a\x99\x99\x99\x99\x99\t@'
p588
tp589
Rp590
aF1.6923076923076923
aF0.717948717948718
asI81
(lp591
g3
(g7
S"'vb'vb\x1f@"
p592
tp593
Rp594
ag3
(g7
S"vb'vb'\n@"
p595
tp596
Rp597
aF1.6923076923076923
aF0.717948717948718
assI2
(dp598
I68
(lp599
g3
(g7
S'\r\xe55\x94\xd7P\x1e@'
p600
tp601
Rp602
ag3
(g7
S'\xbd\x86\xf2\x1a\xcak\x00@'
p603
tp604
Rp605
aF2.5833333333333335
aF0.5833333333333334
asI73
(lp606
g3
(g7
S'\x92$I\x92$I\x1e@'
p607
tp608
Rp609
ag3
(g7
S'1\x0c\xc30\x0c\xc3\x00@'
p610
tp611
Rp612
aF2.5833333333333335
aF0.5833333333333334
asI74
(lp613
g3
(g7
S'\xba\xe8\xa2\x8b.\xba\x1e@'
p614
tp615
Rp616
ag3
(g7
S'\xba\xe8\xa2\x8b.\xba\x00@'
p617
tp618
Rp619
aF2.5833333333333335
aF0.5833333333333334
asI75
(lp620
g3
(g7
S'\x92$I\x92$I\x1e@'
p621
tp622
Rp623
ag3
(g7
S'I\x92$I\x92$\x01@'
p624
tp625
Rp626
aF2.6666666666666665
aF0.625
asI76
(lp627
g3
(g7
S'\x8c.\xba\xe8\xa2\x8b\x1e@'
p628
tp629
Rp630
ag3
(g7
S']t\xd1E\x17]\x00@'
p631
tp632
Rp633
aF2.75
aF0.5833333333333334
asI77
(lp634
g3
(g7
S'\xeaMoz\xd3\x9b\x1e@'
p635
tp636
Rp637
ag3
(g7
S'\x00\x00\x00\x00\x00\x00\x00@'
p638
tp639
Rp640
aF2.75
aF0.5833333333333334
asI78
(lp641
g3
(g7
S'\xeaMoz\xd3\x9b\x1e@'
p642
tp643
Rp644
ag3
(g7
S'\x00\x00\x00\x00\x00\x00\x00@'
p645
tp646
Rp647
aF2.75
aF0.5833333333333334
asI79
(lp648
g3
(g7
S'UUUUU\xd5\x1e@'
p649
tp650
Rp651
ag3
(g7
S'UUUUUU\xff?'
p652
tp653
Rp654
aF2.75
aF0.5833333333333334
asI80
(lp655
g3
(g7
S'333333\x1f@'
p656
tp657
Rp658
ag3
(g7
S'\\\x8f\xc2\xf5(\\\xff?'
p659
tp660
Rp661
aF2.75
aF0.5833333333333334
asI81
(lp662
g3
(g7
S"'vb'vb\x1f@"
p663
tp664
Rp665
ag3
(g7
S'\xec\xc4N\xec\xc4N\x00@'
p666
tp667
Rp668
aF2.75
aF0.5833333333333334
asI82
(lp669
g3
(g7
S'333333\x1f@'
p670
tp671
Rp672
ag3
(g7
S'\\\x8f\xc2\xf5(\\\xff?'
p673
tp674
Rp675
aF2.75
aF0.5833333333333334
asI83
(lp676
g3
(g7
S'\n\xd7\xa3p=\n\x1f@'
p677
tp678
Rp679
ag3
(g7
S'\\\x8f\xc2\xf5(\\\xff?'
p680
tp681
Rp682
aF2.75
aF0.5833333333333334
asI84
(lp683
g3
(g7
S"'vb'vb\x1f@"
p684
tp685
Rp686
ag3
(g7
S'O\xec\xc4N\xec\xc4\xfe?'
p687
tp688
Rp689
aF2.75
aF0.5833333333333334
asI85
(lp690
g3
(g7
S'\x86a\x18\x86a\x18\x1e@'
p691
tp692
Rp693
ag3
(g7
S'I\x92$I\x92$\x01@'
p694
tp695
Rp696
aF2.625
aF0.625
asI86
(lp697
g3
(g7
S'\xb1\x13;\xb1\x13;\x1f@'
p698
tp699
Rp700
ag3
(g7
S'O\xec\xc4N\xec\xc4\xfe?'
p701
tp702
Rp703
aF2.75
aF0.5833333333333334
asI87
(lp704
g3
(g7
S"'vb'vb\x1f@"
p705
tp706
Rp707
ag3
(g7
S"'vb'vb\xff?"
p708
tp709
Rp710
aF2.7916666666666665
aF0.625
asI88
(lp711
g3
(g7
S'\xa1\xbd\x84\xf6\x12\xda\x1f@'
p712
tp713
Rp714
ag3
(g7
S'\x00\x00\x00\x00\x00\x00\x00@'
p715
tp716
Rp717
aF2.7916666666666665
aF0.625
asI89
(lp718
g3
(g7
S'\x00\x00\x00\x00\x00\x00\x1e@'
p719
tp720
Rp721
ag3
(g7
S'\xba\xe8\xa2\x8b.\xba\x00@'
p722
tp723
Rp724
aF2.7083333333333335
aF0.625
asI90
(lp725
g3
(g7
S'\xba\xe8\xa2\x8b.\xba\x1e@'
p726
tp727
Rp728
ag3
(g7
S'\x17]t\xd1E\x17\x01@'
p729
tp730
Rp731
aF2.875
aF0.7083333333333334
asI91
(lp732
g3
(g7
S'\x8c.\xba\xe8\xa2\x8b\x1e@'
p733
tp734
Rp735
ag3
(g7
S'\xba\xe8\xa2\x8b.\xba\x00@'
p736
tp737
Rp738
aF2.875
aF0.7083333333333334
asI92
(lp739
g3
(g7
S'\xba\xe8\xa2\x8b.\xba\x1e@'
p740
tp741
Rp742
ag3
(g7
S'\x17]t\xd1E\x17\x01@'
p743
tp744
Rp745
aF2.875
aF0.7083333333333334
asI93
(lp746
g3
(g7
S'oz\xd3\x9b\xde\xf4\x1e@'
p747
tp748
Rp749
ag3
(g7
S'\x9c\xde\xf4\xa67\xbd\x01@'
p750
tp751
Rp752
aF2.875
aF0.7083333333333334
asI94
(lp753
g3
(g7
S'oz\xd3\x9b\xde\xf4\x1e@'
p754
tp755
Rp756
ag3
(g7
S'\x9c\xde\xf4\xa67\xbd\x01@'
p757
tp758
Rp759
aF2.875
aF0.7083333333333334
asI95
(lp760
g3
(g7
S'\xb2\x90\x85,d!\x1f@'
p761
tp762
Rp763
ag3
(g7
S'\x16\xb2\x90\x85,d\x01@'
p764
tp765
Rp766
aF3.0
aF0.75
asI96
(lp767
g3
(g7
S'\xb2\x90\x85,d!\x1f@'
p768
tp769
Rp770
ag3
(g7
S'\x16\xb2\x90\x85,d\x01@'
p771
tp772
Rp773
aF3.0
aF0.75
asI97
(lp774
g3
(g7
S'oz\xd3\x9b\xde\xf4\x1e@'
p775
tp776
Rp777
ag3
(g7
S'\x16\xb2\x90\x85,d\x01@'
p778
tp779
Rp780
aF3.0
aF0.75
asI98
(lp781
g3
(g7
S'\xab\xaa\xaa\xaa\xaa*\x1f@'
p782
tp783
Rp784
ag3
(g7
S'UUUUUU\x01@'
p785
tp786
Rp787
aF3.0
aF0.75
asI99
(lp788
g3
(g7
S'\xb2\x90\x85,d!\x1f@'
p789
tp790
Rp791
ag3
(g7
S'\x16\xb2\x90\x85,d\x01@'
p792
tp793
Rp794
aF3.0
aF0.75
asI100
(lp795
g3
(g7
S'oz\xd3\x9b\xde\xf4\x1e@'
p796
tp797
Rp798
ag3
(g7
S'\x16\xb2\x90\x85,d\x01@'
p799
tp800
Rp801
aF3.0
aF0.75
asI101
(lp802
g3
(g7
S'\xab\xaa\xaa\xaa\xaa*\x1f@'
p803
tp804
Rp805
ag3
(g7
S'UUUUUU\x01@'
p806
tp807
Rp808
aF3.0
aF0.75
asI102
(lp809
g3
(g7
S'\xb2\x90\x85,d!\x1f@'
p810
tp811
Rp812
ag3
(g7
S'\x16\xb2\x90\x85,d\x01@'
p813
tp814
Rp815
aF3.0
aF0.75
asI103
(lp816
g3
(g7
S'UUUUU\xd5\x1e@'
p817
tp818
Rp819
ag3
(g7
S'\x00\x00\x00\x00\x00\x00\x01@'
p820
tp821
Rp822
aF3.0833333333333335
aF0.7916666666666666
asI104
(lp823
g3
(g7
S'\xf5\xa67\xbd\xe9M\x1f@'
p824
tp825
Rp826
ag3
(g7
S'\x16\xb2\x90\x85,d\x01@'
p827
tp828
Rp829
aF3.0416666666666665
aF0.75
asI105
(lp830
g3
(g7
S'UUUUU\xd5\x1e@'
p831
tp832
Rp833
ag3
(g7
S'UUUUUU\x01@'
p834
tp835
Rp836
aF3.0416666666666665
aF0.7916666666666666
asI106
(lp837
g3
(g7
S'\xe1z\x14\xaeG\xe1\x1e@'
p838
tp839
Rp840
ag3
(g7
S'\xf6(\\\x8f\xc2\xf5\x00@'
p841
tp842
Rp843
aF3.125
aF0.7916666666666666
asI107
(lp844
g3
(g7
S'\n\xd7\xa3p=\n\x1f@'
p845
tp846
Rp847
ag3
(g7
S'\xf6(\\\x8f\xc2\xf5\x00@'
p848
tp849
Rp850
aF3.125
aF0.7916666666666666
asI108
(lp851
g3
(g7
S'333333\x1f@'
p852
tp853
Rp854
ag3
(g7
S'H\xe1z\x14\xaeG\x01@'
p855
tp856
Rp857
aF3.125
aF0.7916666666666666
asI109
(lp858
g3
(g7
S'333333\x1f@'
p859
tp860
Rp861
ag3
(g7
S'H\xe1z\x14\xaeG\x01@'
p862
tp863
Rp864
aF3.125
aF0.7916666666666666
asI110
(lp865
g3
(g7
S'\n\xd7\xa3p=\n\x1f@'
p866
tp867
Rp868
ag3
(g7
S'H\xe1z\x14\xaeG\x01@'
p869
tp870
Rp871
aF3.125
aF0.7916666666666666
asI111
(lp872
g3
(g7
S'\xe1z\x14\xaeG\xe1\x1e@'
p873
tp874
Rp875
ag3
(g7
S'\xf6(\\\x8f\xc2\xf5\x00@'
p876
tp877
Rp878
aF3.125
aF0.7916666666666666
asI112
(lp879
g3
(g7
S'oz\xd3\x9b\xde\xf4\x1e@'
p880
tp881
Rp882
ag3
(g7
S'\x9c\xde\xf4\xa67\xbd\x01@'
p883
tp884
Rp885
aF3.125
aF0.8333333333333334
asI113
(lp886
g3
(g7
S'\xb2\x90\x85,d!\x1f@'
p887
tp888
Rp889
ag3
(g7
S'!\x0bY\xc8B\x16\x02@'
p890
tp891
Rp892
aF3.1666666666666665
aF0.875
asI114
(lp893
g3
(g7
S'oz\xd3\x9b\xde\xf4\x1e@'
p894
tp895
Rp896
ag3
(g7
S'!\x0bY\xc8B\x16\x02@'
p897
tp898
Rp899
aF3.1666666666666665
aF0.875
asI115
(lp900
g3
(g7
S'UUUUU\xd5\x1e@'
p901
tp902
Rp903
ag3
(g7
S'\x00\x00\x00\x00\x00\x00\x02@'
p904
tp905
Rp906
aF3.1666666666666665
aF0.875
asI116
(lp907
g3
(g7
S'\xe1z\x14\xaeG\xe1\x1e@'
p908
tp909
Rp910
ag3
(g7
S'\x9a\x99\x99\x99\x99\x99\x01@'
p911
tp912
Rp913
aF3.2083333333333335
aF0.875
assI3
(dp914
I128
(lp915
g3
(g7
S'\x9e\xd8\x89\x9d\xd8\x89\x1f@'
p916
tp917
Rp918
ag3
(g7
S'\x00\x00\x00\x00\x00\x00\xf0?'
p919
tp920
Rp921
aF4.411764705882353
aF0.7647058823529411
asI129
(lp922
g3
(g7
S'\x00\x00\x00\x00\x00\x00 @'
p923
tp924
Rp925
ag3
(g7
S'\xf7\x12\xdaKh/\xf1?'
p926
tp927
Rp928
aF4.411764705882353
aF0.7647058823529411
asI130
(lp929
g3
(g7
S'n\xdb\xb6m\xdb6 @'
p930
tp931
Rp932
ag3
(g7
S'\x92$I\x92$I\xf2?'
p933
tp934
Rp935
aF4.411764705882353
aF0.7647058823529411
asI131
(lp936
g3
(g7
S'_B{\t\xed% @'
p937
tp938
Rp939
ag3
(g7
S'\xe48\x8e\xe38\x8e\xf3?'
p940
tp941
Rp942
aF4.294117647058823
aF0.7647058823529411
asI132
(lp943
g3
(g7
S'\xeei\x84\xe5\x9eF @'
p944
tp945
Rp946
ag3
(g7
S'\t\xcb=\x8d\xb0\xdc\xf3?'
p947
tp948
Rp949
aF4.411764705882353
aF0.7647058823529411
asI133
(lp950
g3
(g7
S'\xeei\x84\xe5\x9eF @'
p951
tp952
Rp953
ag3
(g7
S',\xf74\xc2rO\xf3?'
p954
tp955
Rp956
aF4.647058823529412
aF0.8823529411764706
asI134
(lp957
g3
(g7
S'\x9e\xd8\x89\x9d\xd8\x89\x1f@'
p958
tp959
Rp960
ag3
(g7
S';\xb1\x13;\xb1\x13\xf3?'
p961
tp962
Rp963
aF4.411764705882353
aF0.8235294117647058
asI135
(lp964
g3
(g7
S"'vb'vb\x1f@"
p965
tp966
Rp967
ag3
(g7
S';\xb1\x13;\xb1\x13\xf3?'
p968
tp969
Rp970
aF4.411764705882353
aF0.8235294117647058
asI136
(lp971
g3
(g7
S'\x85\xf6\x12\xdaKh\x1f@'
p972
tp973
Rp974
ag3
(g7
S'\xed%\xb4\x97\xd0^\xf2?'
p975
tp976
Rp977
aF4.411764705882353
aF0.8235294117647058
asI137
(lp978
g3
(g7
S'\x9e\xd8\x89\x9d\xd8\x89\x1f@'
p979
tp980
Rp981
ag3
(g7
S';\xb1\x13;\xb1\x13\xf3?'
p982
tp983
Rp984
aF4.411764705882353
aF0.8235294117647058
asI138
(lp985
g3
(g7
S'sO#,\xf74 @'
p986
tp987
Rp988
ag3
(g7
S',\xf74\xc2rO\xf3?'
p989
tp990
Rp991
aF4.647058823529412
aF0.8823529411764706
asI139
(lp992
g3
(g7
S'\xc7q\x1c\xc7q\x1c\x1f@'
p993
tp994
Rp995
ag3
(g7
S'h/\xa1\xbd\x84\xf6\xf2?'
p996
tp997
Rp998
aF4.411764705882353
aF0.8235294117647058
asI140
(lp999
g3
(g7
S'&\xb4\x97\xd0^B\x1f@'
p1000
tp1001
Rp1002
ag3
(g7
S'h/\xa1\xbd\x84\xf6\xf2?'
p1003
tp1004
Rp1005
aF4.411764705882353
aF0.8235294117647058
asI141
(lp1006
g3
(g7
S'\xc7q\x1c\xc7q\x1c\x1f@'
p1007
tp1008
Rp1009
ag3
(g7
S'_B{\t\xed%\xf4?'
p1010
tp1011
Rp1012
aF4.529411764705882
aF0.8823529411764706
asI142
(lp1013
g3
(g7
S'|\x1aa\xb9\xa7\x11 @'
p1014
tp1015
Rp1016
ag3
(g7
S'\t\xcb=\x8d\xb0\xdc\xf3?'
p1017
tp1018
Rp1019
aF4.705882352941177
aF1.0
asI107
(lp1020
g3
(g7
S'\n\xd7\xa3p=\n\x1f@'
p1021
tp1022
Rp1023
ag3
(g7
S'\x9a\x99\x99\x99\x99\x99\xe9?'
p1024
tp1025
Rp1026
aF4.411764705882353
aF0.6470588235294118
asI112
(lp1027
g3
(g7
S'oz\xd3\x9b\xde\xf4\x1e@'
p1028
tp1029
Rp1030
ag3
(g7
S'\x91\x85,d!\x0b\xe9?'
p1031
tp1032
Rp1033
aF4.411764705882353
aF0.5882352941176471
asI113
(lp1034
g3
(g7
S'\xb2\x90\x85,d!\x1f@'
p1035
tp1036
Rp1037
ag3
(g7
S'\x91\x85,d!\x0b\xe9?'
p1038
tp1039
Rp1040
aF4.470588235294118
aF0.5882352941176471
asI114
(lp1041
g3
(g7
S'oz\xd3\x9b\xde\xf4\x1e@'
p1042
tp1043
Rp1044
ag3
(g7
S'\x91\x85,d!\x0b\xe9?'
p1045
tp1046
Rp1047
aF4.470588235294118
aF0.5882352941176471
asI115
(lp1048
g3
(g7
S'UUUUU\xd5\x1e@'
p1049
tp1050
Rp1051
ag3
(g7
S'\x00\x00\x00\x00\x00\x00\xe8?'
p1052
tp1053
Rp1054
aF4.470588235294118
aF0.5882352941176471
asI116
(lp1055
g3
(g7
S'\xe1z\x14\xaeG\xe1\x1e@'
p1056
tp1057
Rp1058
ag3
(g7
S'\n\xd7\xa3p=\n\xe7?'
p1059
tp1060
Rp1061
aF4.529411764705882
aF0.5882352941176471
asI117
(lp1062
g3
(g7
S'333333\x1f@'
p1063
tp1064
Rp1065
ag3
(g7
S'q=\n\xd7\xa3p\xed?'
p1066
tp1067
Rp1068
aF4.352941176470588
aF0.6470588235294118
asI118
(lp1069
g3
(g7
S'\x9e\xd8\x89\x9d\xd8\x89\x1f@'
p1070
tp1071
Rp1072
ag3
(g7
S'\x9e\xd8\x89\x9d\xd8\x89\xed?'
p1073
tp1074
Rp1075
aF4.352941176470588
aF0.6470588235294118
asI119
(lp1076
g3
(g7
S'\n\xd7\xa3p=\n\x1f@'
p1077
tp1078
Rp1079
ag3
(g7
S'q=\n\xd7\xa3p\xed?'
p1080
tp1081
Rp1082
aF4.294117647058823
aF0.6470588235294118
asI120
(lp1083
g3
(g7
S'\x8f\xc2\xf5(\\\x8f\x1e@'
p1084
tp1085
Rp1086
ag3
(g7
S'R\xb8\x1e\x85\xebQ\xe8?'
p1087
tp1088
Rp1089
aF4.529411764705882
aF0.6470588235294118
asI121
(lp1090
g3
(g7
S'\\\x8f\xc2\xf5(\\\x1f@'
p1091
tp1092
Rp1093
ag3
(g7
S'q=\n\xd7\xa3p\xed?'
p1094
tp1095
Rp1096
aF4.352941176470588
aF0.6470588235294118
asI122
(lp1097
g3
(g7
S'\x00\x00\x00\x00\x00\x00\x1f@'
p1098
tp1099
Rp1100
ag3
(g7
S'\x00\x00\x00\x00\x00\x00\xec?'
p1101
tp1102
Rp1103
aF4.529411764705882
aF0.6470588235294118
asI123
(lp1104
g3
(g7
S'UUUUU\xd5\x1e@'
p1105
tp1106
Rp1107
ag3
(g7
S'\x00\x00\x00\x00\x00\x00\xec?'
p1108
tp1109
Rp1110
aF4.529411764705882
aF0.6470588235294118
asI124
(lp1111
g3
(g7
S'\x9a\x99\x99\x99\x99\x99\x1d@'
p1112
tp1113
Rp1114
ag3
(g7
S'\x9a\x99\x99\x99\x99\x99\xe9?'
p1115
tp1116
Rp1117
aF4.529411764705882
aF0.7058823529411765
asI125
(lp1118
g3
(g7
S"b'vb'v\x1e@"
p1119
tp1120
Rp1121
ag3
(g7
S'\xec\xc4N\xec\xc4N\xec?'
p1122
tp1123
Rp1124
aF4.352941176470588
aF0.6470588235294118
asI126
(lp1125
g3
(g7
S'=\n\xd7\xa3p=\x1e@'
p1126
tp1127
Rp1128
ag3
(g7
S')\\\x8f\xc2\xf5(\xec?'
p1129
tp1130
Rp1131
aF4.647058823529412
aF0.7058823529411765
asI127
(lp1132
g3
(g7
S'\x14;\xb1\x13;\xb1\x1f@'
p1133
tp1134
Rp1135
ag3
(g7
S'\xd9\x89\x9d\xd8\x89\x9d\xf0?'
p1136
tp1137
Rp1138
aF4.411764705882353
aF0.7647058823529411
assI4
(dp1139
I136
(lp1140
g3
(g7
S'\x85\xf6\x12\xdaKh\x1f@'
p1141
tp1142
Rp1143
ag3
(g7
S'\xb4\x97\xd0^B{\t@'
p1144
tp1145
Rp1146
aF2.027027027027027
aF0.7297297297297297
asI137
(lp1147
g3
(g7
S'\x9e\xd8\x89\x9d\xd8\x89\x1f@'
p1148
tp1149
Rp1150
ag3
(g7
S'\xb1\x13;\xb1\x13;\t@'
p1151
tp1152
Rp1153
aF2.027027027027027
aF0.7297297297297297
asI138
(lp1154
g3
(g7
S'sO#,\xf74 @'
p1155
tp1156
Rp1157
ag3
(g7
S'>\x8d\xb0\xdc\xd3\x08\x0b@'
p1158
tp1159
Rp1160
aF2.135135135135135
aF0.7837837837837838
asI139
(lp1161
g3
(g7
S'\xc7q\x1c\xc7q\x1c\x1f@'
p1162
tp1163
Rp1164
ag3
(g7
S'{\t\xed%\xb4\x97\x08@'
p1165
tp1166
Rp1167
aF2.027027027027027
aF0.7297297297297297
asI140
(lp1168
g3
(g7
S'&\xb4\x97\xd0^B\x1f@'
p1169
tp1170
Rp1171
ag3
(g7
S'9\x8e\xe38\x8e\xe3\x08@'
p1172
tp1173
Rp1174
aF2.027027027027027
aF0.7297297297297297
asI141
(lp1175
g3
(g7
S'\xc7q\x1c\xc7q\x1c\x1f@'
p1176
tp1177
Rp1178
ag3
(g7
S'\x85\xf6\x12\xdaKh\x07@'
p1179
tp1180
Rp1181
aF2.081081081081081
aF0.7567567567567568
asI142
(lp1182
g3
(g7
S'|\x1aa\xb9\xa7\x11 @'
p1183
tp1184
Rp1185
ag3
(g7
S',\xf74\xc2rO\x0b@'
p1186
tp1187
Rp1188
aF2.1621621621621623
aF0.7837837837837838
asI143
(lp1189
g3
(g7
S'|\x1aa\xb9\xa7\x11 @'
p1190
tp1191
Rp1192
ag3
(g7
S',\xf74\xc2rO\x0b@'
p1193
tp1194
Rp1195
aF2.1621621621621623
aF0.7837837837837838
asI144
(lp1196
g3
(g7
S'"""""" @'
p1197
tp1198
Rp1199
ag3
(g7
S'333333\x0b@'
p1200
tp1201
Rp1202
aF2.189189189189189
aF0.7837837837837838
asI145
(lp1203
g3
(g7
S'\x11B\x08!\x84\x10 @'
p1204
tp1205
Rp1206
ag3
(g7
S'\xd7Zk\xad\xb5\xd6\n@'
p1207
tp1208
Rp1209
aF2.189189189189189
aF0.7837837837837838
asI146
(lp1210
g3
(g7
S'!\x84\x10B\x08! @'
p1211
tp1212
Rp1213
ag3
(g7
S'\xd7Zk\xad\xb5\xd6\n@'
p1214
tp1215
Rp1216
aF2.189189189189189
aF0.7837837837837838
asI147
(lp1217
g3
(g7
S'2\xc6\x18c\x8c1 @'
p1218
tp1219
Rp1220
ag3
(g7
S'\x19c\x8c1\xc6\x18\x0b@'
p1221
tp1222
Rp1223
aF2.189189189189189
aF0.7837837837837838
asI148
(lp1224
g3
(g7
S'\x00\x00\x00\x00\x00\xc0\x1f@'
p1225
tp1226
Rp1227
ag3
(g7
S'\x00\x00\x00\x00\x00@\n@'
p1228
tp1229
Rp1230
aF2.189189189189189
aF0.7837837837837838
asI149
(lp1231
g3
(g7
S'\t\xed%\xb4\x97\xd0\x1e@'
p1232
tp1233
Rp1234
ag3
(g7
S'\xc7q\x1c\xc7q\x1c\x07@'
p1235
tp1236
Rp1237
aF2.108108108108108
aF0.7837837837837838
asI150
(lp1238
g3
(g7
S'2\xc6\x18c\x8c1 @'
p1239
tp1240
Rp1241
ag3
(g7
S'\xd7Zk\xad\xb5\xd6\n@'
p1242
tp1243
Rp1244
aF2.189189189189189
aF0.7837837837837838
asI151
(lp1245
g3
(g7
S'\xc7q\x1c\xc7q\x1c\x1f@'
p1246
tp1247
Rp1248
ag3
(g7
S'\xb4\x97\xd0^B{\t@'
p1249
tp1250
Rp1251
aF2.108108108108108
aF0.8108108108108109
asI152
(lp1252
g3
(g7
S'\xb7m\xdb\xb6m\xdb\x1e@'
p1253
tp1254
Rp1255
ag3
(g7
S'I\x92$I\x92$\t@'
p1256
tp1257
Rp1258
aF2.108108108108108
aF0.8108108108108109
asI153
(lp1259
g3
(g7
S'\x12\x96{\x1aa\xb9\x1f@'
p1260
tp1261
Rp1262
ag3
(g7
S'>\x8d\xb0\xdc\xd3\x08\x0b@'
p1263
tp1264
Rp1265
aF2.1621621621621623
aF0.8108108108108109
asI154
(lp1266
g3
(g7
S'\xf74\xc2rO# @'
p1267
tp1268
Rp1269
ag3
(g7
S'\x1aa\xb9\xa7\x11\x96\x0b@'
p1270
tp1271
Rp1272
aF2.2162162162162162
aF0.8108108108108109
asI155
(lp1273
g3
(g7
S'\t\xcb=\x8d\xb0\xdc\x1f@'
p1274
tp1275
Rp1276
ag3
(g7
S',\xf74\xc2rO\x0b@'
p1277
tp1278
Rp1279
aF2.189189189189189
aF0.8378378378378378
asI156
(lp1280
g3
(g7
S'\t\xcb=\x8d\xb0\xdc\x1f@'
p1281
tp1282
Rp1283
ag3
(g7
S'>\x8d\xb0\xdc\xd3\x08\x0b@'
p1284
tp1285
Rp1286
aF2.2162162162162162
aF0.8378378378378378
asI157
(lp1287
g3
(g7
S'\x00\x00\x00\x00\x00\x00 @'
p1288
tp1289
Rp1290
ag3
(g7
S'DDDDDD\x0c@'
p1291
tp1292
Rp1293
aF2.2162162162162162
aF0.8378378378378378
asI158
(lp1294
g3
(g7
S'\x00\x00\x00\x00\x00\x00 @'
p1295
tp1296
Rp1297
ag3
(g7
S'DDDDDD\x0c@'
p1298
tp1299
Rp1300
aF2.2162162162162162
aF0.8378378378378378
asI159
(lp1301
g3
(g7
S'\xde\xdd\xdd\xdd\xdd\xdd\x1f@'
p1302
tp1303
Rp1304
ag3
(g7
S'DDDDDD\x0c@'
p1305
tp1306
Rp1307
aF2.2162162162162162
aF0.8378378378378378
asI160
(lp1308
g3
(g7
S'\xbc\xbb\xbb\xbb\xbb\xbb\x1f@'
p1309
tp1310
Rp1311
ag3
(g7
S'DDDDDD\x0c@'
p1312
tp1313
Rp1314
aF2.189189189189189
aF0.8378378378378378
assI5
(dp1315
I151
(lp1316
g3
(g7
S'\xc7q\x1c\xc7q\x1c\x1f@'
p1317
tp1318
Rp1319
ag3
(g7
S'\xc7q\x1c\xc7q\x1c\x0f@'
p1320
tp1321
Rp1322
aF1.5918367346938775
aF0.7346938775510204
asI155
(lp1323
g3
(g7
S'\t\xcb=\x8d\xb0\xdc\x1f@'
p1324
tp1325
Rp1326
ag3
(g7
S'\xe6\x9eFX\xeei\x10@'
p1327
tp1328
Rp1329
aF1.653061224489796
aF0.8163265306122449
asI156
(lp1330
g3
(g7
S'\t\xcb=\x8d\xb0\xdc\x1f@'
p1331
tp1332
Rp1333
ag3
(g7
S'\xe6\x9eFX\xeei\x10@'
p1334
tp1335
Rp1336
aF1.6734693877551021
aF0.8367346938775511
asI157
(lp1337
g3
(g7
S'\x00\x00\x00\x00\x00\x00 @'
p1338
tp1339
Rp1340
ag3
(g7
S'\x89\x88\x88\x88\x88\x88\x10@'
p1341
tp1342
Rp1343
aF1.6734693877551021
aF0.8367346938775511
asI158
(lp1344
g3
(g7
S'\x00\x00\x00\x00\x00\x00 @'
p1345
tp1346
Rp1347
ag3
(g7
S'\x89\x88\x88\x88\x88\x88\x10@'
p1348
tp1349
Rp1350
aF1.6734693877551021
aF0.8367346938775511
asI159
(lp1351
g3
(g7
S'\xde\xdd\xdd\xdd\xdd\xdd\x1f@'
p1352
tp1353
Rp1354
ag3
(g7
S'ffffff\x10@'
p1355
tp1356
Rp1357
aF1.6734693877551021
aF0.8367346938775511
asI160
(lp1358
g3
(g7
S'\xbc\xbb\xbb\xbb\xbb\xbb\x1f@'
p1359
tp1360
Rp1361
ag3
(g7
S'DDDDDD\x10@'
p1362
tp1363
Rp1364
aF1.653061224489796
aF0.8163265306122449
asI161
(lp1365
g3
(g7
S'\t\xcb=\x8d\xb0\xdc\x1f@'
p1366
tp1367
Rp1368
ag3
(g7
S'\xe6\x9eFX\xeei\x10@'
p1369
tp1370
Rp1371
aF1.6734693877551021
aF0.8367346938775511
asI162
(lp1372
g3
(g7
S'\x12\x96{\x1aa\xb9\x1f@'
p1373
tp1374
Rp1375
ag3
(g7
S'\xeei\x84\xe5\x9eF\x10@'
p1376
tp1377
Rp1378
aF1.6734693877551021
aF0.8367346938775511
asI163
(lp1379
g3
(g7
S'\x12\x96{\x1aa\xb9\x1f@'
p1380
tp1381
Rp1382
ag3
(g7
S'\xeei\x84\xe5\x9eF\x10@'
p1383
tp1384
Rp1385
aF1.6734693877551021
aF0.8367346938775511
asI164
(lp1386
g3
(g7
S'\x11\x11\x11\x11\x11\x11 @'
p1387
tp1388
Rp1389
ag3
(g7
S'\xab\xaa\xaa\xaa\xaa\xaa\x10@'
p1390
tp1391
Rp1392
aF1.6938775510204083
aF0.8571428571428571
asI165
(lp1393
g3
(g7
S'\x12\x96{\x1aa\xb9\x1f@'
p1394
tp1395
Rp1396
ag3
(g7
S'\xeei\x84\xe5\x9eF\x10@'
p1397
tp1398
Rp1399
aF1.6734693877551021
aF0.8367346938775511
asI166
(lp1400
g3
(g7
S'2\xc6\x18c\x8c1 @'
p1401
tp1402
Rp1403
ag3
(g7
S'\x08!\x84\x10B\x08\x11@'
p1404
tp1405
Rp1406
aF1.7551020408163265
aF0.9183673469387755
asI167
(lp1407
g3
(g7
S'\x00\x00\x00\x00\x00\x10 @'
p1408
tp1409
Rp1410
ag3
(g7
S'\x00\x00\x00\x00\x00\xc0\x10@'
p1411
tp1412
Rp1413
aF1.7551020408163265
aF0.9183673469387755
asI168
(lp1414
g3
(g7
S'\xe1\x83\x0f>\xf8\xe0\x1f@'
p1415
tp1416
Rp1417
ag3
(g7
S'|\xf0\xc1\x07\x1f|\x10@'
p1418
tp1419
Rp1420
aF1.7551020408163265
aF0.9183673469387755
asI169
(lp1421
g3
(g7
S'\xc4\xc3\xc3\xc3\xc3\xc3\x1f@'
p1422
tp1423
Rp1424
ag3
(g7
S'ZZZZZZ\x10@'
p1425
tp1426
Rp1427
aF1.7551020408163265
aF0.9183673469387755
asI170
(lp1428
g3
(g7
S'\xc4\xc3\xc3\xc3\xc3\xc3\x1f@'
p1429
tp1430
Rp1431
ag3
(g7
S'ZZZZZZ\x10@'
p1432
tp1433
Rp1434
aF1.7551020408163265
aF0.9183673469387755
asI171
(lp1435
g3
(g7
S'\xe2\xe1\xe1\xe1\xe1\xe1\x1f@'
p1436
tp1437
Rp1438
ag3
(g7
S'\x97\x96\x96\x96\x96\x96\x10@'
p1439
tp1440
Rp1441
aF1.7755102040816326
aF0.9387755102040817
asI172
(lp1442
g3
(g7
S'\xe2\xe1\xe1\xe1\xe1\xe1\x1f@'
p1443
tp1444
Rp1445
ag3
(g7
S'\x97\x96\x96\x96\x96\x96\x10@'
p1446
tp1447
Rp1448
aF1.7755102040816326
aF0.9387755102040817
asI173
(lp1449
g3
(g7
S'\x00\x00\x00\x00\x00\x00 @'
p1450
tp1451
Rp1452
ag3
(g7
S'\xb5\xb4\xb4\xb4\xb4\xb4\x10@'
p1453
tp1454
Rp1455
aF1.7755102040816326
aF0.9387755102040817
asI174
(lp1456
g3
(g7
S'\x00\x00\x00\x00\x00\x00 @'
p1457
tp1458
Rp1459
ag3
(g7
S'\xb5\xb4\xb4\xb4\xb4\xb4\x10@'
p1460
tp1461
Rp1462
aF1.7755102040816326
aF0.9387755102040817
asI175
(lp1463
g3
(g7
S'\x00\x00\x00\x00\x00\x00 @'
p1464
tp1465
Rp1466
ag3
(g7
S'\xb5\xb4\xb4\xb4\xb4\xb4\x10@'
p1467
tp1468
Rp1469
aF1.7755102040816326
aF0.9387755102040817
asI176
(lp1470
g3
(g7
S'\xdb\xb6m\xdb\xb6m\x1f@'
p1471
tp1472
Rp1473
ag3
(g7
S'%I\x92$I\x92\x10@'
p1474
tp1475
Rp1476
aF1.7755102040816326
aF0.9387755102040817
asI177
(lp1477
g3
(g7
S'\xdb\xb6m\xdb\xb6m\x1f@'
p1478
tp1479
Rp1480
ag3
(g7
S'%I\x92$I\x92\x10@'
p1481
tp1482
Rp1483
aF1.7755102040816326
aF0.9387755102040817
asI178
(lp1484
g3
(g7
S'\x1c\xc7q\x1c\xc7q\x1f@'
p1485
tp1486
Rp1487
ag3
(g7
S'\xe48\x8e\xe38\x8e\x10@'
p1488
tp1489
Rp1490
aF1.7755102040816326
aF0.9387755102040817
asI179
(lp1491
g3
(g7
S'\xdb\xb6m\xdb\xb6m\x1f@'
p1492
tp1493
Rp1494
ag3
(g7
S'%I\x92$I\x92\x10@'
p1495
tp1496
Rp1497
aF1.7755102040816326
aF0.9387755102040817
asI180
(lp1498
g3
(g7
S'\xb0\xf8\x8a\xaf\xf8\x8a\x1f@'
p1499
tp1500
Rp1501
ag3
(g7
S'\xf9\x8a\xaf\xf8\x8a\xaf\x10@'
p1502
tp1503
Rp1504
aF1.7959183673469388
aF0.9591836734693877
asI181
(lp1505
g3
(g7
S'UUUUUU\x1f@'
p1506
tp1507
Rp1508
ag3
(g7
S'\xab\xaa\xaa\xaa\xaa\xaa\x10@'
p1509
tp1510
Rp1511
aF1.836734693877551
aF0.9795918367346939
assI6
(dp1512
I173
(lp1513
g3
(g7
S'\x00\x00\x00\x00\x00\x00 @'
p1514
tp1515
Rp1516
ag3
(g7
S'\x00\x00\x00\x00\x00\x00\xe0?'
p1517
tp1518
Rp1519
aF8.7
aF0.9
asI174
(lp1520
g3
(g7
S'\x00\x00\x00\x00\x00\x00 @'
p1521
tp1522
Rp1523
ag3
(g7
S'\x00\x00\x00\x00\x00\x00\xe0?'
p1524
tp1525
Rp1526
aF8.7
aF0.9
asI175
(lp1527
g3
(g7
S'\x00\x00\x00\x00\x00\x00 @'
p1528
tp1529
Rp1530
ag3
(g7
S'\x00\x00\x00\x00\x00\x00\xe0?'
p1531
tp1532
Rp1533
aF8.7
aF0.9
asI176
(lp1534
g3
(g7
S'\xdb\xb6m\xdb\xb6m\x1f@'
p1535
tp1536
Rp1537
ag3
(g7
S'_\xf1\x15_\xf1\x15\xdf?'
p1538
tp1539
Rp1540
aF8.7
aF0.9
asI177
(lp1541
g3
(g7
S'\xdb\xb6m\xdb\xb6m\x1f@'
p1542
tp1543
Rp1544
ag3
(g7
S'_\xf1\x15_\xf1\x15\xdf?'
p1545
tp1546
Rp1547
aF8.7
aF0.9
asI178
(lp1548
g3
(g7
S'\x1c\xc7q\x1c\xc7q\x1f@'
p1549
tp1550
Rp1551
ag3
(g7
S'\x00\x00\x00\x00\x00\x00\xe0?'
p1552
tp1553
Rp1554
aF8.7
aF0.9
asI179
(lp1555
g3
(g7
S'\xdb\xb6m\xdb\xb6m\x1f@'
p1556
tp1557
Rp1558
ag3
(g7
S'_\xf1\x15_\xf1\x15\xdf?'
p1559
tp1560
Rp1561
aF8.7
aF0.9
asI180
(lp1562
g3
(g7
S'\xb0\xf8\x8a\xaf\xf8\x8a\x1f@'
p1563
tp1564
Rp1565
ag3
(g7
S'_\xf1\x15_\xf1\x15\xdf?'
p1566
tp1567
Rp1568
aF8.8
aF0.9
asI181
(lp1569
g3
(g7
S'UUUUUU\x1f@'
p1570
tp1571
Rp1572
ag3
(g7
S'\x8e\xe38\x8e\xe38\xde?'
p1573
tp1574
Rp1575
aF9.0
aF0.9
asI182
(lp1576
g3
(g7
S'KKKKKK\x1f@'
p1577
tp1578
Rp1579
ag3
(g7
S'\xf1\xf0\xf0\xf0\xf0\xf0\xe0?'
p1580
tp1581
Rp1582
aF8.6
aF0.9
asI183
(lp1583
g3
(g7
S'\xb0\xf8\x8a\xaf\xf8\x8a\x1f@'
p1584
tp1585
Rp1586
ag3
(g7
S'P\x07uP\x07u\xe0?'
p1587
tp1588
Rp1589
aF8.8
aF1.0
asI184
(lp1590
g3
(g7
S'\xb0\xf8\x8a\xaf\xf8\x8a\x1f@'
p1591
tp1592
Rp1593
ag3
(g7
S'P\x07uP\x07u\xe0?'
p1594
tp1595
Rp1596
aF8.8
aF1.0
assI7
(dp1597
I184
(lp1598
g3
(g7
S'\xb0\xf8\x8a\xaf\xf8\x8a\x1f@'
p1599
tp1600
Rp1601
ag3
(g7
S'\x9a\x99\x99\x99\x99\x99\xc9?'
p1602
tp1603
Rp1604
aF29.333333333333332
aF1.0
asI183
(lp1605
g3
(g7
S'\xb0\xf8\x8a\xaf\xf8\x8a\x1f@'
p1606
tp1607
Rp1608
ag3
(g7
S'\x9a\x99\x99\x99\x99\x99\xc9?'
p1609
tp1610
Rp1611
aF29.333333333333332
aF1.0
assI8
(dp1612
I192
(lp1613
g3
(g7
S'\x00\x00\x00\x00\x00\x00 @'
p1614
tp1615
Rp1616
ag3
(g7
S'\x8e\xe38\x8e\xe38\x0e@'
p1617
tp1618
Rp1619
aF1.875
aF0.8958333333333334
asI193
(lp1620
g3
(g7
S'X|\xc5W|\xc5\x1f@'
p1621
tp1622
Rp1623
ag3
(g7
S'\xbe\xe2+\xbe\xe2+\x0e@'
p1624
tp1625
Rp1626
aF1.875
aF0.8958333333333334
asI194
(lp1627
g3
(g7
S'\xab\xaa\xaa\xaa\xaa\xaa\x1f@'
p1628
tp1629
Rp1630
ag3
(g7
S'\x1c\xc7q\x1c\xc7q\x0e@'
p1631
tp1632
Rp1633
aF1.875
aF0.8958333333333334
asI195
(lp1634
g3
(g7
S'\xab\xaa\xaa\xaa\xaa\xaa\x1f@'
p1635
tp1636
Rp1637
ag3
(g7
S'\x1c\xc7q\x1c\xc7q\x0e@'
p1638
tp1639
Rp1640
aF1.875
aF0.8958333333333334
asI196
(lp1641
g3
(g7
S'\x84:\xa8\x83:\xa8\x1f@'
p1642
tp1643
Rp1644
ag3
(g7
S'\xbe\xe2+\xbe\xe2+\x0e@'
p1645
tp1646
Rp1647
aF1.875
aF0.8958333333333334
asI197
(lp1648
g3
(g7
S'X|\xc5W|\xc5\x1f@'
p1649
tp1650
Rp1651
ag3
(g7
S'ffffff\x0e@'
p1652
tp1653
Rp1654
aF1.875
aF0.8958333333333334
asI198
(lp1655
g3
(g7
S',\xbe\xe2+\xbe\xe2\x1f@'
p1656
tp1657
Rp1658
ag3
(g7
S'\x0f\xea\xa0\x0e\xea\xa0\x0e@'
p1659
tp1660
Rp1661
aF1.875
aF0.8958333333333334
asI199
(lp1662
g3
(g7
S'X|\xc5W|\xc5\x1f@'
p1663
tp1664
Rp1665
ag3
(g7
S'ffffff\x0e@'
p1666
tp1667
Rp1668
aF1.875
aF0.8958333333333334
asI200
(lp1669
g3
(g7
S'\x00\x00\x00\x00\x00\x00 @'
p1670
tp1671
Rp1672
ag3
(g7
S'\xb7m\xdb\xb6m\xdb\x0e@'
p1673
tp1674
Rp1675
aF1.8958333333333333
aF0.9166666666666666
asI201
(lp1676
g3
(g7
S'9\x8e\xe38\x8e\xe3\x1f@'
p1677
tp1678
Rp1679
ag3
(g7
S'9\x8e\xe38\x8e\xe3\x0e@'
p1680
tp1681
Rp1682
aF1.8958333333333333
aF0.9166666666666666
asI202
(lp1683
g3
(g7
S'\x8a|\xd6\r\xa6\xc8\x1f@'
p1684
tp1685
Rp1686
ag3
(g7
S'*\xf2Y7\x98"\x0f@'
p1687
tp1688
Rp1689
aF1.9583333333333333
aF0.9375
asI203
(lp1690
g3
(g7
S'\x8a|\xd6\r\xa6\xc8\x1f@'
p1691
tp1692
Rp1693
ag3
(g7
S'*\xf2Y7\x98"\x0f@'
p1694
tp1695
Rp1696
aF1.9583333333333333
aF0.9375
asI183
(lp1697
g3
(g7
S'\xb0\xf8\x8a\xaf\xf8\x8a\x1f@'
p1698
tp1699
Rp1700
ag3
(g7
S'\xc5W|\xc5W|\r@'
p1701
tp1702
Rp1703
aF1.8333333333333333
aF0.8541666666666666
asI184
(lp1704
g3
(g7
S'\xb0\xf8\x8a\xaf\xf8\x8a\x1f@'
p1705
tp1706
Rp1707
ag3
(g7
S'\xc5W|\xc5W|\r@'
p1708
tp1709
Rp1710
aF1.8333333333333333
aF0.8541666666666666
asI185
(lp1711
g3
(g7
S'\x84:\xa8\x83:\xa8\x1f@'
p1712
tp1713
Rp1714
ag3
(g7
S'n\xdb\xb6m\xdb\xb6\r@'
p1715
tp1716
Rp1717
aF1.8541666666666667
aF0.875
asI186
(lp1718
g3
(g7
S'\x84:\xa8\x83:\xa8\x1f@'
p1719
tp1720
Rp1721
ag3
(g7
S'n\xdb\xb6m\xdb\xb6\r@'
p1722
tp1723
Rp1724
aF1.8333333333333333
aF0.8541666666666666
asI187
(lp1725
g3
(g7
S'\xb0\xf8\x8a\xaf\xf8\x8a\x1f@'
p1726
tp1727
Rp1728
ag3
(g7
S'\xc5W|\xc5W|\r@'
p1729
tp1730
Rp1731
aF1.8333333333333333
aF0.8541666666666666
asI188
(lp1732
g3
(g7
S'\x84:\xa8\x83:\xa8\x1f@'
p1733
tp1734
Rp1735
ag3
(g7
S'n\xdb\xb6m\xdb\xb6\r@'
p1736
tp1737
Rp1738
aF1.8541666666666667
aF0.875
asI189
(lp1739
g3
(g7
S'UUUUUU\x1f@'
p1740
tp1741
Rp1742
ag3
(g7
S'\xe48\x8e\xe38\x8e\r@'
p1743
tp1744
Rp1745
aF1.8333333333333333
aF0.8541666666666666
asI190
(lp1746
g3
(g7
S'X|\xc5W|\xc5\x1f@'
p1747
tp1748
Rp1749
ag3
(g7
S'\x16_\xf1\x15_\xf1\r@'
p1750
tp1751
Rp1752
aF1.8541666666666667
aF0.875
asI191
(lp1753
g3
(g7
S',\xbe\xe2+\xbe\xe2\x1f@'
p1754
tp1755
Rp1756
ag3
(g7
S'\xbe\xe2+\xbe\xe2+\x0e@'
p1757
tp1758
Rp1759
aF1.875
aF0.8958333333333334
assI9
(dp1760
I197
(lp1761
g3
(g7
S'X|\xc5W|\xc5\x1f@'
p1762
tp1763
Rp1764
ag3
(g7
S'\xa8\x83:\xa8\x83:\x08@'
p1765
tp1766
Rp1767
aF2.3076923076923075
aF0.9230769230769231
asI198
(lp1768
g3
(g7
S',\xbe\xe2+\xbe\xe2\x1f@'
p1769
tp1770
Rp1771
ag3
(g7
S'\xa8\x83:\xa8\x83:\x08@'
p1772
tp1773
Rp1774
aF2.3076923076923075
aF0.9230769230769231
asI199
(lp1775
g3
(g7
S'X|\xc5W|\xc5\x1f@'
p1776
tp1777
Rp1778
ag3
(g7
S'\xa8\x83:\xa8\x83:\x08@'
p1779
tp1780
Rp1781
aF2.3076923076923075
aF0.9230769230769231
asI200
(lp1782
g3
(g7
S'\x00\x00\x00\x00\x00\x00 @'
p1783
tp1784
Rp1785
ag3
(g7
S'\xa8\x83:\xa8\x83:\x08@'
p1786
tp1787
Rp1788
aF2.3333333333333335
aF0.9230769230769231
asI201
(lp1789
g3
(g7
S'9\x8e\xe38\x8e\xe3\x1f@'
p1790
tp1791
Rp1792
ag3
(g7
S'\xe48\x8e\xe38\x8e\x07@'
p1793
tp1794
Rp1795
aF2.3333333333333335
aF0.9230769230769231
asI202
(lp1796
g3
(g7
S'\x8a|\xd6\r\xa6\xc8\x1f@'
p1797
tp1798
Rp1799
ag3
(g7
S'\x15\xf9\xac\x1bL\x91\x07@'
p1800
tp1801
Rp1802
aF2.41025641025641
aF0.9487179487179487
asI203
(lp1803
g3
(g7
S'\x8a|\xd6\r\xa6\xc8\x1f@'
p1804
tp1805
Rp1806
ag3
(g7
S'\x15\xf9\xac\x1bL\x91\x07@'
p1807
tp1808
Rp1809
aF2.41025641025641
aF0.9487179487179487
asI204
(lp1810
g3
(g7
S'\xab\xaa\xaa\xaa\xaa* @'
p1811
tp1812
Rp1813
ag3
(g7
S'\xc7q\x1c\xc7q\x1c\t@'
p1814
tp1815
Rp1816
aF2.3076923076923075
aF0.9230769230769231
asI205
(lp1817
g3
(g7
S'E>\xeb\x06S\xe4\x1f@'
p1818
tp1819
Rp1820
ag3
(g7
S'\x8a|\xd6\r\xa6\xc8\x07@'
p1821
tp1822
Rp1823
aF2.4358974358974357
aF0.9743589743589743
asI206
(lp1824
g3
(g7
S'E>\xeb\x06S\xe4\x1f@'
p1825
tp1826
Rp1827
ag3
(g7
S'\x8a|\xd6\r\xa6\xc8\x07@'
p1828
tp1829
Rp1830
aF2.4358974358974357
aF0.9743589743589743
asI207
(lp1831
g3
(g7
S'\x8a|\xd6\r\xa6\xc8\x1f@'
p1832
tp1833
Rp1834
ag3
(g7
S'\x8a|\xd6\r\xa6\xc8\x07@'
p1835
tp1836
Rp1837
aF2.4358974358974357
aF0.9743589743589743
asI208
(lp1838
g3
(g7
S'\xd0\xba\xc1\x14\xf9\xac\x1f@'
p1839
tp1840
Rp1841
ag3
(g7
S'\x15\xf9\xac\x1bL\x91\x07@'
p1842
tp1843
Rp1844
aF2.4358974358974357
aF0.9743589743589743
asI209
(lp1845
g3
(g7
S'\xa2\xbc\x86\xf2\x1a\xca\x1f@'
p1846
tp1847
Rp1848
ag3
(g7
S'^Cy\r\xe55\x08@'
p1849
tp1850
Rp1851
aF2.4358974358974357
aF0.9743589743589743
asI210
(lp1852
g3
(g7
S'\xa2\xbc\x86\xf2\x1a\xca\x1f@'
p1853
tp1854
Rp1855
ag3
(g7
S'^Cy\r\xe55\x08@'
p1856
tp1857
Rp1858
aF2.4358974358974357
aF0.9743589743589743
asI211
(lp1859
g3
(g7
S'\x00\x00\x00\x00\x00\x00 @'
p1860
tp1861
Rp1862
ag3
(g7
S'\x8a|\xd6\r\xa6\xc8\x07@'
p1863
tp1864
Rp1865
aF2.4358974358974357
aF0.9743589743589743
asI212
(lp1866
g3
(g7
S'\xdd`\x8a|\xd6\r @'
p1867
tp1868
Rp1869
ag3
(g7
S'\x00\x00\x00\x00\x00\x00\x08@'
p1870
tp1871
Rp1872
aF2.4358974358974357
aF0.9743589743589743
asI213
(lp1873
g3
(g7
S'\x00\x00\x00\x00\x00\x00 @'
p1874
tp1875
Rp1876
ag3
(g7
S'\x8a|\xd6\r\xa6\xc8\x07@'
p1877
tp1878
Rp1879
aF2.4358974358974357
aF0.9743589743589743
asI214
(lp1880
g3
(g7
S'_\xf1\x15_\xf1\x15\x1f@'
p1881
tp1882
Rp1883
ag3
(g7
S'X|\xc5W|\xc5\x07@'
p1884
tp1885
Rp1886
aF2.3846153846153846
aF1.0
asI215
(lp1887
g3
(g7
S'_\xf1\x15_\xf1\x15\x1f@'
p1888
tp1889
Rp1890
ag3
(g7
S'X|\xc5W|\xc5\x07@'
p1891
tp1892
Rp1893
aF2.3846153846153846
aF1.0
asI216
(lp1894
g3
(g7
S'_\xf1\x15_\xf1\x15\x1f@'
p1895
tp1896
Rp1897
ag3
(g7
S'X|\xc5W|\xc5\x07@'
p1898
tp1899
Rp1900
aF2.3846153846153846
aF1.0
assI10
(dp1901
I224
(lp1902
g3
(g7
S'\xcak(\xaf\xa1\xbc\x1e@'
p1903
tp1904
Rp1905
ag3
(g7
S'\xf3\x1a\xcak(\xaf\x01@'
p1906
tp1907
Rp1908
aF3.129032258064516
aF0.967741935483871
asI225
(lp1909
g3
(g7
S'y\r\xe55\x94\xd7\x1e@'
p1910
tp1911
Rp1912
ag3
(g7
S'Q^Cy\r\xe5\x01@'
p1913
tp1914
Rp1915
aF3.129032258064516
aF0.967741935483871
asI226
(lp1916
g3
(g7
S'y\r\xe55\x94\xd7\x1e@'
p1917
tp1918
Rp1919
ag3
(g7
S'Q^Cy\r\xe5\x01@'
p1920
tp1921
Rp1922
aF3.161290322580645
aF1.0
asI227
(lp1923
g3
(g7
S'y\r\xe55\x94\xd7\x1e@'
p1924
tp1925
Rp1926
ag3
(g7
S'Q^Cy\r\xe5\x01@'
p1927
tp1928
Rp1929
aF3.161290322580645
aF1.0
asI228
(lp1930
g3
(g7
S'y\r\xe55\x94\xd7\x1e@'
p1931
tp1932
Rp1933
ag3
(g7
S'Q^Cy\r\xe5\x01@'
p1934
tp1935
Rp1936
aF3.161290322580645
aF1.0
asI229
(lp1937
g3
(g7
S'(\xaf\xa1\xbc\x86\xf2\x1e@'
p1938
tp1939
Rp1940
ag3
(g7
S'\xaf\xa1\xbc\x86\xf2\x1a\x02@'
p1941
tp1942
Rp1943
aF3.161290322580645
aF1.0
asI209
(lp1944
g3
(g7
S'\xa2\xbc\x86\xf2\x1a\xca\x1f@'
p1945
tp1946
Rp1947
ag3
(g7
S'(\xaf\xa1\xbc\x86\xf2\x02@'
p1948
tp1949
Rp1950
aF3.064516129032258
aF0.9032258064516129
asI210
(lp1951
g3
(g7
S'\xa2\xbc\x86\xf2\x1a\xca\x1f@'
p1952
tp1953
Rp1954
ag3
(g7
S'(\xaf\xa1\xbc\x86\xf2\x02@'
p1955
tp1956
Rp1957
aF3.064516129032258
aF0.9032258064516129
asI211
(lp1958
g3
(g7
S'\x00\x00\x00\x00\x00\x00 @'
p1959
tp1960
Rp1961
ag3
(g7
S'\x0e\xa6\xc8g\xdd`\x02@'
p1962
tp1963
Rp1964
aF3.064516129032258
aF0.9032258064516129
asI212
(lp1965
g3
(g7
S'\xdd`\x8a|\xd6\r @'
p1966
tp1967
Rp1968
ag3
(g7
S'\x0e\xa6\xc8g\xdd`\x02@'
p1969
tp1970
Rp1971
aF3.064516129032258
aF0.9032258064516129
asI213
(lp1972
g3
(g7
S'\x00\x00\x00\x00\x00\x00 @'
p1973
tp1974
Rp1975
ag3
(g7
S'\x0e\xa6\xc8g\xdd`\x02@'
p1976
tp1977
Rp1978
aF3.064516129032258
aF0.9032258064516129
asI214
(lp1979
g3
(g7
S'_\xf1\x15_\xf1\x15\x1f@'
p1980
tp1981
Rp1982
ag3
(g7
S'\x92$I\x92$I\x02@'
p1983
tp1984
Rp1985
aF3.0
aF0.9032258064516129
asI215
(lp1986
g3
(g7
S'_\xf1\x15_\xf1\x15\x1f@'
p1987
tp1988
Rp1989
ag3
(g7
S'\x92$I\x92$I\x02@'
p1990
tp1991
Rp1992
aF3.0
aF0.9032258064516129
asI216
(lp1993
g3
(g7
S'_\xf1\x15_\xf1\x15\x1f@'
p1994
tp1995
Rp1996
ag3
(g7
S'\x92$I\x92$I\x02@'
p1997
tp1998
Rp1999
aF3.0
aF0.9032258064516129
asI217
(lp2000
g3
(g7
S'\xa2\xbc\x86\xf2\x1a\xca\x1f@'
p2001
tp2002
Rp2003
ag3
(g7
S'(\xaf\xa1\xbc\x86\xf2\x02@'
p2004
tp2005
Rp2006
aF3.064516129032258
aF0.9032258064516129
asI218
(lp2007
g3
(g7
S'\xbb\xc1\x14\xf9\xac\x1b @'
p2008
tp2009
Rp2010
ag3
(g7
S'\x83)\xf2Y7\x98\x02@'
p2011
tp2012
Rp2013
aF3.096774193548387
aF0.9354838709677419
asI219
(lp2014
g3
(g7
S'\xdd`\x8a|\xd6\r @'
p2015
tp2016
Rp2017
ag3
(g7
S'\x83)\xf2Y7\x98\x02@'
p2018
tp2019
Rp2020
aF3.064516129032258
aF0.9032258064516129
asI220
(lp2021
g3
(g7
S'\x8b\xaf\xf8\x8a\xaf\xf8\x1e@'
p2022
tp2023
Rp2024
ag3
(g7
S';\xa8\x83:\xa8\x83\x02@'
p2025
tp2026
Rp2027
aF2.935483870967742
aF0.9032258064516129
asI221
(lp2028
g3
(g7
S'\xe3+\xbe\xe2+\xbe\x1e@'
p2029
tp2030
Rp2031
ag3
(g7
S'\xe3+\xbe\xe2+\xbe\x02@'
p2032
tp2033
Rp2034
aF3.032258064516129
aF0.9354838709677419
asI222
(lp2035
g3
(g7
S'\x1b\xcak(\xaf\xa1\x1e@'
p2036
tp2037
Rp2038
ag3
(g7
S'\x94\xd7P^Cy\x01@'
p2039
tp2040
Rp2041
aF3.096774193548387
aF0.9354838709677419
asI223
(lp2042
g3
(g7
S'\x83)\xf2Y7\x98\x1e@'
p2043
tp2044
Rp2045
ag3
(g7
S'7\x98"\x9fu\x83\x01@'
p2046
tp2047
Rp2048
aF3.129032258064516
aF0.967741935483871
assI11
(dp2049
I226
(lp2050
g3
(g7
S'y\r\xe55\x94\xd7\x1e@'
p2051
tp2052
Rp2053
ag3
(g7
S'Q^Cy\r\xe5\x05@'
p2054
tp2055
Rp2056
aF2.45
aF1.0
asI227
(lp2057
g3
(g7
S'y\r\xe55\x94\xd7\x1e@'
p2058
tp2059
Rp2060
ag3
(g7
S'Q^Cy\r\xe5\x05@'
p2061
tp2062
Rp2063
aF2.45
aF1.0
asI228
(lp2064
g3
(g7
S'y\r\xe55\x94\xd7\x1e@'
p2065
tp2066
Rp2067
ag3
(g7
S'Q^Cy\r\xe5\x05@'
p2068
tp2069
Rp2070
aF2.45
aF1.0
asI229
(lp2071
g3
(g7
S'(\xaf\xa1\xbc\x86\xf2\x1e@'
p2072
tp2073
Rp2074
ag3
(g7
S'Q^Cy\r\xe5\x05@'
p2075
tp2076
Rp2077
aF2.45
aF1.0
asI230
(lp2078
g3
(g7
S'(\xaf\xa1\xbc\x86\xf2\x1e@'
p2079
tp2080
Rp2081
ag3
(g7
S'Q^Cy\r\xe5\x05@'
p2082
tp2083
Rp2084
aF2.45
aF1.0
asI231
(lp2085
g3
(g7
S'\xab\xaa\xaa\xaa\xaa\xaa\x1e@'
p2086
tp2087
Rp2088
ag3
(g7
S'\xe6[\xbe\xe5[\xbe\x05@'
p2089
tp2090
Rp2091
aF2.45
aF1.0
asI232
(lp2092
g3
(g7
S'(\xaf\xa1\xbc\x86\xf2\x1e@'
p2093
tp2094
Rp2095
ag3
(g7
S'Q^Cy\r\xe5\x05@'
p2096
tp2097
Rp2098
aF2.45
aF1.0
asI233
(lp2099
g3
(g7
S'\xf3-\xdf\xf2-\xdf\x1e@'
p2100
tp2101
Rp2102
ag3
(g7
S"vb'vb'\x06@"
p2103
tp2104
Rp2105
aF2.45
aF1.0
asI234
(lp2106
g3
(g7
S'\xf3-\xdf\xf2-\xdf\x1e@'
p2107
tp2108
Rp2109
ag3
(g7
S"vb'vb'\x06@"
p2110
tp2111
Rp2112
aF2.45
aF1.0
asI235
(lp2113
g3
(g7
S'\xf3-\xdf\xf2-\xdf\x1e@'
p2114
tp2115
Rp2116
ag3
(g7
S"vb'vb'\x06@"
p2117
tp2118
Rp2119
aF2.45
aF1.0
asI236
(lp2120
g3
(g7
S'\xcd\xcc\xcc\xcc\xccL\x1e@'
p2121
tp2122
Rp2123
ag3
(g7
S'\x9a\x99\x99\x99\x99\x99\x05@'
p2124
tp2125
Rp2126
aF2.45
aF1.0
asI237
(lp2127
g3
(g7
S'O\xec\xc4N\xec\xc4\x1e@'
p2128
tp2129
Rp2130
ag3
(g7
S"vb'vb'\x06@"
p2131
tp2132
Rp2133
aF2.45
aF1.0
asI238
(lp2134
g3
(g7
S'\xe55\x94\xd7P^\x1f@'
p2135
tp2136
Rp2137
ag3
(g7
S'l(\xaf\xa1\xbc\x86\x06@'
p2138
tp2139
Rp2140
aF2.45
aF1.0
asI239
(lp2141
g3
(g7
S'\x94\xd7P^Cy\x1f@'
p2142
tp2143
Rp2144
ag3
(g7
S'\xcak(\xaf\xa1\xbc\x06@'
p2145
tp2146
Rp2147
aF2.45
aF1.0
asI240
(lp2148
g3
(g7
S'\x00\x00\x00\x00\x00\x80\x1e@'
p2149
tp2150
Rp2151
ag3
(g7
S'333333\x06@'
p2152
tp2153
Rp2154
aF2.45
aF1.0
asI241
(lp2155
g3
(g7
S'\x8a\x9d\xd8\x89\x9d\xd8\x1d@'
p2156
tp2157
Rp2158
ag3
(g7
S'UUUUUU\x05@'
p2159
tp2160
Rp2161
aF2.425
aF1.0
asI242
(lp2162
g3
(g7
S'\x00\x00\x00\x00\x00\x00\x1e@'
p2163
tp2164
Rp2165
ag3
(g7
S'333333\x05@'
p2166
tp2167
Rp2168
aF2.425
aF1.0
assI12
(dp2169
I240
(lp2170
g3
(g7
S'\x00\x00\x00\x00\x00\x80\x1e@'
p2171
tp2172
Rp2173
ag3
(g7
S'\xcd\xcc\xcc\xcc\xcc\xcc\xf6?'
p2174
tp2175
Rp2176
aF4.260869565217392
aF1.0
asI241
(lp2177
g3
(g7
S'\x8a\x9d\xd8\x89\x9d\xd8\x1d@'
p2178
tp2179
Rp2180
ag3
(g7
S"vb'vb'\xf6?"
p2181
tp2182
Rp2183
aF4.217391304347826
aF1.0
asI242
(lp2184
g3
(g7
S'\x00\x00\x00\x00\x00\x00\x1e@'
p2185
tp2186
Rp2187
ag3
(g7
S'ffffff\xf6?'
p2188
tp2189
Rp2190
aF4.217391304347826
aF1.0
asI243
(lp2191
g3
(g7
S'\xcd\xcc\xcc\xcc\xcc\xcc\x1c@'
p2192
tp2193
Rp2194
ag3
(g7
S'\x9a\x99\x99\x99\x99\x99\xf5?'
p2195
tp2196
Rp2197
aF4.217391304347826
aF1.0
asI236
(lp2198
g3
(g7
S'\xcd\xcc\xcc\xcc\xccL\x1e@'
p2199
tp2200
Rp2201
ag3
(g7
S'ffffff\xf6?'
p2202
tp2203
Rp2204
aF4.260869565217392
aF1.0
assI13
(dp2205
I240
(lp2206
g3
(g7
S'\x00\x00\x00\x00\x00\x80\x1e@'
p2207
tp2208
Rp2209
ag3
(g7
S'\x9a\x99\x99\x99\x99\x99\xd1?'
p2210
tp2211
Rp2212
aF32.666666666666664
aF1.0
asI243
(lp2213
g3
(g7
S'\xcd\xcc\xcc\xcc\xcc\xcc\x1c@'
p2214
tp2215
Rp2216
ag3
(g7
S'\xcd\xcc\xcc\xcc\xcc\xcc\xd4?'
p2217
tp2218
Rp2219
aF32.333333333333336
aF1.0
assI14
(dp2220
I240
(lp2221
g3
(g7
S'\x00\x00\x00\x00\x00\x80\x1e@'
p2222
tp2223
Rp2224
ag3
(g7
S'333333\x05@'
p2225
tp2226
Rp2227
aF3.161290322580645
aF1.0
asI243
(lp2228
g3
(g7
S'\xcd\xcc\xcc\xcc\xcc\xcc\x1c@'
p2229
tp2230
Rp2231
ag3
(g7
S'\x9a\x99\x99\x99\x99\x99\x05@'
p2232
tp2233
Rp2234
aF3.129032258064516
aF1.0
asI244
(lp2235
g3
(g7
S'\x00\x00\x00\x00\x00\x80\x1e@'
p2236
tp2237
Rp2238
ag3
(g7
S'333333\x05@'
p2239
tp2240
Rp2241
aF3.161290322580645
aF1.0
assI15
(dp2242
I240
(lp2243
g3
(g7
S'\x00\x00\x00\x00\x00\x80\x1e@'
p2244
tp2245
Rp2246
ag3
(g7
S'\x00\x00\x00\x00\x00\x00\x01@'
p2247
tp2248
Rp2249
aF3.6296296296296298
aF1.0
asI244
(lp2250
g3
(g7
S'\x00\x00\x00\x00\x00\x80\x1e@'
p2251
tp2252
Rp2253
ag3
(g7
S'\x00\x00\x00\x00\x00\x00\x01@'
p2254
tp2255
Rp2256
aF3.6296296296296298
aF1.0
assI16
(dp2257
I240
(lp2258
g3
(g7
S'\x00\x00\x00\x00\x00\x80\x1e@'
p2259
tp2260
Rp2261
ag3
(g7
S'\xcd\xcc\xcc\xcc\xcc\xcc\xf6?'
p2262
tp2263
Rp2264
aF4.666666666666667
aF0.9523809523809523
asI244
(lp2265
g3
(g7
S'\x00\x00\x00\x00\x00\x80\x1e@'
p2266
tp2267
Rp2268
ag3
(g7
S'\xcd\xcc\xcc\xcc\xcc\xcc\xf6?'
p2269
tp2270
Rp2271
aF4.666666666666667
aF0.9523809523809523
asI245
(lp2272
g3
(g7
S'\x00\x00\x00\x00\x00\x80\x1e@'
p2273
tp2274
Rp2275
ag3
(g7
S'\xcd\xcc\xcc\xcc\xcc\xcc\xf6?'
p2276
tp2277
Rp2278
aF4.666666666666667
aF0.9523809523809523
asI246
(lp2279
g3
(g7
S'%jW\xa2v%\x1e@'
p2280
tp2281
Rp2282
ag3
(g7
S'\x06\xe7cp>\x06\xf7?'
p2283
tp2284
Rp2285
aF4.666666666666667
aF0.9523809523809523
asI247
(lp2286
g3
(g7
S'ffffff\x1e@'
p2287
tp2288
Rp2289
ag3
(g7
S'ffffff\xf6?'
p2290
tp2291
Rp2292
aF4.666666666666667
aF0.9523809523809523
asI248
(lp2293
g3
(g7
S'ffffff\x1e@'
p2294
tp2295
Rp2296
ag3
(g7
S'ffffff\xf6?'
p2297
tp2298
Rp2299
aF4.666666666666667
aF0.9523809523809523
asI249
(lp2300
g3
(g7
S'\x9a\x99\x99\x99\x99\x99\x1d@'
p2301
tp2302
Rp2303
ag3
(g7
S'333333\xf5?'
p2304
tp2305
Rp2306
aF4.666666666666667
aF0.9523809523809523
asI250
(lp2307
g3
(g7
S'\xdb\x95\xa8]\x89\xda\x1d@'
p2308
tp2309
Rp2310
ag3
(g7
S'>\x06\xe7cp>\xf6?'
p2311
tp2312
Rp2313
aF4.666666666666667
aF1.0
asI251
(lp2314
g3
(g7
S'\xf418\x1f\x83\xf3\x1d@'
p2315
tp2316
Rp2317
ag3
(g7
S'\xa2v%jW\xa2\xf6?'
p2318
tp2319
Rp2320
aF4.666666666666667
aF1.0
asI252
(lp2321
g3
(g7
S'\xf418\x1f\x83\xf3\x1d@'
p2322
tp2323
Rp2324
ag3
(g7
S'\xa2v%jW\xa2\xf6?'
p2325
tp2326
Rp2327
aF4.666666666666667
aF1.0
asI253
(lp2328
g3
(g7
S'\xf418\x1f\x83\xf3\x1d@'
p2329
tp2330
Rp2331
ag3
(g7
S'\xa2v%jW\xa2\xf6?'
p2332
tp2333
Rp2334
aF4.666666666666667
aF1.0
assI17
(dp2335
I256
(lp2336
g3
(g7
S'\xf418\x1f\x83\xf3\x1d@'
p2337
tp2338
Rp2339
ag3
(g7
S'\x06\xe7cp>\x06\x0f@'
p2340
tp2341
Rp2342
aF2.227272727272727
aF0.9772727272727273
asI257
(lp2343
g3
(g7
S'\xf418\x1f\x83\xf3\x1d@'
p2344
tp2345
Rp2346
ag3
(g7
S'\x06\xe7cp>\x06\x0f@'
p2347
tp2348
Rp2349
aF2.227272727272727
aF0.9772727272727273
asI258
(lp2350
g3
(g7
S'\xdb\x95\xa8]\x89\xda\x1d@'
p2351
tp2352
Rp2353
ag3
(g7
S'\x06\xe7cp>\x06\x0f@'
p2354
tp2355
Rp2356
aF2.227272727272727
aF0.9772727272727273
asI259
(lp2357
g3
(g7
S'\xdb\x95\xa8]\x89\xda\x1d@'
p2358
tp2359
Rp2360
ag3
(g7
S'\x06\xe7cp>\x06\x0f@'
p2361
tp2362
Rp2363
aF2.227272727272727
aF0.9772727272727273
asI260
(lp2364
g3
(g7
S'UUUUUU\x1d@'
p2365
tp2366
Rp2367
ag3
(g7
S'\x9e\xe7y\x9e\xe7y\x0e@'
p2368
tp2369
Rp2370
aF2.25
aF1.0
asI261
(lp2371
g3
(g7
S'\x13\xb5+Q\xbb\x12\x1d@'
p2372
tp2373
Rp2374
ag3
(g7
S'>\x06\xe7cp>\x0e@'
p2375
tp2376
Rp2377
aF2.25
aF1.0
asI262
(lp2378
g3
(g7
S'\xe1|\x0c\xce\xc7\xe0\x1c@'
p2379
tp2380
Rp2381
ag3
(g7
S'E\xedJ\xd4\xaeD\r@'
p2382
tp2383
Rp2384
aF2.25
aF1.0
asI250
(lp2385
g3
(g7
S'\xdb\x95\xa8]\x89\xda\x1d@'
p2386
tp2387
Rp2388
ag3
(g7
S'\x06\xe7cp>\x06\x0f@'
p2389
tp2390
Rp2391
aF2.227272727272727
aF0.9772727272727273
asI251
(lp2392
g3
(g7
S'\xf418\x1f\x83\xf3\x1d@'
p2393
tp2394
Rp2395
ag3
(g7
S'\x06\xe7cp>\x06\x0f@'
p2396
tp2397
Rp2398
aF2.227272727272727
aF0.9772727272727273
asI252
(lp2399
g3
(g7
S'\xf418\x1f\x83\xf3\x1d@'
p2400
tp2401
Rp2402
ag3
(g7
S'\x06\xe7cp>\x06\x0f@'
p2403
tp2404
Rp2405
aF2.227272727272727
aF0.9772727272727273
asI253
(lp2406
g3
(g7
S'\xf418\x1f\x83\xf3\x1d@'
p2407
tp2408
Rp2409
ag3
(g7
S'\x06\xe7cp>\x06\x0f@'
p2410
tp2411
Rp2412
aF2.227272727272727
aF0.9772727272727273
asI254
(lp2413
g3
(g7
S'\x00\x00\x00\x00\x00\x00\x1e@'
p2414
tp2415
Rp2416
ag3
(g7
S'\xcf\xf3<\xcf\xf3<\x0f@'
p2417
tp2418
Rp2419
aF2.227272727272727
aF0.9772727272727273
asI255
(lp2420
g3
(g7
S'UUUUUU\x1d@'
p2421
tp2422
Rp2423
ag3
(g7
S'\x9e\xe7y\x9e\xe7y\x0e@'
p2424
tp2425
Rp2426
aF2.25
aF1.0
assI18
(dp2427
I259
(lp2428
g3
(g7
S'\xdb\x95\xa8]\x89\xda\x1d@'
p2429
tp2430
Rp2431
ag3
(g7
S'8\x1f\x83\xf318\xef?'
p2432
tp2433
Rp2434
aF5.157894736842105
aF0.9473684210526315
asI260
(lp2435
g3
(g7
S'UUUUUU\x1d@'
p2436
tp2437
Rp2438
ag3
(g7
S'\x9e\xe7y\x9e\xe7y\xee?'
p2439
tp2440
Rp2441
aF5.2105263157894735
aF0.9473684210526315
asI261
(lp2442
g3
(g7
S'\x13\xb5+Q\xbb\x12\x1d@'
p2443
tp2444
Rp2445
ag3
(g7
S'p>\x06\xe7cp\xee?'
p2446
tp2447
Rp2448
aF5.2105263157894735
aF0.9473684210526315
asI262
(lp2449
g3
(g7
S'\xe1|\x0c\xce\xc7\xe0\x1c@'
p2450
tp2451
Rp2452
ag3
(g7
S'p>\x06\xe7cp\xee?'
p2453
tp2454
Rp2455
aF5.2105263157894735
aF0.9473684210526315
asI263
(lp2456
g3
(g7
S'\x9a\x99\x99\x99\x99\x19\x1d@'
p2457
tp2458
Rp2459
ag3
(g7
S'\x00\x00\x00\x00\x00\x00\xf0?'
p2460
tp2461
Rp2462
aF5.157894736842105
aF1.0
asI264
(lp2463
g3
(g7
S'\x00\x00\x00\x00\x00\x00\x1d@'
p2464
tp2465
Rp2466
ag3
(g7
S'\x00\x00\x00\x00\x00\x00\xf0?'
p2467
tp2468
Rp2469
aF5.157894736842105
aF1.0
asI265
(lp2470
g3
(g7
S'5H\x834H\x83\x1c@'
p2471
tp2472
Rp2473
ag3
(g7
S'\x90\x06i\x90\x06i\xf0?'
p2474
tp2475
Rp2476
aF5.105263157894737
aF1.0
asI266
(lp2477
g3
(g7
S'\xd9\x89\x9d\xd8\x89\x9d\x1c@'
p2478
tp2479
Rp2480
ag3
(g7
S'!\r\xd2 \r\xd2\xf0?'
p2481
tp2482
Rp2483
aF5.105263157894737
aF1.0
asI267
(lp2484
g3
(g7
S'5H\x834H\x83\x1c@'
p2485
tp2486
Rp2487
ag3
(g7
S'!\r\xd2 \r\xd2\xf0?'
p2488
tp2489
Rp2490
aF5.105263157894737
aF1.0
assI19
(dp2491
I264
(lp2492
g3
(g7
S'\x00\x00\x00\x00\x00\x00\x1d@'
p2493
tp2494
Rp2495
ag3
(g7
S'\x00\x00\x00\x00\x00\x00\xf6?'
p2496
tp2497
Rp2498
aF5.157894736842105
aF1.0
asI265
(lp2499
g3
(g7
S'5H\x834H\x83\x1c@'
p2500
tp2501
Rp2502
ag3
(g7
S'UUUUUU\xf5?'
p2503
tp2504
Rp2505
aF5.105263157894737
aF1.0
asI266
(lp2506
g3
(g7
S'\xd9\x89\x9d\xd8\x89\x9d\x1c@'
p2507
tp2508
Rp2509
ag3
(g7
S'\xe6[\xbe\xe5[\xbe\xf5?'
p2510
tp2511
Rp2512
aF5.105263157894737
aF1.0
asI267
(lp2513
g3
(g7
S'5H\x834H\x83\x1c@'
p2514
tp2515
Rp2516
ag3
(g7
S'\xe6[\xbe\xe5[\xbe\xf5?'
p2517
tp2518
Rp2519
aF5.105263157894737
aF1.0
asI268
(lp2520
g3
(g7
S'\xcd\xcc\xcc\xcc\xcc\xcc\x1c@'
p2521
tp2522
Rp2523
ag3
(g7
S'ffffff\xf6?'
p2524
tp2525
Rp2526
aF5.105263157894737
aF1.0
asI269
(lp2527
g3
(g7
S'\x9a\x99\x99\x99\x99\x19\x1d@'
p2528
tp2529
Rp2530
ag3
(g7
S'\x00\x00\x00\x00\x00\x00\xf6?'
p2531
tp2532
Rp2533
aF5.157894736842105
aF1.0
asI270
(lp2534
g3
(g7
S'33333\xb3\x1c@'
p2535
tp2536
Rp2537
ag3
(g7
S'ffffff\xf6?'
p2538
tp2539
Rp2540
aF5.105263157894737
aF1.0
ass.