(dp0
I0
(lp1
I8
aI26
aI34
aI49
aI64
aI83
aI88
aI100
asI1
(lp2
I41
aI61
asI2
(lp3
I1
aI3
aI6
aI9
aI11
aI16
aI17
aI20
aI21
aI29
aI34
aI35
aI37
aI39
aI43
aI44
aI45
aI48
aI51
aI53
aI54
aI56
aI69
aI71
aI77
aI78
aI79
aI80
aI84
aI87
aI97
aI98
asI3
(lp4
I3
aI4
aI5
aI9
aI11
aI14
aI15
aI16
aI17
aI22
aI23
aI29
aI30
aI32
aI33
aI35
aI37
aI39
aI40
aI44
aI50
aI52
aI55
aI61
aI62
aI63
aI66
aI67
aI70
aI72
aI77
aI79
aI82
aI83
aI85
aI88
aI92
aI93
aI94
aI99
aI100
asI4
(lp5
I3
aI18
aI19
aI21
aI25
aI27
aI34
aI37
aI38
aI41
aI46
aI50
aI51
aI62
aI63
aI69
aI79
aI81
aI85
aI89
aI94
as.