(dp0
I133
cnumpy.core.multiarray
scalar
p1
(cnumpy
dtype
p2
(S'f8'
p3
I0
I1
tp4
Rp5
(I3
S'<'
p6
NNNI-1
I-1
I0
tp7
bS'\x81$\xf9z\xc8=\xe6?'
p8
tp9
Rp10
sI134
g1
(g5
S'\x81$\xf9z\xc8=\xe6?'
p11
tp12
Rp13
sI135
g1
(g5
S'\x81$\xf9z\xc8=\xe6?'
p14
tp15
Rp16
sI136
g1
(g5
S'\x81$\xf9z\xc8=\xe6?'
p17
tp18
Rp19
sI137
g1
(g5
S'\xfaA\xbb}@\xb5\xe6?'
p20
tp21
Rp22
sI138
g1
(g5
S'\xac\xf3\x9c\xa0;&\xe7?'
p23
tp24
Rp25
sI139
g1
(g5
S'^\xa5~\xc36\x97\xe7?'
p26
tp27
Rp28
sI140
g1
(g5
S'\x1b\xd1\x9e\xfcc\xbd\xe7?'
p29
tp30
Rp31
sI141
F0.7434528998540106
sI142
g1
(g5
S'\xcc\x82\x80\x1f_.\xe8?'
p32
tp33
Rp34
sI143
F0.7580364926381589
sI144
F0.7719240425440387
sI145
g1
(g5
S'1\x91\xf8\x01\x17\xaf\xe9?'
p35
tp36
Rp37
sI146
F0.8071963893442666
sI147
F0.8349497130952117
sI148
F0.8354112392492413
sI149
F0.8566813309888273
sI150
F0.8571428571428571
sI151
F0.8621135274521619
sI152
F0.8705288344833351
sI153
F0.8924014744526728
sI154
F0.9135574490555372
sI155
F0.9419993277747106
sI156
F0.9433432266972476
sI157
F0.9456924629982236
sI158
F0.9500317160799764
sI159
F0.9523809523809523
sI160
F0.966088510111241
sI161
F0.9738745311323387
sI162
F0.9843780346754177
sI163
F0.9884606006682591
sI164
F1.0
s.