(dp0
I11
(dp1
I0
(dp2
I8
F1.133096773219568
sI48
F0.0
sI52
F0.0
sI88
cnumpy.core.multiarray
scalar
p3
(cnumpy
dtype
p4
(S'f8'
p5
I0
I1
tp6
Rp7
(I3
S'<'
p8
NNNI-1
I-1
I0
tp9
bS'\x0bt\nv\xf5-\x04@'
p10
tp11
Rp12
sI57
F0.37730214266685147
sI27
F0.12921479602641256
sI60
g3
(g7
S'\xd4\xddr\x18\xd0I\xe0?'
p13
tp14
Rp15
sI63
F0.0
ssI1
(dp16
I32
F0.0
sI33
F0.0
sI34
F1.1845845887296176
sI16
g3
(g7
S'\xc9P6\xdc~\xa6\x05@'
p17
tp18
Rp19
sI71
g3
(g7
S'\xf3\xf66\xf3\xe0\x00\x04@'
p20
tp21
Rp22
sI88
g3
(g7
S'0\xa2~9\xe3\x89\xe2?'
p23
tp24
Rp25
ssI2
(dp26
I4
g3
(g7
S'\xcc\x9da^l{\r@'
p27
tp28
Rp29
sI54
g3
(g7
S'\xe5BgH7\xa0\x03@'
p30
tp31
Rp32
sI6
g3
(g7
S'\xbf\xa2\xd15\xeb\xe6\xf3?'
p33
tp34
Rp35
sI13
g3
(g7
S'\x84\xe77\x8e\x82\xcd\xd8?'
p36
tp37
Rp38
sI21
F2.061251035332099
sI86
F2.275047313108157
sI100
F1.65748760882831
sI26
g3
(g7
S'X\xe7\xfa\x85~\x9a\x05@'
p39
tp40
Rp41
sI94
F0.6405726265104019
ssI3
(dp42
I64
g3
(g7
S'\xc89z\xb8\xab\x8d\x04@'
p43
tp44
Rp45
sI51
F0.0
sI99
F0.43545637264272874
sI72
g3
(g7
S'n\x1fZ\x8f\xbd$\xfe?'
p46
tp47
Rp48
sI77
F1.4611474906605693
sI50
F2.889687318241595
sI83
g3
(g7
S'\xe9T\xaa-gO\xf2?'
p49
tp50
Rp51
sI23
F2.630610249746464
sI56
g3
(g7
S'Es\xa7\xc93\xef\xf3?'
p52
tp53
Rp54
sI60
F0.0
sI94
F0.0
ssI4
(dp55
I69
g3
(g7
S'\xd4\xc3\xd6\xe9\xad\xf3\xd7?'
p56
tp57
Rp58
sI41
F1.3344190672147627
sI76
F1.1138266431585797
sI16
g3
(g7
S'\xc7\x1a\xa9\xf5Yo\xe3?'
p59
tp60
Rp61
sI49
g3
(g7
S'T\x9cvCs\x85\xf0?'
p62
tp63
Rp64
sI53
F0.7956926509709147
sI54
F0.0
sI59
g3
(g7
S'X\xe7\xbc7iL\xc5?'
p65
tp66
Rp67
sI60
g3
(g7
S'C\xd1\xd0\xc6\xb8J\xf7?'
p68
tp69
Rp70
ssI5
(dp71
I26
F0.0
sI54
g3
(g7
S'S\xf5\x90\xb5\x07\xff\xfe?'
p72
tp73
Rp74
sI13
g3
(g7
S'\xc6\x84\xe5\xa3l\x1e\x11@'
p75
tp76
Rp77
sI6
g3
(g7
S'^hB\xe6As\xd0?'
p78
tp79
Rp80
sI21
F0.0
sssI12
(dp81
I0
(dp82
I8
F1.133096773219568
sI48
F0.0
sI52
F0.0
sI88
g12
sI57
F0.37730214266685147
sI27
F0.12921479602641256
sI60
g15
sI63
F0.0
ssI1
(dp83
I32
F0.0
sI33
F0.0
sI34
F1.1845845887296176
sI16
g19
sI71
g22
sI88
g25
ssI2
(dp84
I4
g29
sI54
g32
sI6
g35
sI13
g38
sI21
F2.061251035332099
sI86
F2.275047313108157
sI100
F1.65748760882831
sI26
g41
sI94
F0.6405726265104019
ssI3
(dp85
I64
g3
(g7
S'\xb0a\xe9\xf0\xf0D\xf3?'
p86
tp87
Rp88
sI51
F0.0
sI99
F1.5978687192948535
sI72
g3
(g7
S'\xe81\xde\xed\xcfY\xec?'
p89
tp90
Rp91
sI77
F2.2267001172562453
sI50
F1.9746554357512638
sI83
g3
(g7
S'\xce\xaa\x8c\x03\x02+\xf1?'
p92
tp93
Rp94
sI23
F2.776843502685263
sI56
g3
(g7
S'D\xde\xeb\xac\xe9o\t@'
p95
tp96
Rp97
sI60
F0.325546829115077
sI61
F0.7645279705183317
sI94
F2.058563970620304
ssI4
(dp98
I69
g58
sI41
F1.3344190672147627
sI76
F1.1138266431585797
sI16
g61
sI49
g64
sI53
F0.7956926509709147
sI54
F0.0
sI59
g67
sI60
g70
ssI5
(dp99
I26
F0.0
sI54
g74
sI13
g77
sI6
g80
sI21
F0.0
sssI13
(dp100
I0
(dp101
I8
F1.133096773219568
sI48
F0.0
sI52
F0.0
sI88
g12
sI57
F0.37730214266685147
sI27
F0.12921479602641256
sI60
g15
sI63
F0.0
ssI1
(dp102
I32
F0.0
sI33
F0.0
sI34
F1.1845845887296176
sI16
g19
sI71
g22
sI88
g25
ssI2
(dp103
I4
g29
sI54
g32
sI6
g35
sI13
g38
sI21
F2.061251035332099
sI86
F2.275047313108157
sI100
F1.65748760882831
sI26
g41
sI94
F0.6405726265104019
ssI3
(dp104
I64
g3
(g7
S'\xc7\xe7\x1a\x13_\x85\xf0?'
p105
tp106
Rp107
sI51
F0.3316185957949923
sI99
F1.5468490137939155
sI4
F0.5173509891440635
sI72
g3
(g7
S'\x94\xd1\x89\xc3\x01\xb1\x03@'
p108
tp109
Rp110
sI77
F2.699511265274729
sI50
F1.0381632005696997
sI83
F0.0
sI23
F3.629823032484327
sI56
g3
(g7
S'\x9e\x95\\;R7\x0b@'
p111
tp112
Rp113
sI60
F0.0
sI61
F1.3675543393750824
sI94
F2.9986266465923355
ssI4
(dp114
I69
g58
sI41
F1.3344190672147627
sI76
F1.1138266431585797
sI16
g61
sI49
g64
sI53
F0.7956926509709147
sI54
F0.0
sI59
g67
sI60
g70
ssI5
(dp115
I26
F0.0
sI54
g74
sI13
g77
sI6
g80
sI21
F0.0
sss.