(dp0
I0
(dp1
I0
(dp2
I71
cnumpy.core.multiarray
scalar
p3
(cnumpy
dtype
p4
(S'f8'
p5
I0
I1
tp6
Rp7
(I3
S'<'
p8
NNNI-1
I-1
I0
tp9
bS',\t\x91K\x16\xd6\xe8?'
p10
tp11
Rp12
sI48
g3
(g7
S'\x82\xaam\xe1\xdd\x80\xdc?'
p13
tp14
Rp15
sI52
g3
(g7
S'\x839J_w\x99\xe8?'
p16
tp17
Rp18
sI88
g3
(g7
S'\xa9J \xf8;4\xe1?'
p19
tp20
Rp21
sI27
g3
(g7
S'\xb0\x81d\xc2\xac\x96\xa1?'
p22
tp23
Rp24
sI60
g3
(g7
S'\xa7\x19\xa4\xb3.\xf2\xe7?'
p25
tp26
Rp27
sI63
g3
(g7
S'\xa0;\xa5N\x1e\xb4\x92?'
p28
tp29
Rp30
ssI1
(dp31
I16
g3
(g7
S'\xe4\x8bwZ\xf7\x96\xdc?'
p32
tp33
Rp34
sI32
g3
(g7
S'\x84d\xc8Uj\x17\xc1?'
p35
tp36
Rp37
sI71
g3
(g7
S'\xac\xc0^3=e\xce?'
p38
tp39
Rp40
sI88
g3
(g7
S'\xe4\x08\xbb\xd8|\x0f\xe9?'
p41
tp42
Rp43
sI33
g3
(g7
S'>\xb5\x85<\xce\xb8\xe5?'
p44
tp45
Rp46
ssI2
(dp47
I4
g3
(g7
S'\xbe\xa5v\t\xe70\xd3?'
p48
tp49
Rp50
sI86
g3
(g7
S'+\xd7)\xfbAz\xe8?'
p51
tp52
Rp53
sI6
g3
(g7
S'\xb4\xea[8\x03\xf8\xe1?'
p54
tp55
Rp56
sI13
g3
(g7
S'\xce\xa0\x03{q\xbb\xdc?'
p57
tp58
Rp59
sI21
g3
(g7
S'\xf8@\xdd\x8fw\xfd\xe0?'
p60
tp61
Rp62
sI54
g3
(g7
S'*E\xbf\xdf1[\xef?'
p63
tp64
Rp65
sI26
g3
(g7
S'@\xd2\x96K\xc9)\xed?'
p66
tp67
Rp68
sI29
g3
(g7
S'\x8b\xbb|b\xfd\xd6\xef?'
p69
tp70
Rp71
ssI3
(dp72
I64
g3
(g7
S'}\xff\xc2\xb6\x1bh\xec?'
p73
tp74
Rp75
sI72
g3
(g7
S'\xc89\x8c\x86=\xab\xe2?'
p76
tp77
Rp78
sI50
g3
(g7
S' v_Lc\x8a\xb1?'
p79
tp80
Rp81
sI83
g3
(g7
S'\xf8f+b\xba\x80\xeb?'
p82
tp83
Rp84
sI23
g3
(g7
S'\xf89\xb0\x95b\xdb\xe4?'
p85
tp86
Rp87
sI56
g3
(g7
S'\x17\x98\xef\xfe\x1a\xcb\xe7?'
p88
tp89
Rp90
sI60
g3
(g7
S'\xc0<T\xf3\xe68\xae?'
p91
tp92
Rp93
sI94
g3
(g7
S'TB\xe4o\xb4\x03\xd8?'
p94
tp95
Rp96
ssI4
(dp97
I69
g3
(g7
S"\xd8\xca'\x03\x17\xc9\xce?"
p98
tp99
Rp100
sI41
g3
(g7
S'\nT\x87X\x99\xa3\xd3?'
p101
tp102
Rp103
sI76
g3
(g7
S'aN\\\xe7\xe6^\xe7?'
p104
tp105
Rp106
sI16
g3
(g7
S'\xcc/<2\x1b\x81\xca?'
p107
tp108
Rp109
sI49
g3
(g7
S'\x08\xe8p3\x04d\xde?'
p110
tp111
Rp112
sI19
g3
(g7
S'{\xb7\x19\x7fj\\\xea?'
p113
tp114
Rp115
sI59
g3
(g7
S'\xa8\x17~\xd9q\xbf\xd1?'
p116
tp117
Rp118
sI60
g3
(g7
S'\x1a!\x0b=\xfb\xb5\xd8?'
p119
tp120
Rp121
sI62
g3
(g7
S'\xcax\x05\xb6@\xca\xea?'
p122
tp123
Rp124
sssI1
(dp125
I0
(dp126
I48
g15
sI52
g18
sI71
g12
sI88
g21
sI27
g24
sI60
g27
sI63
g30
ssI1
(dp127
I16
g34
sI32
g37
sI71
g40
sI88
g43
sI33
g46
ssI2
(dp128
I4
g50
sI86
g53
sI6
g56
sI13
g59
sI21
g62
sI54
g65
sI26
g68
sI29
g71
ssI3
(dp129
I64
g75
sI72
g78
sI50
g81
sI83
g84
sI23
g87
sI56
g90
sI60
g93
sI94
g96
ssI4
(dp130
I69
g3
(g7
S'o\xe1\xcc\xd1S\x10\xef?'
p131
tp132
Rp133
sI41
F0.0
sI76
F0.0
sI16
g3
(g7
S'=4\xc1W\x1b[\xea?'
p134
tp135
Rp136
sI49
g3
(g7
S'\x1c\xc0\x0c\xe0\x04\xd9\xe2?'
p137
tp138
Rp139
sI19
g3
(g7
S'x2V#\xecY\xfc?'
p140
tp141
Rp142
sI54
F0.92650298834483
sI59
g3
(g7
S'\xf4\x1f*\x99N!\xf1?'
p143
tp144
Rp145
sI60
g3
(g7
S'Bk6\x95\xca\xf5\xd1?'
p146
tp147
Rp148
sI62
g3
(g7
S'b\xb0\xc9\xce(\xd1\x01@'
p149
tp150
Rp151
sssI2
(dp152
I0
(dp153
I48
g15
sI52
g18
sI71
g12
sI88
g21
sI27
g24
sI60
g27
sI63
g30
ssI1
(dp154
I16
g34
sI32
g37
sI33
g46
sI88
g43
sI71
g40
ssI2
(dp155
I4
g50
sI54
g65
sI6
g56
sI13
g59
sI21
g62
sI86
g53
sI26
g68
sI29
g71
ssI3
(dp156
I64
g75
sI72
g78
sI50
g81
sI83
g84
sI23
g87
sI56
g90
sI60
g93
sI94
g96
ssI4
(dp157
I69
g133
sI41
F0.0
sI76
F0.0
sI16
g136
sI49
g139
sI19
g142
sI54
F0.92650298834483
sI59
g145
sI60
g148
sI62
g151
ssI5
(dp158
I4
g50
sI54
g65
sI6
g56
sI13
g59
sI21
g62
sI86
g53
sI26
g68
sI29
g71
sssI3
(dp159
I0
(dp160
I48
g15
sI52
g18
sI71
g12
sI88
g21
sI27
g24
sI60
g27
sI63
g30
ssI1
(dp161
I16
g34
sI32
g37
sI33
g46
sI88
g43
sI71
g40
ssI2
(dp162
I4
g50
sI54
g65
sI6
g56
sI13
g59
sI21
g62
sI86
g53
sI26
g68
sI29
g71
ssI3
(dp163
I64
g75
sI72
g78
sI50
g81
sI83
g84
sI23
g87
sI56
g90
sI60
g93
sI94
g96
ssI4
(dp164
I69
g3
(g7
S'\xe6a\xbcT-\x8c\xfb?'
p165
tp166
Rp167
sI41
F0.0
sI76
F0.0
sI16
g3
(g7
S'\x11\xf5\x87\xe5\x18\xc8\xf1?'
p168
tp169
Rp170
sI49
g3
(g7
S'U\x83\xb6n\x9b#\xea?'
p171
tp172
Rp173
sI19
g3
(g7
S'\x13\xe6\xfe-3\x05\xf9?'
p174
tp175
Rp176
sI54
F2.279365942253192
sI87
F0.5900472457011494
sI59
g3
(g7
S'\xed\xf6\xcd\x9dpY\r@'
p177
tp178
Rp179
sI60
g3
(g7
S'\xa6\x98\xfb\xeaK\x86\xb7?'
p180
tp181
Rp182
sI62
g3
(g7
S'\xab.\xcc\xe1}*\xfc?'
p183
tp184
Rp185
ssI5
(dp186
I4
g50
sI54
g65
sI6
g56
sI13
g59
sI21
g62
sI86
g53
sI26
g68
sI29
g71
sssI4
(dp187
I0
(dp188
I52
g3
(g7
S'\x84V\xe4?\x17u\xfc?'
p189
tp190
Rp191
sI71
g3
(g7
S'\xbc\ni\xc9U\xfd\xf3?'
p192
tp193
Rp194
sI88
F0.0
sI27
F0.0
sI60
g3
(g7
S'={\xf0\xed9\xb8\xef?'
p195
tp196
Rp197
sI63
g3
(g7
S'\xb1\xc3l)\xdbM\xe6?'
p198
tp199
Rp200
ssI1
(dp201
I16
g3
(g7
S'yZ}\x95?\xb3\xed?'
p202
tp203
Rp204
sI32
g3
(g7
S'h\xf6\xfd\xafd\xc8\xa7?'
p205
tp206
Rp207
sI88
g3
(g7
S'\x92\x84\x94\x01%L\xfa?'
p208
tp209
Rp210
sI71
g3
(g7
S'\n\x93\xf6\xb6F\xff\xe1?'
p211
tp212
Rp213
ssI2
(dp214
I4
F0.0
sI54
g3
(g7
S'k\xfaa\xb5\x84\x83\xfb?'
p215
tp216
Rp217
sI6
g3
(g7
S'\xac1\x0e\xd4\xe7\xce\x00@'
p218
tp219
Rp220
sI13
g3
(g7
S'\xacW`b\x8c\x04\xb4?'
p221
tp222
Rp223
sI21
F0.0
sI86
g3
(g7
S'\xca\xff3D\x85\x96\xf9?'
p224
tp225
Rp226
sI26
g3
(g7
S'\x1c\xe7N\xa1P\x85\xf9?'
p227
tp228
Rp229
sI29
g3
(g7
S'$\xe4\xc5=O\xa9\x01@'
p230
tp231
Rp232
ssI3
(dp233
I64
g3
(g7
S'\xfa\xcb{V\xa5\xdf\xf9?'
p234
tp235
Rp236
sI72
g3
(g7
S'\xa2fb\xeaE/\xd6?'
p237
tp238
Rp239
sI50
g3
(g7
S'^\xac\xf0\x8d%\xeb\xf4?'
p240
tp241
Rp242
sI83
g3
(g7
S'\x17\x85\xe04(\x82\xfe?'
p243
tp244
Rp245
sI23
g3
(g7
S'\x18\x9b\xdez\x91|\xc0?'
p246
tp247
Rp248
sI56
g3
(g7
S'\x94\x8d\xf6*{(\xea?'
p249
tp250
Rp251
sI60
F0.0
sI94
F0.0
ssI4
(dp252
I69
g3
(g7
S'\x16\x9a\xc2\xc6>\xb9\x04@'
p253
tp254
Rp255
sI41
F0.0
sI76
F0.0
sI16
g3
(g7
S'\x1a\xbf\x95?\xc0\x91\xff?'
p256
tp257
Rp258
sI49
g3
(g7
S'\xd3\xdfnA\xec\xcc\xf4?'
p259
tp260
Rp261
sI19
g3
(g7
S'\xc7\x9b\xef\xba[\xe1\xf0?'
p262
tp263
Rp264
sI54
F0.0
sI59
g3
(g7
S'L\xc6~\x81(\xe0\xfd?'
p265
tp266
Rp267
sI60
g3
(g7
S'\xe5\x17\xe5L\x16\xf1\xcf?'
p268
tp269
Rp270
sI62
g3
(g7
S'\x9ay#\x01\xf9J\x01@'
p271
tp272
Rp273
sssI5
(dp274
I0
(dp275
I48
F0.0
sI52
g3
(g7
S'(\x0c\xca\xbe\xc6\xdb\xcf?'
p276
tp277
Rp278
sI88
g3
(g7
S'(lY\xa4\x0e\xa2\xfa?'
p279
tp280
Rp281
sI27
F0.0
sI60
g3
(g7
S'"Y!h\xe3\x11\xd5?'
p282
tp283
Rp284
sI63
F0.0
ssI1
(dp285
I32
F0.0
sI97
F0.6995625378015328
sI16
g3
(g7
S'c\x19\xc5b\xe2\x85\xf2?'
p286
tp287
Rp288
sI33
F0.0
sI88
g3
(g7
S'\x88\x03jB1\x10\xd6?'
p289
tp290
Rp291
sI71
g3
(g7
S'\xda\xf3\x8d\xe2\x90\x1e\xf9?'
p292
tp293
Rp294
ssI2
(dp295
I4
g3
(g7
S'\xc0kc\x8f\x0e\xf6\xf4?'
p296
tp297
Rp298
sI54
g3
(g7
S'\xba\xccb\x11\xae\x0c\xfa?'
p299
tp300
Rp301
sI6
g3
(g7
S'\x17\xab\x9aU\xec\x00\xd4?'
p302
tp303
Rp304
sI13
g3
(g7
S'\x1a\xdc\xde\xaa\xd2\x18\xc5?'
p305
tp306
Rp307
sI21
F0.0
sI86
F0.0
sI100
F0.5349144945841356
sI26
g3
(g7
S'Xj\xb0-\x07~\xfd?'
p308
tp309
Rp310
sI29
g3
(g7
S'\xecQ%\xd5\x96\x05\xfe?'
p311
tp312
Rp313
ssI3
(dp314
I64
g3
(g7
S'\xfda\x8a\xe2*]\x01@'
p315
tp316
Rp317
sI72
g3
(g7
S'~\xf0\xc8Z\xa1\x01\x01@'
p318
tp319
Rp320
sI77
F0.9261511515485844
sI50
F0.0
sI83
g3
(g7
S'\xbe\x90\xe12\xfc\x83\xf6?'
p321
tp322
Rp323
sI23
g3
(g7
S'\x94Wl:\xc0\xe0\xed?'
p324
tp325
Rp326
sI56
g3
(g7
S'\xca\xab%\xe10\x05\xff?'
p327
tp328
Rp329
sI60
F0.0
sI94
F0.0
ssI4
(dp330
I69
g3
(g7
S'"oz\x19E\xc5\xd1?'
p331
tp332
Rp333
sI41
F0.6299864456180512
sI76
F0.0
sI16
g3
(g7
S'@+\xff\x8b<\x15\xc6?'
p334
tp335
Rp336
sI49
g3
(g7
S'\x8a\xdf\xb4P[\x15\xf1?'
p337
tp338
Rp339
sI54
F1.2043707130789048
sI59
g3
(g7
S'\x00A\x08\xe7d\x9e\xa9?'
p340
tp341
Rp342
sI60
g3
(g7
S'(\xd6a\t<\xaa\xdb?'
p343
tp344
Rp345
sI62
g3
(g7
S'j\xc1\x91\x15\n\xf5\xf8?'
p346
tp347
Rp348
ssI5
(dp349
I4
g3
(g7
S'\xd5<0UNo\xc3?'
p350
tp351
Rp352
sI54
g3
(g7
S'\xd8E\xb5I\xbd@\x04@'
p353
tp354
Rp355
sI6
g3
(g7
S'\xe1\xe9\x9b\xcd\xba\x04\xe3?'
p356
tp357
Rp358
sI13
g3
(g7
S'T\x1d\x8e\xdf&\x9d\x07@'
p359
tp360
Rp361
sI21
g3
(g7
S'\x9a+{\x11\x98H\xc1?'
p362
tp363
Rp364
sI26
F0.0
sI29
g3
(g7
S'`\xdc16\x8aR\x00@'
p365
tp366
Rp367
sssI6
(dp368
I0
(dp369
I48
F0.0
sI52
g278
sI88
g281
sI27
F0.0
sI60
g284
sI63
F0.0
ssI1
(dp370
I32
F0.0
sI97
F0.6995625378015328
sI16
g288
sI33
F0.0
sI88
g291
sI71
g294
ssI2
(dp371
I4
g3
(g7
S'i-\x05\xae\xe2\x92\xef?'
p372
tp373
Rp374
sI86
F0.0
sI6
g3
(g7
S'\x99\xe5\x95\xb9\x98R\xf4?'
p375
tp376
Rp377
sI13
F0.0
sI21
F0.0
sI54
g3
(g7
S'\x186\x81\xa1\xfd\xb9\xf8?'
p378
tp379
Rp380
sI100
F0.8481619602306745
sI26
g3
(g7
S'\xa7)`\xdd\x0e\xaf\xfa?'
p381
tp382
Rp383
sI29
g3
(g7
S'=w\xad\xf3\x9d\x8e\xf4?'
p384
tp385
Rp386
ssI3
(dp387
I64
g317
sI72
g320
sI77
F0.9261511515485844
sI50
F0.0
sI83
g323
sI23
g326
sI56
g329
sI60
F0.0
sI94
F0.0
ssI4
(dp388
I69
g333
sI41
F0.6299864456180512
sI76
F0.0
sI16
g336
sI49
g339
sI54
F1.2043707130789048
sI59
g342
sI60
g345
sI62
g348
ssI5
(dp389
I4
g352
sI6
g358
sI54
g355
sI26
F0.0
sI29
g367
sI13
g361
sI21
g364
sssI7
(dp390
I0
(dp391
I48
F0.0
sI52
g278
sI88
g281
sI27
F0.0
sI60
g284
sI63
F0.0
ssI1
(dp392
I32
F0.0
sI97
F0.6995625378015328
sI16
g288
sI33
F0.0
sI88
g291
sI71
g294
ssI2
(dp393
I4
g374
sI54
g380
sI6
g377
sI13
F0.0
sI21
F0.0
sI86
F0.0
sI100
F0.8481619602306745
sI26
g383
sI29
g386
ssI3
(dp394
I64
g317
sI72
g320
sI77
F0.9261511515485844
sI50
F0.0
sI83
g323
sI23
g326
sI56
g329
sI60
F0.0
sI94
F0.0
ssI4
(dp395
I69
g333
sI41
F0.6299864456180512
sI76
F0.0
sI16
g336
sI49
g339
sI54
F1.2043707130789048
sI59
g342
sI60
g345
sI62
g348
ssI5
(dp396
I4
g352
sI54
g355
sI6
g358
sI26
F0.0
sI21
g364
sI29
g367
sI13
g361
ssI6
(dp397
I100
g3
(g7
S'\xfe8\xcfX\xc6}\xdf?'
p398
tp399
Rp400
sssI8
(dp401
I0
(dp402
I48
F0.0
sI8
F0.6309403687285551
sI52
F0.0
sI88
g3
(g7
S'\xce\xbdn\x89\x9e\xf3\x00@'
p403
tp404
Rp405
sI27
F0.0
sI60
g3
(g7
S'\tC\xa2 \xe5\xbd\xec?'
p406
tp407
Rp408
sI63
F0.0
ssI1
(dp409
I32
F1.3023944576804982
sI16
g3
(g7
S'\x8b\x17S\x9b\x1e\x01\x02@'
p410
tp411
Rp412
sI33
F0.4628485916597167
sI88
g3
(g7
S'\xca\x16Y\xf7\x157\xe6?'
p413
tp414
Rp415
sI71
g3
(g7
S'\xb0\x13\xa3\xc4\xb1\x96\x06@'
p416
tp417
Rp418
ssI2
(dp419
I4
g3
(g7
S'\xab\x9d\x00N5\x1b\n@'
p420
tp421
Rp422
sI54
g3
(g7
S'~q\xc8\xf7o\x15\xfc?'
p423
tp424
Rp425
sI6
g3
(g7
S'\x04\xd0\xa5\x02\xdc\x97\xe9?'
p426
tp427
Rp428
sI13
g3
(g7
S'\xe6*\x00\xdf!O\xf2?'
p429
tp430
Rp431
sI21
F1.1289692839302068
sI86
F0.0
sI100
F1.3562156004008583
sI26
g3
(g7
S'\xb1\x0f\x12\x98\xfeh\x05@'
p432
tp433
Rp434
ssI3
(dp435
I64
g3
(g7
S'\x9bC\x11?*`\x04@'
p436
tp437
Rp438
sI51
F0.25236084021518035
sI72
g3
(g7
S'm,\x99N,l\x08@'
p439
tp440
Rp441
sI77
F1.5462386376324755
sI50
F1.1340959553179863
sI83
g3
(g7
S'\xbaG\r,8\x01\xf2?'
p442
tp443
Rp444
sI23
F0.0
sI56
g3
(g7
S'\xee\xd3(\xfd\x92u\xfa?'
p445
tp446
Rp447
sI60
F0.0
sI94
F0.0
ssI4
(dp448
I69
g3
(g7
S'r\xde\xb7\xbei1\xf7?'
p449
tp450
Rp451
sI41
F0.3069325292192157
sI76
F0.0
sI16
g3
(g7
S'\xef\x91\x8b\x00\xfa\x80\xf3?'
p452
tp453
Rp454
sI49
g3
(g7
S'\x14x{x\xb6\xce\xf1?'
p455
tp456
Rp457
sI54
F0.19350424131699762
sI59
g3
(g7
S'4A\xbf\x0c\xdc\x1b\xe8?'
p458
tp459
Rp460
sI60
g3
(g7
S'([\x13\'\x0b"\xa6?'
p461
tp462
Rp463
ssI5
(dp464
I54
g3
(g7
S'\x1c\xc8\xac\xb0B.\xfc?'
p465
tp466
Rp467
sI6
g3
(g7
S'H\xf8\xe0\x17\xc4\xda\xed?'
p468
tp469
Rp470
sI26
F0.0
sI21
F0.0
sI13
g3
(g7
S'\xac?|\xa0s\xa3\t@'
p471
tp472
Rp473
sI29
g3
(g7
S'\x16I\xe6/\xd0\x19\n@'
p474
tp475
Rp476
sssI9
(dp477
I0
(dp478
I48
F0.0
sI88
g3
(g7
S')\xb5\x10\xf2\xae\x16\x0b@'
p479
tp480
Rp481
sI27
F0.0
sI52
g3
(g7
S'\xae\x94+@\x9b\xe2\xe1?'
p482
tp483
Rp484
sI63
F0.39680464587235964
ssI1
(dp485
I32
F0.4386791708060723
sI97
F0.7746282455314772
sI16
F0.0
sI33
F1.0683988487892424
sI88
F0.0
sI64
F0.710435127459952
sI71
g3
(g7
S'u\xc7\xcc\xb0UF\x05@'
p486
tp487
Rp488
ssI2
(dp489
I4
g3
(g7
S'X% \xa7,B\xca?'
p490
tp491
Rp492
sI86
F0.0
sI6
g3
(g7
S'\xb7\x8a\x81#f \x02@'
p493
tp494
Rp495
sI13
g3
(g7
S'\xcc\xfd\x9aNoU\xd4?'
p496
tp497
Rp498
sI21
F0.566920317146637
sI54
g3
(g7
S'l\xb9\x0cX\xab,\x02@'
p499
tp500
Rp501
sI100
F2.241408817760506
sI26
g3
(g7
S'\xe2\xbf\x87n\x1d|\xf9?'
p502
tp503
Rp504
sI29
g3
(g7
S'\x07\xfe\xaa0\xb1a\x07@'
p505
tp506
Rp507
ssI3
(dp508
I64
g3
(g7
S'\x80\x95n4\xcaO\x05@'
p509
tp510
Rp511
sI72
g3
(g7
S'\x7f\xc1\xed\xda"\xc1\xfd?'
p512
tp513
Rp514
sI77
F0.0
sI50
F0.0
sI83
g3
(g7
S'\x83\xa5U\xccs\xb7\x01@'
p515
tp516
Rp517
sI56
g3
(g7
S'\x06\xae\xc5\xf0C8\x01@'
p518
tp519
Rp520
sI60
F0.0
sI94
F0.8116408549283883
ssI4
(dp521
I69
F0.0
sI70
F0.06617331526405601
sI41
F2.1512017197692166
sI76
F0.00656285564513931
sI16
F0.0
sI49
g3
(g7
S'\x17\x9fL\xb3\x15\xae\xfc?'
p522
tp523
Rp524
sI54
F0.0
sI59
F0.0
sI60
F0.0
sI62
g3
(g7
S'H\x99\x13\xea\x03\xe5\xfd?'
p525
tp526
Rp527
ssI5
(dp528
I34
F0.9726658019910494
sI4
g3
(g7
S"ds'\x86\x9b\xc5\xb4?"
p529
tp530
Rp531
sI6
F0.0
sI54
g3
(g7
S'\x10\x1a-\xb79\xef\xc4?'
p532
tp533
Rp534
sI26
F0.0
sI13
g3
(g7
S'\xc6 \x17g\x17\xc3\x13@'
p535
tp536
Rp537
sI29
g3
(g7
S'{\xf5\xefvw\x86\x04@'
p538
tp539
Rp540
sI21
g3
(g7
S'\xc9.w>\xd7\r\xf3?'
p541
tp542
Rp543
sssI10
(dp544
I0
(dp545
I8
F1.133096773219568
sI48
F0.0
sI52
F0.0
sI88
g3
(g7
S'\x0bt\nv\xf5-\x04@'
p546
tp547
Rp548
sI57
F0.37730214266685147
sI27
F0.12921479602641256
sI60
g3
(g7
S'\xd4\xddr\x18\xd0I\xe0?'
p549
tp550
Rp551
sI63
F0.0
ssI1
(dp552
I32
F1.1014332624546883
sI33
F0.0
sI34
F0.47283218310597863
sI16
g3
(g7
S'\xc1B\n\xaf\x08]\x05@'
p553
tp554
Rp555
sI71
g3
(g7
S'Q\x17S\xf5y\xa2\xf3?'
p556
tp557
Rp558
sI88
g3
(g7
S'\x00\xd7\x81u\xd4w\xf4?'
p559
tp560
Rp561
ssI2
(dp562
I4
g3
(g7
S'\xcc\x9da^l{\r@'
p563
tp564
Rp565
sI54
g3
(g7
S'\xe5BgH7\xa0\x03@'
p566
tp567
Rp568
sI6
g3
(g7
S'\xbf\xa2\xd15\xeb\xe6\xf3?'
p569
tp570
Rp571
sI13
g3
(g7
S'\x84\xe77\x8e\x82\xcd\xd8?'
p572
tp573
Rp574
sI21
F2.061251035332099
sI86
F2.275047313108157
sI100
F1.65748760882831
sI26
g3
(g7
S'X\xe7\xfa\x85~\x9a\x05@'
p575
tp576
Rp577
sI94
F0.6405726265104019
ssI3
(dp578
I64
g3
(g7
S'\xc89z\xb8\xab\x8d\x04@'
p579
tp580
Rp581
sI51
F0.0
sI99
F0.43545637264272874
sI72
g3
(g7
S'n\x1fZ\x8f\xbd$\xfe?'
p582
tp583
Rp584
sI77
F1.4611474906605693
sI50
F2.889687318241595
sI83
g3
(g7
S'\xe9T\xaa-gO\xf2?'
p585
tp586
Rp587
sI23
F2.630610249746464
sI56
g3
(g7
S'Es\xa7\xc93\xef\xf3?'
p588
tp589
Rp590
sI60
F0.0
sI94
F0.0
ssI4
(dp591
I69
g3
(g7
S'\xd4\xc3\xd6\xe9\xad\xf3\xd7?'
p592
tp593
Rp594
sI41
F1.3344190672147627
sI76
F1.1138266431585797
sI16
g3
(g7
S'\xc7\x1a\xa9\xf5Yo\xe3?'
p595
tp596
Rp597
sI49
g3
(g7
S'T\x9cvCs\x85\xf0?'
p598
tp599
Rp600
sI53
F0.7956926509709147
sI54
F0.0
sI59
g3
(g7
S'X\xe7\xbc7iL\xc5?'
p601
tp602
Rp603
sI60
g3
(g7
S'C\xd1\xd0\xc6\xb8J\xf7?'
p604
tp605
Rp606
ssI5
(dp607
I54
g3
(g7
S'S\xf5\x90\xb5\x07\xff\xfe?'
p608
tp609
Rp610
sI6
g3
(g7
S'^hB\xe6As\xd0?'
p611
tp612
Rp613
sI26
F0.0
sI21
F0.0
sI13
g3
(g7
S'\xc6\x84\xe5\xa3l\x1e\x11@'
p614
tp615
Rp616
sssI11
(dp617
I0
(dp618
I8
F1.133096773219568
sI48
F0.0
sI52
F0.0
sI88
g548
sI57
F0.37730214266685147
sI27
F0.12921479602641256
sI60
g551
sI63
F0.0
ssI1
(dp619
I32
F0.0
sI33
F0.0
sI34
F1.1845845887296176
sI16
g3
(g7
S'\xc9P6\xdc~\xa6\x05@'
p620
tp621
Rp622
sI71
g3
(g7
S'\xf3\xf66\xf3\xe0\x00\x04@'
p623
tp624
Rp625
sI88
g3
(g7
S'0\xa2~9\xe3\x89\xe2?'
p626
tp627
Rp628
ssI2
(dp629
I4
g565
sI86
F2.275047313108157
sI6
g571
sI13
g574
sI21
F2.061251035332099
sI54
g568
sI100
F1.65748760882831
sI26
g577
sI94
F0.6405726265104019
ssI3
(dp630
I64
g581
sI83
g587
sI99
F0.43545637264272874
sI72
g584
sI77
F1.4611474906605693
sI50
F2.889687318241595
sI51
F0.0
sI23
F2.630610249746464
sI56
g590
sI60
F0.0
sI94
F0.0
ssI4
(dp631
I69
g594
sI41
F1.3344190672147627
sI76
F1.1138266431585797
sI16
g597
sI49
g600
sI53
F0.7956926509709147
sI54
F0.0
sI59
g603
sI60
g606
ssI5
(dp632
I26
F0.0
sI13
g616
sI6
g613
sI54
g610
sI21
F0.0
sss.