(dp0
I133
(dp1
I0
(dp2
I48
F2.421985933511881
sI88
cnumpy.core.multiarray
scalar
p3
(cnumpy
dtype
p4
(S'f8'
p5
I0
I1
tp6
Rp7
(I3
S'<'
p8
NNNI-1
I-1
I0
tp9
bS'\xfegYaR\x96\x13@'
p10
tp11
Rp12
sI27
F0.30625544846711183
sI52
F2.4646644632315446
sI8
F0.0
ssI1
(dp13
I16
g3
(g7
S'\xea\x8e\xbe\x8b\xc1\xea\n@'
p14
tp15
Rp16
sI88
g3
(g7
S'\x14]\x11\xbazB\xe9?'
p17
tp18
Rp19
sI34
F1.7550389644828606
sI79
F2.281584284390117
sI71
g3
(g7
S'4\x99w\x19\x01\x86\x03@'
p20
tp21
Rp22
ssI2
(dp23
I98
F1.73486937494691
sI100
F1.3144410481252287
sI6
g3
(g7
S'\xe0(CDg\x97\x0b@'
p24
tp25
Rp26
sI86
F2.4049169122145324
sI54
g3
(g7
S'\xe9\xf8\xd7\x1ehf\x06@'
p27
tp28
Rp29
sI13
F0.0
sI21
F3.718999164620141
ssI3
(dp30
I64
g3
(g7
S'\xb5\x8b\xcc\xcetz\x19@'
p31
tp32
Rp33
sI1
F1.3393675961915474
sI3
F2.4156926550936952
sI4
F1.1136780512090976
sI72
g3
(g7
S'\xe3\x9av\xec\xecX\xed?'
p34
tp35
Rp36
sI77
F0.6923329676858136
sI83
F4.0066504449831735
sI22
F0.9430498696215569
sI23
F2.112438582189419
sI94
F3.68494109934628
sI99
F1.430154903894096
sI46
F0.5345625221921789
sI50
F1.3368029644218062
sI51
F0.0
sI56
g3
(g7
S'6"qX\xee\xec\x1e@'
p37
tp38
Rp39
sI60
F2.482588643562048
sI61
F3.4015532498567955
ssI4
(dp40
I69
g3
(g7
S'\xd8WE)\x0f\xfa\x0c@'
p41
tp42
Rp43
sI41
F3.875726305885196
sI76
F2.3872252751752034
sI78
F1.3315125425707541
sI16
F0.0
sI20
F2.7826487009647902
sI53
F0.841181851069126
sI54
F5.768260651055332
sI87
F0.8452479146433655
sI59
g3
(g7
S'\xb4\xc7\x82\xa7\x9b\xde\x06@'
p44
tp45
Rp46
sI60
g3
(g7
S'\xcd\xb7\xedK$\xb8\x01@'
p47
tp48
Rp49
sI62
F0.3578915153405614
sI85
F1.366661601883055
ssI5
(dp50
I21
F0.027014767031658393
sI6
F0.0
ssI6
(dp51
I66
g3
(g7
S'\xb0\x1e\xd2\xe8U\xb5\xb9?'
p52
tp53
Rp54
sI67
g3
(g7
S'\x9c4\xc0\x8e9\xce\xdb?'
p55
tp56
Rp57
sI37
F4.704298184449185
ssI7
(dp58
I70
F0.6267180221897909
sI11
g3
(g7
S'\x1fr\xc9\x01)&\r@'
p59
tp60
Rp61
sI13
F0.3927034779260003
sI78
F1.7760594478412655
sI80
g3
(g7
S'Q\x9bI\x18l\x94\xe8?'
p62
tp63
Rp64
sI82
F2.7479932551091495
sI23
F3.084940303764312
sI24
g3
(g7
S'\xca;\xe23\xe7Q\n@'
p65
tp66
Rp67
sI58
F0.0
sI30
F1.8118917217146402
ssI8
(dp68
I100
F0.896446634439073
sI69
g3
(g7
S'0j\x16\x83\xe5\xea\xdb?'
p69
tp70
Rp71
sI42
F1.1241986718161543
sI76
F4.468470650431855
sI16
F0.0
sI49
g3
(g7
S'\xf4AgzR~\x12@'
p72
tp73
Rp74
sI53
F0.7180035174839108
sI54
F1.1027263417430957
sI87
F0.0
sI59
g3
(g7
S'\xae\x90]\x80\xae\x1f\x0c@'
p75
tp76
Rp77
sI60
g3
(g7
S'\x88\xff\xd7<"\x0c\x17@'
p78
tp79
Rp80
sI93
F1.092521461612309
ssI9
(dp81
I69
g3
(g7
S'\xeb8{\xa9g\xf5\x01@'
p82
tp83
Rp84
sI39
F0.0
sI41
F1.2517476414143662
sI43
F1.9793076278776904
sI76
F0.0
sI77
F2.956806773745635
sI16
F1.910084902651534
sI49
g3
(g7
S'\x03\x12~\x85\x99\x8a\x11@'
p85
tp86
Rp87
sI53
F0.3014183539565993
sI54
F0.5665587859768855
sI87
F0.0
sI59
g3
(g7
S't7\xbf\x88\x82G\x06@'
p88
tp89
Rp90
sI60
g3
(g7
S'\x967^\xda^[\xf3?'
p91
tp92
Rp93
ssI10
(dp94
I67
g3
(g7
S"\xda\x80\x0c'\xc6\xea\xfe?"
p95
tp96
Rp97
sI35
F1.0985204990051827
sI37
F2.799660951533424
ssI11
(dp98
I33
g3
(g7
S'\x80\x8f\x00\xc1\xf9\xf4\x08@'
p99
tp100
Rp101
sI84
g3
(g7
S'7.\x7f\xd2\x8fb\t@'
p102
tp103
Rp104
sI17
F1.955629204570383
sI49
F0.0
sI7
g3
(g7
S'"\xda\xbd\x92\xbc\xbe\x07@'
p105
tp106
Rp107
sI63
g3
(g7
S'\x82DG,\xa2\x0c\x01@'
p108
tp109
Rp110
ssI12
(dp111
I97
g3
(g7
S'\xe7^\xc0Q\xf2\x0f\xf8?'
p112
tp113
Rp114
sI34
F1.86208160312116
sI35
g3
(g7
S'JYP\xf3#\x19\x08@'
p115
tp116
Rp117
sI4
F3.0978187744027617
sI40
F0.336102203445634
sI9
F2.61777011925657
sI46
F0.0
sI16
g3
(g7
S'\xa2>\xb6(\xdd(\n@'
p118
tp119
Rp120
sI20
F0.0
sI87
F0.0
sI91
F0.252813902277522
sI60
g3
(g7
S'l\xa0\r*\xd4\xd9\xfe?'
p121
tp122
Rp123
ssI13
(dp124
I69
g3
(g7
S'\xe4h\x1ai\xef^\x00@'
p125
tp126
Rp127
sI41
F0.21924152694087362
sI76
F0.8246272474496428
sI45
F1.9942988876399383
sI16
F0.0
sI20
F0.8810406741153771
sI53
F2.0792191126056903
sI54
F4.5810885339916885
sI87
F0.1580057737527924
sI59
g3
(g7
S'\xb0\\\xf7+ &\t@'
p128
tp129
Rp130
sI60
g3
(g7
S'\xaa\\\xfa\xdb\x826\xee?'
p131
tp132
Rp133
ssI14
(dp134
I14
g3
(g7
S'\xeac<\xb8K\x92\xf0?'
p135
tp136
Rp137
ssI15
(dp138
I39
g3
(g7
S'\x997\x8c\x00\x85\xee\xf5?'
p139
tp140
Rp141
sI57
g3
(g7
S'\x86\xbe\xce\xd5\xa3\x10\x04@'
p142
tp143
Rp144
sI43
F0.0
sI44
g3
(g7
S'\xa3\xa2\x9b\x86\x9e\xc2\x03@'
p145
tp146
Rp147
sI29
g3
(g7
S'\x05\xa2\x98KM\xda\x08@'
p148
tp149
Rp150
sI61
F0.0
ssI16
(dp151
I64
F0.0
sI19
g3
(g7
S"/'\x07\xb93\x89\xd2?"
p152
tp153
Rp154
sI66
g3
(g7
S'\xfa\x0b\r\x8f\x02\xb4\xe7?'
p155
tp156
Rp157
sI51
g3
(g7
S'\xb6\xc2\x1f\xa61\xd6\x05@'
p158
tp159
Rp160
sI29
g3
(g7
S'|L\xa36SY\xc2?'
p161
tp162
Rp163
sI78
F0.0
ssI17
(dp164
I49
g3
(g7
S'\xc5{\x19^\n\xfc\xf9?'
p165
tp166
Rp167
sI55
F0.9400784086703038
sI5
g3
(g7
S'HP*\xb9*G\xf1?'
p168
tp169
Rp170
sI73
F0.0
sI23
g3
(g7
S'$*F6\x99\x0c\xf3?'
p171
tp172
Rp173
ssI18
(dp174
I16
g3
(g7
S'\xb6\xaf\x87\x14n\x83\xdb?'
p175
tp176
Rp177
sI97
g3
(g7
S'\xa6n^\x8e\x933\xd9?'
p178
tp179
Rp180
sI5
g3
(g7
S'\x88\x98\xc4c\xb7\xdb\xd7?'
p181
tp182
Rp183
sI23
g3
(g7
S'+?|G<\x82\xed?'
p184
tp185
Rp186
sI92
g3
(g7
S'a\x0e\x83\x8f=\xfd\xe4?'
p187
tp188
Rp189
sI46
g3
(g7
S'\x7f\x98\xec\xe0\xe0@\xe2?'
p190
tp191
Rp192
ssI19
(dp193
I16
g177
sI97
g180
sI5
g183
sI23
g186
sI92
g189
sI46
g192
ssI20
(dp194
I97
g114
sI34
F1.86208160312116
sI35
g117
sI4
F3.0978187744027617
sI40
F0.336102203445634
sI9
F2.61777011925657
sI46
F0.0
sI16
g120
sI20
F0.0
sI87
F0.0
sI91
F0.252813902277522
sI60
g123
ssI21
(dp195
I32
g3
(g7
S'6w\xb9j&\xc3\xf0?'
p196
tp197
Rp198
sI57
g3
(g7
S'l\xb0\xa6\x0b#\xa0\xec?'
p199
tp200
Rp201
sI30
F0.0
sI62
F0.8387283606760174
ssI22
(dp202
I97
g114
sI34
F1.86208160312116
sI35
g117
sI4
F3.0978187744027617
sI40
F0.336102203445634
sI9
F2.61777011925657
sI46
F0.0
sI16
g120
sI20
F0.0
sI87
F0.0
sI91
F0.252813902277522
sI60
g123
ssI23
(dp203
I66
g3
(g7
S'\x90^\xc0)\xaa>\xdd?'
p204
tp205
Rp206
sI37
F6.621286763506036
ssI24
(dp207
I64
g3
(g7
S'\x16k\xd2\x19A\xbe\x18@'
p208
tp209
Rp210
sI1
F1.9451068203647246
sI3
F3.3556321389802357
sI4
F1.6210383003136783
sI72
g3
(g7
S'\xf4Z\x87\x9f\xfe\xf8\xe4?'
p211
tp212
Rp213
sI77
F3.107626610213305
sI83
F3.768750785612947
sI23
F3.2068144743994917
sI94
F2.140102326126553
sI99
F2.2805455220442985
sI46
F0.0
sI50
F1.4074300445028674
sI51
F0.0
sI56
g3
(g7
S'X\xf8\xd4M\xe9\x18\x1c@'
p214
tp215
Rp216
sI60
F0.4443684042924567
sI61
F3.0581506412776447
ssI25
(dp217
I33
g3
(g7
S'|\xe1\x0c\xc0\xf6T\xd0?'
p218
tp219
Rp220
sI4
F0.0
sI10
g3
(g7
S'\xc8\x01\x97\x04\x18\xbc\xbb?'
p221
tp222
Rp223
sI76
g3
(g7
S' \xe6\x93\xf6k\x90\xee?'
p224
tp225
Rp226
sI14
g3
(g7
S'\xc6v\xc6\xcd\xe7\xdc\xfe?'
p227
tp228
Rp229
sI15
g3
(g7
S'\xa208\x98\xd0\x00\x05@'
p230
tp231
Rp232
sI16
g3
(g7
S'\xb6\xb5mJ\x89\xa6\xf7?'
p233
tp234
Rp235
sI68
g3
(g7
S'\xe4\x99\x84Ih\xda\xb6?'
p236
tp237
Rp238
sI42
F0.8185320233442134
ssI26
(dp239
I70
F0.6267180221897909
sI11
g61
sI13
F0.3927034779260003
sI78
F1.7760594478412655
sI80
g64
sI82
F2.7479932551091495
sI23
F3.084940303764312
sI24
g67
sI58
F0.0
sI30
F1.8118917217146402
sssI134
(dp240
I0
(dp241
I48
F2.421985933511881
sI88
g12
sI27
F0.30625544846711183
sI52
F2.4646644632315446
sI8
F0.0
ssI1
(dp242
I16
g16
sI88
g19
sI34
F1.7550389644828606
sI71
g22
sI79
F2.281584284390117
ssI2
(dp243
I98
F1.73486937494691
sI100
F1.3144410481252287
sI86
F2.4049169122145324
sI6
g26
sI54
g29
sI13
F0.0
sI21
F3.718999164620141
ssI3
(dp244
I64
g3
(g7
S'E1`\xf7\x1aG @'
p245
tp246
Rp247
sI1
F2.4206979670721855
sI3
F3.4507505283130597
sI4
F0.0
sI72
g3
(g7
S'[]\x90|`\xb6\xea?'
p248
tp249
Rp250
sI77
F0.851476632817072
sI83
F5.479191480474542
sI22
F1.0829973793345622
sI23
F3.1894633724951555
sI94
F5.120745507004392
sI99
F0.0
sI46
F0.0
sI50
F2.2702132064249367
sI51
F0.0
sI56
g3
(g7
S'*\xf7\x9et\xc2\xce\x1c@'
p251
tp252
Rp253
sI60
F1.6957389608404279
sI61
F3.9241439897769244
ssI4
(dp254
I69
g43
sI41
F3.875726305885196
sI76
F2.3872252751752034
sI78
F1.3315125425707541
sI16
F0.0
sI20
F2.7826487009647902
sI53
F0.841181851069126
sI54
F5.768260651055332
sI87
F0.8452479146433655
sI59
g46
sI60
g49
sI62
F0.3578915153405614
sI85
F1.366661601883055
ssI5
(dp255
I21
F0.027014767031658393
sI6
F0.0
ssI6
(dp256
I66
g54
sI67
g57
sI37
F4.704298184449185
ssI7
(dp257
I70
F0.6267180221897909
sI11
g61
sI13
F0.3927034779260003
sI78
F1.7760594478412655
sI80
g64
sI82
F2.7479932551091495
sI23
F3.084940303764312
sI24
g67
sI58
F0.0
sI30
F1.8118917217146402
ssI8
(dp258
I100
F0.896446634439073
sI69
g71
sI42
F1.1241986718161543
sI76
F4.468470650431855
sI16
F0.0
sI49
g74
sI53
F0.7180035174839108
sI54
F1.1027263417430957
sI87
F0.0
sI59
g77
sI60
g80
sI93
F1.092521461612309
ssI9
(dp259
I69
g84
sI39
F0.0
sI41
F1.2517476414143662
sI43
F1.9793076278776904
sI76
F0.0
sI77
F2.956806773745635
sI16
F1.910084902651534
sI49
g87
sI53
F0.3014183539565993
sI54
F0.5665587859768855
sI87
F0.0
sI59
g90
sI60
g93
ssI10
(dp260
I35
F1.0985204990051827
sI67
g97
sI37
F2.799660951533424
ssI11
(dp261
I33
g101
sI84
g104
sI49
F0.0
sI17
F1.955629204570383
sI7
g107
sI63
g110
ssI12
(dp262
I97
g114
sI34
F1.86208160312116
sI35
g117
sI4
F3.0978187744027617
sI40
F0.336102203445634
sI9
F2.61777011925657
sI46
F0.0
sI16
g120
sI20
F0.0
sI87
F0.0
sI91
F0.252813902277522
sI60
g123
ssI13
(dp263
I69
g127
sI41
F0.21924152694087362
sI76
F0.8246272474496428
sI45
F1.9942988876399383
sI16
F0.0
sI20
F0.8810406741153771
sI53
F2.0792191126056903
sI54
F4.5810885339916885
sI87
F0.1580057737527924
sI59
g130
sI60
g133
ssI14
(dp264
I14
g137
ssI15
(dp265
I39
g141
sI57
g144
sI43
F0.0
sI44
g147
sI29
g150
sI61
F0.0
ssI16
(dp266
I64
F0.0
sI51
g160
sI66
g157
sI19
g154
sI29
g163
sI78
F0.0
ssI17
(dp267
I49
g167
sI23
g173
sI5
g170
sI73
F0.0
sI55
F0.9400784086703038
ssI18
(dp268
I16
g177
sI97
g180
sI5
g183
sI23
g186
sI92
g189
sI46
g192
ssI19
(dp269
I16
g177
sI97
g180
sI5
g183
sI23
g186
sI92
g189
sI46
g192
ssI20
(dp270
I97
g114
sI34
F1.86208160312116
sI35
g117
sI4
F3.0978187744027617
sI40
F0.336102203445634
sI9
F2.61777011925657
sI46
F0.0
sI16
g120
sI20
F0.0
sI87
F0.0
sI91
F0.252813902277522
sI60
g123
ssI21
(dp271
I32
g198
sI57
g201
sI62
F0.8387283606760174
sI30
F0.0
ssI22
(dp272
I97
g114
sI34
F1.86208160312116
sI35
g117
sI4
F3.0978187744027617
sI40
F0.336102203445634
sI9
F2.61777011925657
sI46
F0.0
sI16
g120
sI20
F0.0
sI87
F0.0
sI91
F0.252813902277522
sI60
g123
ssI23
(dp273
I66
g206
sI37
F6.621286763506036
ssI24
(dp274
I64
g210
sI1
F1.9451068203647246
sI3
F3.3556321389802357
sI4
F1.6210383003136783
sI72
g213
sI77
F3.107626610213305
sI83
F3.768750785612947
sI23
F3.2068144743994917
sI94
F2.140102326126553
sI99
F2.2805455220442985
sI46
F0.0
sI50
F1.4074300445028674
sI51
F0.0
sI56
g216
sI60
F0.4443684042924567
sI61
F3.0581506412776447
ssI25
(dp275
I33
g220
sI4
F0.0
sI10
g223
sI76
g226
sI14
g229
sI15
g232
sI16
g235
sI68
g238
sI42
F0.8185320233442134
ssI26
(dp276
I70
F0.6267180221897909
sI11
g61
sI13
F0.3927034779260003
sI78
F1.7760594478412655
sI80
g64
sI82
F2.7479932551091495
sI23
F3.084940303764312
sI24
g67
sI58
F0.0
sI30
F1.8118917217146402
sssI135
(dp277
I0
(dp278
I48
F2.421985933511881
sI88
g12
sI27
F0.30625544846711183
sI52
F2.4646644632315446
sI8
F0.0
ssI1
(dp279
I16
g16
sI88
g19
sI34
F1.7550389644828606
sI79
F2.281584284390117
sI71
g22
ssI2
(dp280
I98
F1.73486937494691
sI100
F1.3144410481252287
sI6
g26
sI86
F2.4049169122145324
sI54
g29
sI13
F0.0
sI21
F3.718999164620141
ssI3
(dp281
I64
g33
sI1
F1.3393675961915474
sI3
F2.4156926550936952
sI4
F1.1136780512090976
sI72
g36
sI77
F0.6923329676858136
sI83
F4.0066504449831735
sI22
F0.9430498696215569
sI23
F2.112438582189419
sI94
F3.68494109934628
sI99
F1.430154903894096
sI46
F0.5345625221921789
sI50
F1.3368029644218062
sI51
F0.0
sI56
g39
sI60
F2.482588643562048
sI61
F3.4015532498567955
ssI4
(dp282
I69
g43
sI41
F3.875726305885196
sI76
F2.3872252751752034
sI78
F1.3315125425707541
sI16
F0.0
sI20
F2.7826487009647902
sI53
F0.841181851069126
sI54
F5.768260651055332
sI87
F0.8452479146433655
sI59
g46
sI60
g49
sI62
F0.3578915153405614
sI85
F1.366661601883055
ssI5
(dp283
I21
F0.027014767031658393
sI6
F0.0
ssI6
(dp284
I66
g54
sI67
g57
sI37
F4.704298184449185
ssI7
(dp285
I70
F0.6267180221897909
sI11
g61
sI13
F0.3927034779260003
sI78
F1.7760594478412655
sI80
g64
sI82
F2.7479932551091495
sI23
F3.084940303764312
sI24
g67
sI58
F0.0
sI30
F1.8118917217146402
ssI8
(dp286
I100
F0.896446634439073
sI69
g71
sI42
F1.1241986718161543
sI76
F4.468470650431855
sI16
F0.0
sI49
g74
sI53
F0.7180035174839108
sI54
F1.1027263417430957
sI87
F0.0
sI59
g77
sI60
g80
sI93
F1.092521461612309
ssI9
(dp287
I69
g84
sI39
F0.0
sI41
F1.2517476414143662
sI43
F1.9793076278776904
sI76
F0.0
sI77
F2.956806773745635
sI16
F1.910084902651534
sI49
g87
sI53
F0.3014183539565993
sI54
F0.5665587859768855
sI87
F0.0
sI59
g90
sI60
g93
ssI10
(dp288
I67
g97
sI35
F1.0985204990051827
sI37
F2.799660951533424
ssI11
(dp289
I33
g101
sI84
g104
sI17
F1.955629204570383
sI49
F0.0
sI7
g107
sI63
g110
ssI12
(dp290
I97
g114
sI34
F1.86208160312116
sI35
g117
sI4
F3.0978187744027617
sI40
F0.336102203445634
sI9
F2.61777011925657
sI46
F0.0
sI16
g120
sI20
F0.0
sI87
F0.0
sI91
F0.252813902277522
sI60
g123
ssI13
(dp291
I69
g127
sI41
F0.21924152694087362
sI76
F0.8246272474496428
sI45
F1.9942988876399383
sI16
F0.0
sI20
F0.8810406741153771
sI53
F2.0792191126056903
sI54
F4.5810885339916885
sI87
F0.1580057737527924
sI59
g130
sI60
g133
ssI14
(dp292
I14
g137
ssI15
(dp293
I39
g141
sI57
g144
sI43
F0.0
sI44
g147
sI29
g150
sI61
F0.0
ssI16
(dp294
I64
F0.0
sI19
g154
sI66
g157
sI51
g160
sI29
g163
sI78
F0.0
ssI17
(dp295
I49
g167
sI55
F0.9400784086703038
sI5
g170
sI73
F0.0
sI23
g173
ssI18
(dp296
I16
g177
sI97
g180
sI5
g183
sI23
g186
sI92
g189
sI46
g192
ssI19
(dp297
I16
g177
sI97
g180
sI5
g183
sI23
g186
sI92
g189
sI46
g192
ssI20
(dp298
I97
g114
sI34
F1.86208160312116
sI35
g117
sI4
F3.0978187744027617
sI40
F0.336102203445634
sI9
F2.61777011925657
sI46
F0.0
sI16
g120
sI20
F0.0
sI87
F0.0
sI91
F0.252813902277522
sI60
g123
ssI21
(dp299
I32
g198
sI57
g201
sI30
F0.0
sI62
F0.8387283606760174
ssI22
(dp300
I97
g114
sI34
F1.86208160312116
sI35
g117
sI4
F3.0978187744027617
sI40
F0.336102203445634
sI9
F2.61777011925657
sI46
F0.0
sI16
g120
sI20
F0.0
sI87
F0.0
sI91
F0.252813902277522
sI60
g123
ssI23
(dp301
I66
g206
sI37
F6.621286763506036
ssI24
(dp302
I64
g3
(g7
S'\x07\xf7f\xfdW\xc7\x16@'
p303
tp304
Rp305
sI1
F0.8479713497837853
sI3
F3.732110686950954
sI4
F2.015101791646054
sI72
g3
(g7
S'^Mb\x81(:\xf6?'
p306
tp307
Rp308
sI77
F1.8109139641902092
sI83
F3.1535290327497156
sI23
F4.389428807644693
sI94
F0.002024852253713405
sI99
F2.5504010143012255
sI46
F0.0
sI50
F0.6638403905582076
sI51
F0.0
sI55
F0.32321031020273006
sI56
g3
(g7
S'Z\x80|\xf7\xc8\xe0\x1d@'
p309
tp310
Rp311
sI60
F0.9381349819094091
sI61
F0.7473096286719465
ssI25
(dp312
I33
g220
sI4
F0.0
sI10
g223
sI76
g226
sI14
g229
sI15
g232
sI16
g235
sI68
g238
sI42
F0.8185320233442134
ssI26
(dp313
I70
F0.6267180221897909
sI11
g61
sI13
F0.3927034779260003
sI78
F1.7760594478412655
sI80
g64
sI82
F2.7479932551091495
sI23
F3.084940303764312
sI24
g67
sI58
F0.0
sI30
F1.8118917217146402
sssI136
(dp314
I0
(dp315
I48
F2.421985933511881
sI88
g12
sI27
F0.30625544846711183
sI52
F2.4646644632315446
sI8
F0.0
ssI1
(dp316
I16
g16
sI88
g19
sI34
F1.7550389644828606
sI71
g22
sI79
F2.281584284390117
ssI2
(dp317
I98
F1.73486937494691
sI100
F1.3144410481252287
sI86
F2.4049169122145324
sI6
g26
sI54
g29
sI13
F0.0
sI21
F3.718999164620141
ssI3
(dp318
I64
g247
sI1
F2.4206979670721855
sI3
F3.4507505283130597
sI4
F0.0
sI72
g250
sI77
F0.851476632817072
sI83
F5.479191480474542
sI22
F1.0829973793345622
sI23
F3.1894633724951555
sI94
F5.120745507004392
sI99
F0.0
sI46
F0.0
sI50
F2.2702132064249367
sI51
F0.0
sI56
g253
sI60
F1.6957389608404279
sI61
F3.9241439897769244
ssI4
(dp319
I69
g43
sI41
F3.875726305885196
sI76
F2.3872252751752034
sI78
F1.3315125425707541
sI16
F0.0
sI20
F2.7826487009647902
sI53
F0.841181851069126
sI54
F5.768260651055332
sI87
F0.8452479146433655
sI59
g46
sI60
g49
sI62
F0.3578915153405614
sI85
F1.366661601883055
ssI5
(dp320
I21
F0.027014767031658393
sI6
F0.0
ssI6
(dp321
I66
g54
sI67
g57
sI37
F4.704298184449185
ssI7
(dp322
I70
F0.6267180221897909
sI11
g61
sI13
F0.3927034779260003
sI78
F1.7760594478412655
sI80
g64
sI82
F2.7479932551091495
sI23
F3.084940303764312
sI24
g67
sI58
F0.0
sI30
F1.8118917217146402
ssI8
(dp323
I100
F0.896446634439073
sI69
g71
sI42
F1.1241986718161543
sI76
F4.468470650431855
sI16
F0.0
sI49
g74
sI53
F0.7180035174839108
sI54
F1.1027263417430957
sI87
F0.0
sI59
g77
sI60
g80
sI93
F1.092521461612309
ssI9
(dp324
I69
g84
sI39
F0.0
sI41
F1.2517476414143662
sI43
F1.9793076278776904
sI76
F0.0
sI77
F2.956806773745635
sI16
F1.910084902651534
sI49
g87
sI53
F0.3014183539565993
sI54
F0.5665587859768855
sI87
F0.0
sI59
g90
sI60
g93
ssI10
(dp325
I35
F1.0985204990051827
sI67
g97
sI37
F2.799660951533424
ssI11
(dp326
I33
g101
sI84
g104
sI49
F0.0
sI17
F1.955629204570383
sI7
g107
sI63
g110
ssI12
(dp327
I97
g114
sI34
F1.86208160312116
sI35
g117
sI4
F3.0978187744027617
sI40
F0.336102203445634
sI9
F2.61777011925657
sI46
F0.0
sI16
g120
sI20
F0.0
sI87
F0.0
sI91
F0.252813902277522
sI60
g123
ssI13
(dp328
I69
g127
sI41
F0.21924152694087362
sI76
F0.8246272474496428
sI45
F1.9942988876399383
sI16
F0.0
sI20
F0.8810406741153771
sI53
F2.0792191126056903
sI54
F4.5810885339916885
sI87
F0.1580057737527924
sI59
g130
sI60
g133
ssI14
(dp329
I14
g137
ssI15
(dp330
I39
g141
sI57
g144
sI43
F0.0
sI44
g147
sI29
g150
sI61
F0.0
ssI16
(dp331
I64
F0.0
sI51
g160
sI66
g157
sI19
g154
sI29
g163
sI78
F0.0
ssI17
(dp332
I49
F0.0
sI84
F0.6866868638961984
sI5
g3
(g7
S'V\xdf{\xc4#O\x04@'
p333
tp334
Rp335
sI23
g3
(g7
S'\xeb5\x13\x11q_\xfa?'
p336
tp337
Rp338
sI73
F0.0
sI55
F3.895812193674005
ssI18
(dp339
I16
g177
sI97
g180
sI5
g183
sI23
g186
sI92
g189
sI46
g192
ssI19
(dp340
I16
g177
sI97
g180
sI5
g183
sI23
g186
sI92
g189
sI46
g192
ssI20
(dp341
I97
g114
sI34
F1.86208160312116
sI35
g117
sI4
F3.0978187744027617
sI40
F0.336102203445634
sI9
F2.61777011925657
sI46
F0.0
sI16
g120
sI20
F0.0
sI87
F0.0
sI91
F0.252813902277522
sI60
g123
ssI21
(dp342
I32
g198
sI57
g201
sI62
F0.8387283606760174
sI30
F0.0
ssI22
(dp343
I97
g114
sI34
F1.86208160312116
sI35
g117
sI4
F3.0978187744027617
sI40
F0.336102203445634
sI9
F2.61777011925657
sI46
F0.0
sI16
g120
sI20
F0.0
sI87
F0.0
sI91
F0.252813902277522
sI60
g123
ssI23
(dp344
I66
g206
sI37
F6.621286763506036
ssI24
(dp345
I64
g210
sI1
F1.9451068203647246
sI3
F3.3556321389802357
sI4
F1.6210383003136783
sI72
g213
sI77
F3.107626610213305
sI83
F3.768750785612947
sI23
F3.2068144743994917
sI94
F2.140102326126553
sI99
F2.2805455220442985
sI46
F0.0
sI50
F1.4074300445028674
sI51
F0.0
sI56
g216
sI60
F0.4443684042924567
sI61
F3.0581506412776447
ssI25
(dp346
I33
g220
sI4
F0.0
sI10
g223
sI76
g226
sI14
g229
sI15
g232
sI16
g235
sI68
g238
sI42
F0.8185320233442134
ssI26
(dp347
I70
F0.6267180221897909
sI11
g61
sI13
F0.3927034779260003
sI78
F1.7760594478412655
sI80
g64
sI82
F2.7479932551091495
sI23
F3.084940303764312
sI24
g67
sI58
F0.0
sI30
F1.8118917217146402
sssI137
(dp348
I0
(dp349
I48
F2.421985933511881
sI88
g12
sI27
F0.30625544846711183
sI52
F2.4646644632315446
sI8
F0.0
ssI1
(dp350
I16
g16
sI88
g19
sI34
F1.7550389644828606
sI79
F2.281584284390117
sI71
g22
ssI2
(dp351
I98
F1.73486937494691
sI100
F1.3144410481252287
sI6
g26
sI86
F2.4049169122145324
sI54
g29
sI13
F0.0
sI21
F3.718999164620141
ssI3
(dp352
I64
g247
sI1
F2.4206979670721855
sI3
F3.4507505283130597
sI4
F0.0
sI72
g250
sI77
F0.851476632817072
sI83
F5.479191480474542
sI22
F1.0829973793345622
sI23
F3.1894633724951555
sI94
F5.120745507004392
sI99
F0.0
sI46
F0.0
sI50
F2.2702132064249367
sI51
F0.0
sI56
g253
sI60
F1.6957389608404279
sI61
F3.9241439897769244
ssI4
(dp353
I69
g43
sI41
F3.875726305885196
sI76
F2.3872252751752034
sI78
F1.3315125425707541
sI16
F0.0
sI20
F2.7826487009647902
sI53
F0.841181851069126
sI54
F5.768260651055332
sI87
F0.8452479146433655
sI59
g46
sI60
g49
sI62
F0.3578915153405614
sI85
F1.366661601883055
ssI5
(dp354
I21
F0.027014767031658393
sI6
F0.0
ssI6
(dp355
I66
g54
sI67
g57
sI37
F4.704298184449185
ssI7
(dp356
I70
F0.6267180221897909
sI11
g61
sI13
F0.3927034779260003
sI78
F1.7760594478412655
sI80
g64
sI82
F2.7479932551091495
sI23
F3.084940303764312
sI24
g67
sI58
F0.0
sI30
F1.8118917217146402
ssI8
(dp357
I100
F0.896446634439073
sI69
g71
sI42
F1.1241986718161543
sI76
F4.468470650431855
sI16
F0.0
sI49
g74
sI53
F0.7180035174839108
sI54
F1.1027263417430957
sI87
F0.0
sI59
g77
sI60
g80
sI93
F1.092521461612309
ssI9
(dp358
I69
g84
sI39
F0.0
sI41
F1.2517476414143662
sI43
F1.9793076278776904
sI76
F0.0
sI77
F2.956806773745635
sI16
F1.910084902651534
sI49
g87
sI53
F0.3014183539565993
sI54
F0.5665587859768855
sI87
F0.0
sI59
g90
sI60
g93
ssI10
(dp359
I67
g97
sI35
F1.0985204990051827
sI37
F2.799660951533424
ssI11
(dp360
I33
g101
sI84
g104
sI17
F1.955629204570383
sI49
F0.0
sI7
g107
sI63
g110
ssI12
(dp361
I97
g114
sI34
F1.86208160312116
sI35
g117
sI4
F3.0978187744027617
sI40
F0.336102203445634
sI9
F2.61777011925657
sI46
F0.0
sI16
g120
sI20
F0.0
sI87
F0.0
sI91
F0.252813902277522
sI60
g123
ssI13
(dp362
I69
g127
sI41
F0.21924152694087362
sI76
F0.8246272474496428
sI45
F1.9942988876399383
sI16
F0.0
sI20
F0.8810406741153771
sI53
F2.0792191126056903
sI54
F4.5810885339916885
sI87
F0.1580057737527924
sI59
g130
sI60
g133
ssI14
(dp363
I14
g137
ssI15
(dp364
I39
g141
sI57
g144
sI43
F0.0
sI44
g147
sI29
g150
sI61
F0.0
ssI16
(dp365
I64
F0.0
sI19
g154
sI66
g157
sI51
g160
sI29
g163
sI78
F0.0
ssI17
(dp366
I49
F0.0
sI84
F0.6866868638961984
sI5
g335
sI23
g338
sI73
F0.0
sI55
F3.895812193674005
ssI18
(dp367
I16
g177
sI97
g180
sI5
g183
sI23
g186
sI92
g189
sI46
g192
ssI19
(dp368
I16
g177
sI97
g180
sI5
g183
sI23
g186
sI92
g189
sI46
g192
ssI20
(dp369
I97
g114
sI34
F1.86208160312116
sI35
g117
sI4
F3.0978187744027617
sI40
F0.336102203445634
sI9
F2.61777011925657
sI46
F0.0
sI16
g120
sI20
F0.0
sI87
F0.0
sI91
F0.252813902277522
sI60
g123
ssI21
(dp370
I32
g198
sI57
g201
sI30
F0.0
sI62
F0.8387283606760174
ssI22
(dp371
I97
g114
sI34
F1.86208160312116
sI35
g117
sI4
F3.0978187744027617
sI40
F0.336102203445634
sI9
F2.61777011925657
sI46
F0.0
sI16
g120
sI20
F0.0
sI87
F0.0
sI91
F0.252813902277522
sI60
g123
ssI23
(dp372
I66
g206
sI37
F6.621286763506036
ssI24
(dp373
I64
g210
sI1
F1.9451068203647246
sI3
F3.3556321389802357
sI4
F1.6210383003136783
sI72
g213
sI77
F3.107626610213305
sI83
F3.768750785612947
sI23
F3.2068144743994917
sI94
F2.140102326126553
sI99
F2.2805455220442985
sI46
F0.0
sI50
F1.4074300445028674
sI51
F0.0
sI56
g216
sI60
F0.4443684042924567
sI61
F3.0581506412776447
ssI25
(dp374
I33
g220
sI4
F0.0
sI10
g223
sI76
g226
sI14
g229
sI15
g232
sI16
g235
sI68
g238
sI42
F0.8185320233442134
ssI26
(dp375
I70
F0.6267180221897909
sI11
g61
sI13
F0.3927034779260003
sI78
F1.7760594478412655
sI80
g64
sI82
F2.7479932551091495
sI23
F3.084940303764312
sI24
g67
sI58
F0.0
sI30
F1.8118917217146402
ssI27
(dp376
I48
F2.421985933511881
sI88
g12
sI27
F0.30625544846711183
sI52
F2.4646644632315446
sI8
F0.0
sssI138
(dp377
I0
(dp378
I48
F2.421985933511881
sI88
g12
sI27
F0.30625544846711183
sI52
F2.4646644632315446
sI8
F0.0
ssI1
(dp379
I16
g16
sI88
g19
sI34
F1.7550389644828606
sI71
g22
sI79
F2.281584284390117
ssI2
(dp380
I98
F1.73486937494691
sI100
F1.3144410481252287
sI86
F2.4049169122145324
sI6
g26
sI54
g29
sI13
F0.0
sI21
F3.718999164620141
ssI3
(dp381
I64
g247
sI1
F2.4206979670721855
sI3
F3.4507505283130597
sI4
F0.0
sI72
g250
sI77
F0.851476632817072
sI83
F5.479191480474542
sI22
F1.0829973793345622
sI23
F3.1894633724951555
sI94
F5.120745507004392
sI99
F0.0
sI46
F0.0
sI50
F2.2702132064249367
sI51
F0.0
sI56
g253
sI60
F1.6957389608404279
sI61
F3.9241439897769244
ssI4
(dp382
I69
g43
sI41
F3.875726305885196
sI76
F2.3872252751752034
sI78
F1.3315125425707541
sI16
F0.0
sI20
F2.7826487009647902
sI53
F0.841181851069126
sI54
F5.768260651055332
sI87
F0.8452479146433655
sI59
g46
sI60
g49
sI62
F0.3578915153405614
sI85
F1.366661601883055
ssI5
(dp383
I21
F0.027014767031658393
sI6
F0.0
ssI6
(dp384
I66
g54
sI67
g57
sI37
F4.704298184449185
ssI7
(dp385
I70
F0.6267180221897909
sI11
g61
sI13
F0.3927034779260003
sI78
F1.7760594478412655
sI80
g64
sI82
F2.7479932551091495
sI23
F3.084940303764312
sI24
g67
sI58
F0.0
sI30
F1.8118917217146402
ssI8
(dp386
I100
F0.896446634439073
sI69
g71
sI42
F1.1241986718161543
sI76
F4.468470650431855
sI16
F0.0
sI49
g74
sI53
F0.7180035174839108
sI54
F1.1027263417430957
sI87
F0.0
sI59
g77
sI60
g80
sI93
F1.092521461612309
ssI9
(dp387
I69
g84
sI39
F0.0
sI41
F1.2517476414143662
sI43
F1.9793076278776904
sI76
F0.0
sI77
F2.956806773745635
sI16
F1.910084902651534
sI49
g87
sI53
F0.3014183539565993
sI54
F0.5665587859768855
sI87
F0.0
sI59
g90
sI60
g93
ssI10
(dp388
I35
F1.0985204990051827
sI67
g97
sI37
F2.799660951533424
ssI11
(dp389
I33
g101
sI84
g104
sI49
F0.0
sI17
F1.955629204570383
sI7
g107
sI63
g110
ssI12
(dp390
I97
g114
sI34
F1.86208160312116
sI35
g117
sI4
F3.0978187744027617
sI40
F0.336102203445634
sI9
F2.61777011925657
sI46
F0.0
sI16
g120
sI20
F0.0
sI87
F0.0
sI91
F0.252813902277522
sI60
g123
ssI13
(dp391
I69
g127
sI41
F0.21924152694087362
sI76
F0.8246272474496428
sI45
F1.9942988876399383
sI16
F0.0
sI20
F0.8810406741153771
sI53
F2.0792191126056903
sI54
F4.5810885339916885
sI87
F0.1580057737527924
sI59
g130
sI60
g133
ssI14
(dp392
I14
g137
ssI15
(dp393
I39
g141
sI57
g144
sI43
F0.0
sI44
g147
sI29
g150
sI61
F0.0
ssI16
(dp394
I64
F0.0
sI51
g160
sI66
g157
sI19
g154
sI29
g163
sI78
F0.0
ssI17
(dp395
I49
F0.0
sI84
F0.6866868638961984
sI5
g335
sI23
g338
sI73
F0.0
sI55
F3.895812193674005
ssI18
(dp396
I16
g177
sI97
g180
sI5
g183
sI23
g186
sI92
g189
sI46
g192
ssI19
(dp397
I16
g177
sI97
g180
sI5
g183
sI23
g186
sI92
g189
sI46
g192
ssI20
(dp398
I97
g114
sI34
F1.86208160312116
sI35
g117
sI4
F3.0978187744027617
sI40
F0.336102203445634
sI9
F2.61777011925657
sI46
F0.0
sI16
g120
sI20
F0.0
sI87
F0.0
sI91
F0.252813902277522
sI60
g123
ssI21
(dp399
I32
g198
sI57
g201
sI62
F0.8387283606760174
sI30
F0.0
ssI22
(dp400
I97
g114
sI34
F1.86208160312116
sI35
g117
sI4
F3.0978187744027617
sI40
F0.336102203445634
sI9
F2.61777011925657
sI46
F0.0
sI16
g120
sI20
F0.0
sI87
F0.0
sI91
F0.252813902277522
sI60
g123
ssI23
(dp401
I66
g206
sI37
F6.621286763506036
ssI24
(dp402
I64
g210
sI1
F1.9451068203647246
sI3
F3.3556321389802357
sI4
F1.6210383003136783
sI72
g213
sI77
F3.107626610213305
sI83
F3.768750785612947
sI23
F3.2068144743994917
sI94
F2.140102326126553
sI99
F2.2805455220442985
sI46
F0.0
sI50
F1.4074300445028674
sI51
F0.0
sI56
g216
sI60
F0.4443684042924567
sI61
F3.0581506412776447
ssI25
(dp403
I33
g220
sI4
F0.0
sI10
g223
sI76
g226
sI14
g229
sI15
g232
sI16
g235
sI68
g238
sI42
F0.8185320233442134
ssI26
(dp404
I70
F0.6267180221897909
sI11
g61
sI13
F0.3927034779260003
sI78
F1.7760594478412655
sI80
g64
sI82
F2.7479932551091495
sI23
F3.084940303764312
sI24
g67
sI58
F0.0
sI30
F1.8118917217146402
ssI27
(dp405
I48
F2.421985933511881
sI88
g12
sI27
F0.30625544846711183
sI52
F2.4646644632315446
sI8
F0.0
ssI28
(dp406
I64
F0.0
sI51
g160
sI66
g157
sI19
g154
sI29
g163
sI78
F0.0
sssI139
(dp407
I0
(dp408
I48
F2.421985933511881
sI88
g12
sI27
F0.30625544846711183
sI52
F2.4646644632315446
sI8
F0.0
ssI1
(dp409
I16
g16
sI88
g19
sI34
F1.7550389644828606
sI79
F2.281584284390117
sI71
g22
ssI2
(dp410
I98
F1.73486937494691
sI100
F1.3144410481252287
sI6
g26
sI86
F2.4049169122145324
sI54
g29
sI13
F0.0
sI21
F3.718999164620141
ssI3
(dp411
I64
g247
sI1
F2.4206979670721855
sI3
F3.4507505283130597
sI4
F0.0
sI72
g250
sI77
F0.851476632817072
sI83
F5.479191480474542
sI22
F1.0829973793345622
sI23
F3.1894633724951555
sI94
F5.120745507004392
sI99
F0.0
sI46
F0.0
sI50
F2.2702132064249367
sI51
F0.0
sI56
g253
sI60
F1.6957389608404279
sI61
F3.9241439897769244
ssI4
(dp412
I69
g43
sI41
F3.875726305885196
sI76
F2.3872252751752034
sI78
F1.3315125425707541
sI16
F0.0
sI20
F2.7826487009647902
sI53
F0.841181851069126
sI54
F5.768260651055332
sI87
F0.8452479146433655
sI59
g46
sI60
g49
sI62
F0.3578915153405614
sI85
F1.366661601883055
ssI5
(dp413
I21
F0.027014767031658393
sI6
F0.0
ssI6
(dp414
I66
g54
sI67
g57
sI37
F4.704298184449185
ssI7
(dp415
I70
F0.6267180221897909
sI11
g61
sI13
F0.3927034779260003
sI78
F1.7760594478412655
sI80
g64
sI82
F2.7479932551091495
sI23
F3.084940303764312
sI24
g67
sI58
F0.0
sI30
F1.8118917217146402
ssI8
(dp416
I100
F0.896446634439073
sI69
g71
sI42
F1.1241986718161543
sI76
F4.468470650431855
sI16
F0.0
sI49
g74
sI53
F0.7180035174839108
sI54
F1.1027263417430957
sI87
F0.0
sI59
g77
sI60
g80
sI93
F1.092521461612309
ssI9
(dp417
I69
g84
sI39
F0.0
sI41
F1.2517476414143662
sI43
F1.9793076278776904
sI76
F0.0
sI77
F2.956806773745635
sI16
F1.910084902651534
sI49
g87
sI53
F0.3014183539565993
sI54
F0.5665587859768855
sI87
F0.0
sI59
g90
sI60
g93
ssI10
(dp418
I67
g97
sI35
F1.0985204990051827
sI37
F2.799660951533424
ssI11
(dp419
I33
g101
sI84
g104
sI17
F1.955629204570383
sI49
F0.0
sI7
g107
sI63
g110
ssI12
(dp420
I97
g114
sI34
F1.86208160312116
sI35
g117
sI4
F3.0978187744027617
sI40
F0.336102203445634
sI9
F2.61777011925657
sI46
F0.0
sI16
g120
sI20
F0.0
sI87
F0.0
sI91
F0.252813902277522
sI60
g123
ssI13
(dp421
I69
g127
sI41
F0.21924152694087362
sI76
F0.8246272474496428
sI45
F1.9942988876399383
sI16
F0.0
sI20
F0.8810406741153771
sI53
F2.0792191126056903
sI54
F4.5810885339916885
sI87
F0.1580057737527924
sI59
g130
sI60
g133
ssI14
(dp422
I14
g137
ssI15
(dp423
I39
g141
sI57
g144
sI43
F0.0
sI44
g147
sI29
g150
sI61
F0.0
ssI16
(dp424
I64
F0.0
sI19
g154
sI66
g157
sI51
g160
sI29
g163
sI78
F0.0
ssI17
(dp425
I49
F0.0
sI84
F0.6866868638961984
sI5
g335
sI23
g338
sI73
F0.0
sI55
F3.895812193674005
ssI18
(dp426
I16
g177
sI97
g180
sI5
g183
sI23
g186
sI92
g189
sI46
g192
ssI19
(dp427
I16
g177
sI97
g180
sI5
g183
sI23
g186
sI92
g189
sI46
g192
ssI20
(dp428
I97
g114
sI34
F1.86208160312116
sI35
g117
sI4
F3.0978187744027617
sI40
F0.336102203445634
sI9
F2.61777011925657
sI46
F0.0
sI16
g120
sI20
F0.0
sI87
F0.0
sI91
F0.252813902277522
sI60
g123
ssI21
(dp429
I32
g198
sI57
g201
sI30
F0.0
sI62
F0.8387283606760174
ssI22
(dp430
I97
g114
sI34
F1.86208160312116
sI35
g117
sI4
F3.0978187744027617
sI40
F0.336102203445634
sI9
F2.61777011925657
sI46
F0.0
sI16
g120
sI20
F0.0
sI87
F0.0
sI91
F0.252813902277522
sI60
g123
ssI23
(dp431
I66
g206
sI37
F6.621286763506036
ssI24
(dp432
I64
g210
sI1
F1.9451068203647246
sI3
F3.3556321389802357
sI4
F1.6210383003136783
sI72
g213
sI77
F3.107626610213305
sI83
F3.768750785612947
sI23
F3.2068144743994917
sI94
F2.140102326126553
sI99
F2.2805455220442985
sI46
F0.0
sI50
F1.4074300445028674
sI51
F0.0
sI56
g216
sI60
F0.4443684042924567
sI61
F3.0581506412776447
ssI25
(dp433
I33
g220
sI4
F0.0
sI10
g223
sI76
g226
sI14
g229
sI15
g232
sI16
g235
sI68
g238
sI42
F0.8185320233442134
ssI26
(dp434
I70
F0.6267180221897909
sI11
g61
sI13
F0.3927034779260003
sI78
F1.7760594478412655
sI80
g64
sI82
F2.7479932551091495
sI23
F3.084940303764312
sI24
g67
sI58
F0.0
sI30
F1.8118917217146402
ssI27
(dp435
I48
F2.421985933511881
sI88
g12
sI27
F0.30625544846711183
sI52
F2.4646644632315446
sI8
F0.0
ssI28
(dp436
I64
F0.0
sI19
g154
sI66
g157
sI51
g160
sI29
g163
sI78
F0.0
ssI29
(dp437
I64
F0.0
sI19
g154
sI66
g157
sI51
g160
sI29
g163
sI78
F0.0
sssI140
(dp438
I0
(dp439
I88
g3
(g7
S'P\x15\x8b\xcc\x83\xab\x15@'
p440
tp441
Rp442
sI27
F0.9407043371517302
sI52
F2.451514298731778
sI8
F0.2298037301969414
ssI1
(dp443
I16
g16
sI88
g19
sI34
F1.7550389644828606
sI71
g22
sI79
F2.281584284390117
ssI2
(dp444
I98
F1.73486937494691
sI100
F1.3144410481252287
sI86
F2.4049169122145324
sI6
g26
sI54
g29
sI13
F0.0
sI21
F3.718999164620141
ssI3
(dp445
I64
g247
sI1
F2.4206979670721855
sI3
F3.4507505283130597
sI4
F0.0
sI72
g250
sI77
F0.851476632817072
sI83
F5.479191480474542
sI22
F1.0829973793345622
sI23
F3.1894633724951555
sI94
F5.120745507004392
sI99
F0.0
sI46
F0.0
sI50
F2.2702132064249367
sI51
F0.0
sI56
g253
sI60
F1.6957389608404279
sI61
F3.9241439897769244
ssI4
(dp446
I69
g43
sI41
F3.875726305885196
sI76
F2.3872252751752034
sI78
F1.3315125425707541
sI16
F0.0
sI20
F2.7826487009647902
sI53
F0.841181851069126
sI54
F5.768260651055332
sI87
F0.8452479146433655
sI59
g46
sI60
g49
sI62
F0.3578915153405614
sI85
F1.366661601883055
ssI5
(dp447
I21
F0.027014767031658393
sI6
F0.0
ssI6
(dp448
I66
g54
sI67
g57
sI37
F4.704298184449185
ssI7
(dp449
I70
F0.6267180221897909
sI11
g61
sI13
F0.3927034779260003
sI78
F1.7760594478412655
sI80
g64
sI82
F2.7479932551091495
sI23
F3.084940303764312
sI24
g67
sI58
F0.0
sI30
F1.8118917217146402
ssI8
(dp450
I100
F0.896446634439073
sI69
g71
sI42
F1.1241986718161543
sI76
F4.468470650431855
sI16
F0.0
sI49
g74
sI53
F0.7180035174839108
sI54
F1.1027263417430957
sI87
F0.0
sI59
g77
sI60
g80
sI93
F1.092521461612309
ssI9
(dp451
I69
g84
sI39
F0.0
sI41
F1.2517476414143662
sI43
F1.9793076278776904
sI76
F0.0
sI77
F2.956806773745635
sI16
F1.910084902651534
sI49
g87
sI53
F0.3014183539565993
sI54
F0.5665587859768855
sI87
F0.0
sI59
g90
sI60
g93
ssI10
(dp452
I35
F1.0985204990051827
sI67
g97
sI37
F2.799660951533424
ssI11
(dp453
I33
g101
sI84
g104
sI49
F0.0
sI17
F1.955629204570383
sI7
g107
sI63
g110
ssI12
(dp454
I97
g114
sI34
F1.86208160312116
sI35
g117
sI4
F3.0978187744027617
sI40
F0.336102203445634
sI9
F2.61777011925657
sI46
F0.0
sI16
g120
sI20
F0.0
sI87
F0.0
sI91
F0.252813902277522
sI60
g123
ssI13
(dp455
I69
g127
sI41
F0.21924152694087362
sI76
F0.8246272474496428
sI45
F1.9942988876399383
sI16
F0.0
sI20
F0.8810406741153771
sI53
F2.0792191126056903
sI54
F4.5810885339916885
sI87
F0.1580057737527924
sI59
g130
sI60
g133
ssI14
(dp456
I14
g137
ssI15
(dp457
I39
g141
sI57
g144
sI43
F0.0
sI44
g147
sI29
g150
sI61
F0.0
ssI16
(dp458
I64
F0.0
sI51
g160
sI66
g157
sI19
g154
sI29
g163
sI78
F0.0
ssI17
(dp459
I49
F0.0
sI84
F0.6866868638961984
sI5
g335
sI23
g338
sI73
F0.0
sI55
F3.895812193674005
ssI18
(dp460
I16
g177
sI97
g180
sI5
g183
sI23
g186
sI92
g189
sI46
g192
ssI19
(dp461
I16
g177
sI97
g180
sI5
g183
sI23
g186
sI92
g189
sI46
g192
ssI20
(dp462
I97
g114
sI34
F1.86208160312116
sI35
g117
sI4
F3.0978187744027617
sI40
F0.336102203445634
sI9
F2.61777011925657
sI46
F0.0
sI16
g120
sI20
F0.0
sI87
F0.0
sI91
F0.252813902277522
sI60
g123
ssI21
(dp463
I32
g198
sI57
g201
sI62
F0.8387283606760174
sI30
F0.0
ssI22
(dp464
I97
g114
sI34
F1.86208160312116
sI35
g117
sI4
F3.0978187744027617
sI40
F0.336102203445634
sI9
F2.61777011925657
sI46
F0.0
sI16
g120
sI20
F0.0
sI87
F0.0
sI91
F0.252813902277522
sI60
g123
ssI23
(dp465
I66
g206
sI37
F6.621286763506036
ssI24
(dp466
I64
g210
sI1
F1.9451068203647246
sI3
F3.3556321389802357
sI4
F1.6210383003136783
sI72
g213
sI77
F3.107626610213305
sI83
F3.768750785612947
sI23
F3.2068144743994917
sI94
F2.140102326126553
sI99
F2.2805455220442985
sI46
F0.0
sI50
F1.4074300445028674
sI51
F0.0
sI56
g216
sI60
F0.4443684042924567
sI61
F3.0581506412776447
ssI25
(dp467
I33
g220
sI4
F0.0
sI10
g223
sI76
g226
sI14
g229
sI15
g232
sI16
g235
sI68
g238
sI42
F0.8185320233442134
ssI26
(dp468
I70
F0.6267180221897909
sI11
g61
sI13
F0.3927034779260003
sI78
F1.7760594478412655
sI80
g64
sI82
F2.7479932551091495
sI23
F3.084940303764312
sI24
g67
sI58
F0.0
sI30
F1.8118917217146402
ssI27
(dp469
I48
F2.421985933511881
sI88
g12
sI27
F0.30625544846711183
sI52
F2.4646644632315446
sI8
F0.0
ssI28
(dp470
I64
F0.0
sI51
g160
sI66
g157
sI19
g154
sI29
g163
sI78
F0.0
sssI141
(dp471
I0
(dp472
I48
F2.421985933511881
sI88
g12
sI27
F0.30625544846711183
sI52
F2.4646644632315446
sI8
F0.0
ssI1
(dp473
I16
g16
sI88
g19
sI34
F1.7550389644828606
sI71
g22
sI79
F2.281584284390117
ssI2
(dp474
I98
F1.73486937494691
sI100
F1.3144410481252287
sI86
F2.4049169122145324
sI6
g26
sI54
g29
sI13
F0.0
sI21
F3.718999164620141
ssI3
(dp475
I64
g247
sI1
F2.4206979670721855
sI3
F3.4507505283130597
sI4
F0.0
sI72
g250
sI77
F0.851476632817072
sI83
F5.479191480474542
sI22
F1.0829973793345622
sI23
F3.1894633724951555
sI94
F5.120745507004392
sI99
F0.0
sI46
F0.0
sI50
F2.2702132064249367
sI51
F0.0
sI56
g253
sI60
F1.6957389608404279
sI61
F3.9241439897769244
ssI4
(dp476
I69
g43
sI41
F3.875726305885196
sI76
F2.3872252751752034
sI78
F1.3315125425707541
sI16
F0.0
sI20
F2.7826487009647902
sI53
F0.841181851069126
sI54
F5.768260651055332
sI87
F0.8452479146433655
sI59
g46
sI60
g49
sI62
F0.3578915153405614
sI85
F1.366661601883055
ssI5
(dp477
I21
F0.027014767031658393
sI6
F0.0
ssI6
(dp478
I66
g54
sI67
g57
sI37
F4.704298184449185
ssI7
(dp479
I70
F0.6267180221897909
sI11
g61
sI13
F0.3927034779260003
sI78
F1.7760594478412655
sI80
g64
sI82
F2.7479932551091495
sI23
F3.084940303764312
sI24
g67
sI58
F0.0
sI30
F1.8118917217146402
ssI8
(dp480
I100
F0.896446634439073
sI69
g71
sI42
F1.1241986718161543
sI76
F4.468470650431855
sI16
F0.0
sI49
g74
sI53
F0.7180035174839108
sI54
F1.1027263417430957
sI87
F0.0
sI59
g77
sI60
g80
sI93
F1.092521461612309
ssI9
(dp481
I69
g84
sI39
F0.0
sI41
F1.2517476414143662
sI43
F1.9793076278776904
sI76
F0.0
sI77
F2.956806773745635
sI16
F1.910084902651534
sI49
g87
sI53
F0.3014183539565993
sI54
F0.5665587859768855
sI87
F0.0
sI59
g90
sI60
g93
ssI10
(dp482
I35
F1.0985204990051827
sI67
g97
sI37
F2.799660951533424
ssI11
(dp483
I33
g101
sI84
g104
sI49
F0.0
sI17
F1.955629204570383
sI7
g107
sI63
g110
ssI12
(dp484
I97
g114
sI34
F1.86208160312116
sI35
g117
sI4
F3.0978187744027617
sI40
F0.336102203445634
sI9
F2.61777011925657
sI46
F0.0
sI16
g120
sI20
F0.0
sI87
F0.0
sI91
F0.252813902277522
sI60
g123
ssI13
(dp485
I69
g127
sI41
F0.21924152694087362
sI76
F0.8246272474496428
sI45
F1.9942988876399383
sI16
F0.0
sI20
F0.8810406741153771
sI53
F2.0792191126056903
sI54
F4.5810885339916885
sI87
F0.1580057737527924
sI59
g130
sI60
g133
ssI14
(dp486
I14
g137
ssI15
(dp487
I39
g141
sI57
g144
sI43
F0.0
sI44
g147
sI29
g150
sI61
F0.0
ssI16
(dp488
I64
F0.0
sI51
g3
(g7
S'\xb3\x8e\x83\x96,g\xfd?'
p489
tp490
Rp491
sI66
F0.0
sI19
g3
(g7
S'\xe7\xe88\x8f\xfe\xcd\xf3?'
p492
tp493
Rp494
sI29
g3
(g7
S'-\xc6\xd7\xb4\x14\xc3\xe6?'
p495
tp496
Rp497
sI78
F0.0
ssI17
(dp498
I49
F0.0
sI84
F0.6866868638961984
sI5
g335
sI23
g338
sI73
F0.0
sI55
F3.895812193674005
ssI18
(dp499
I16
g177
sI97
g180
sI5
g183
sI23
g186
sI92
g189
sI46
g192
ssI19
(dp500
I16
g177
sI97
g180
sI5
g183
sI23
g186
sI92
g189
sI46
g192
ssI20
(dp501
I97
g114
sI34
F1.86208160312116
sI35
g117
sI4
F3.0978187744027617
sI40
F0.336102203445634
sI9
F2.61777011925657
sI46
F0.0
sI16
g120
sI20
F0.0
sI87
F0.0
sI91
F0.252813902277522
sI60
g123
ssI21
(dp502
I32
g198
sI57
g201
sI62
F0.8387283606760174
sI30
F0.0
ssI22
(dp503
I97
g114
sI34
F1.86208160312116
sI35
g117
sI4
F3.0978187744027617
sI40
F0.336102203445634
sI9
F2.61777011925657
sI46
F0.0
sI16
g120
sI20
F0.0
sI87
F0.0
sI91
F0.252813902277522
sI60
g123
ssI23
(dp504
I66
g206
sI37
F6.621286763506036
ssI24
(dp505
I64
g210
sI1
F1.9451068203647246
sI3
F3.3556321389802357
sI4
F1.6210383003136783
sI72
g213
sI77
F3.107626610213305
sI83
F3.768750785612947
sI23
F3.2068144743994917
sI94
F2.140102326126553
sI99
F2.2805455220442985
sI46
F0.0
sI50
F1.4074300445028674
sI51
F0.0
sI56
g216
sI60
F0.4443684042924567
sI61
F3.0581506412776447
ssI25
(dp506
I33
g220
sI4
F0.0
sI10
g223
sI76
g226
sI14
g229
sI15
g232
sI16
g235
sI68
g238
sI42
F0.8185320233442134
ssI26
(dp507
I70
F0.6267180221897909
sI11
g61
sI13
F0.3927034779260003
sI78
F1.7760594478412655
sI80
g64
sI82
F2.7479932551091495
sI23
F3.084940303764312
sI24
g67
sI58
F0.0
sI30
F1.8118917217146402
ssI27
(dp508
I48
F2.421985933511881
sI88
g12
sI27
F0.30625544846711183
sI52
F2.4646644632315446
sI8
F0.0
ssI28
(dp509
I64
F0.0
sI51
g160
sI66
g157
sI19
g154
sI29
g163
sI78
F0.0
ssI29
(dp510
I64
F0.0
sI51
g160
sI66
g157
sI19
g154
sI29
g163
sI78
F0.0
sssI142
(dp511
I0
(dp512
I48
F1.9935955457845806
sI88
g3
(g7
S'JKe\x96\xd0Z\x16@'
p513
tp514
Rp515
sI27
F1.3879055276624317
sI52
F2.5349965209247713
sI8
F0.0
ssI1
(dp516
I16
g16
sI88
g19
sI34
F1.7550389644828606
sI71
g22
sI79
F2.281584284390117
ssI2
(dp517
I98
F1.73486937494691
sI100
F1.3144410481252287
sI86
F2.4049169122145324
sI6
g26
sI54
g29
sI13
F0.0
sI21
F3.718999164620141
ssI3
(dp518
I64
g247
sI1
F2.4206979670721855
sI3
F3.4507505283130597
sI4
F0.0
sI72
g250
sI77
F0.851476632817072
sI83
F5.479191480474542
sI22
F1.0829973793345622
sI23
F3.1894633724951555
sI94
F5.120745507004392
sI99
F0.0
sI46
F0.0
sI50
F2.2702132064249367
sI51
F0.0
sI56
g253
sI60
F1.6957389608404279
sI61
F3.9241439897769244
ssI4
(dp519
I69
g43
sI41
F3.875726305885196
sI76
F2.3872252751752034
sI78
F1.3315125425707541
sI16
F0.0
sI20
F2.7826487009647902
sI53
F0.841181851069126
sI54
F5.768260651055332
sI87
F0.8452479146433655
sI59
g46
sI60
g49
sI62
F0.3578915153405614
sI85
F1.366661601883055
ssI5
(dp520
I21
F0.027014767031658393
sI6
F0.0
ssI6
(dp521
I66
g54
sI67
g57
sI37
F4.704298184449185
ssI7
(dp522
I70
F0.6267180221897909
sI11
g61
sI13
F0.3927034779260003
sI78
F1.7760594478412655
sI80
g64
sI82
F2.7479932551091495
sI23
F3.084940303764312
sI24
g67
sI58
F0.0
sI30
F1.8118917217146402
ssI8
(dp523
I100
F0.896446634439073
sI69
g71
sI42
F1.1241986718161543
sI76
F4.468470650431855
sI16
F0.0
sI49
g74
sI53
F0.7180035174839108
sI54
F1.1027263417430957
sI87
F0.0
sI59
g77
sI60
g80
sI93
F1.092521461612309
ssI9
(dp524
I69
g84
sI39
F0.0
sI41
F1.2517476414143662
sI43
F1.9793076278776904
sI76
F0.0
sI77
F2.956806773745635
sI16
F1.910084902651534
sI49
g87
sI53
F0.3014183539565993
sI54
F0.5665587859768855
sI87
F0.0
sI59
g90
sI60
g93
ssI10
(dp525
I35
F1.0985204990051827
sI67
g97
sI37
F2.799660951533424
ssI11
(dp526
I33
g101
sI84
g104
sI49
F0.0
sI17
F1.955629204570383
sI7
g107
sI63
g110
ssI12
(dp527
I97
g114
sI34
F1.86208160312116
sI35
g117
sI4
F3.0978187744027617
sI40
F0.336102203445634
sI9
F2.61777011925657
sI46
F0.0
sI16
g120
sI20
F0.0
sI87
F0.0
sI91
F0.252813902277522
sI60
g123
ssI13
(dp528
I69
g127
sI41
F0.21924152694087362
sI76
F0.8246272474496428
sI45
F1.9942988876399383
sI16
F0.0
sI20
F0.8810406741153771
sI53
F2.0792191126056903
sI54
F4.5810885339916885
sI87
F0.1580057737527924
sI59
g130
sI60
g133
ssI14
(dp529
I14
g137
ssI15
(dp530
I39
g141
sI57
g144
sI43
F0.0
sI44
g147
sI29
g150
sI61
F0.0
ssI16
(dp531
I64
F0.0
sI51
g160
sI66
g157
sI19
g154
sI29
g163
sI78
F0.0
ssI17
(dp532
I49
F0.0
sI84
F0.6866868638961984
sI5
g335
sI23
g338
sI73
F0.0
sI55
F3.895812193674005
ssI18
(dp533
I16
g177
sI97
g180
sI5
g183
sI23
g186
sI92
g189
sI46
g192
ssI19
(dp534
I16
g177
sI97
g180
sI5
g183
sI23
g186
sI92
g189
sI46
g192
ssI20
(dp535
I97
g114
sI34
F1.86208160312116
sI35
g117
sI4
F3.0978187744027617
sI40
F0.336102203445634
sI9
F2.61777011925657
sI46
F0.0
sI16
g120
sI20
F0.0
sI87
F0.0
sI91
F0.252813902277522
sI60
g123
ssI21
(dp536
I32
g198
sI57
g201
sI62
F0.8387283606760174
sI30
F0.0
ssI22
(dp537
I97
g114
sI34
F1.86208160312116
sI35
g117
sI4
F3.0978187744027617
sI40
F0.336102203445634
sI9
F2.61777011925657
sI46
F0.0
sI16
g120
sI20
F0.0
sI87
F0.0
sI91
F0.252813902277522
sI60
g123
ssI23
(dp538
I66
g206
sI37
F6.621286763506036
ssI24
(dp539
I64
g210
sI1
F1.9451068203647246
sI3
F3.3556321389802357
sI4
F1.6210383003136783
sI72
g213
sI77
F3.107626610213305
sI83
F3.768750785612947
sI23
F3.2068144743994917
sI94
F2.140102326126553
sI99
F2.2805455220442985
sI46
F0.0
sI50
F1.4074300445028674
sI51
F0.0
sI56
g216
sI60
F0.4443684042924567
sI61
F3.0581506412776447
ssI25
(dp540
I33
g220
sI4
F0.0
sI10
g223
sI76
g226
sI14
g229
sI15
g232
sI16
g235
sI68
g238
sI42
F0.8185320233442134
ssI26
(dp541
I70
F0.6267180221897909
sI11
g61
sI13
F0.3927034779260003
sI78
F1.7760594478412655
sI80
g64
sI82
F2.7479932551091495
sI23
F3.084940303764312
sI24
g67
sI58
F0.0
sI30
F1.8118917217146402
ssI27
(dp542
I48
F2.421985933511881
sI88
g12
sI27
F0.30625544846711183
sI52
F2.4646644632315446
sI8
F0.0
ssI28
(dp543
I64
F0.0
sI51
g160
sI66
g157
sI19
g154
sI29
g163
sI78
F0.0
ssI29
(dp544
I64
F0.0
sI51
g160
sI66
g157
sI19
g154
sI29
g163
sI78
F0.0
sssI143
(dp545
I0
(dp546
I48
F2.421985933511881
sI88
g12
sI27
F0.30625544846711183
sI52
F2.4646644632315446
sI8
F0.0
ssI1
(dp547
I16
g16
sI88
g19
sI34
F1.7550389644828606
sI79
F2.281584284390117
sI71
g22
ssI2
(dp548
I98
F1.73486937494691
sI100
F1.3144410481252287
sI6
g26
sI86
F2.4049169122145324
sI54
g29
sI13
F0.0
sI21
F3.718999164620141
ssI3
(dp549
I64
g247
sI1
F2.4206979670721855
sI3
F3.4507505283130597
sI4
F0.0
sI72
g250
sI77
F0.851476632817072
sI83
F5.479191480474542
sI22
F1.0829973793345622
sI23
F3.1894633724951555
sI94
F5.120745507004392
sI99
F0.0
sI46
F0.0
sI50
F2.2702132064249367
sI51
F0.0
sI56
g253
sI60
F1.6957389608404279
sI61
F3.9241439897769244
ssI4
(dp550
I69
g43
sI41
F3.875726305885196
sI76
F2.3872252751752034
sI78
F1.3315125425707541
sI16
F0.0
sI20
F2.7826487009647902
sI53
F0.841181851069126
sI54
F5.768260651055332
sI87
F0.8452479146433655
sI59
g46
sI60
g49
sI62
F0.3578915153405614
sI85
F1.366661601883055
ssI5
(dp551
I21
F0.027014767031658393
sI6
F0.0
ssI6
(dp552
I66
g54
sI67
g57
sI37
F4.704298184449185
ssI7
(dp553
I70
F0.6267180221897909
sI11
g61
sI13
F0.3927034779260003
sI78
F1.7760594478412655
sI80
g64
sI82
F2.7479932551091495
sI23
F3.084940303764312
sI24
g67
sI58
F0.0
sI30
F1.8118917217146402
ssI8
(dp554
I100
F0.896446634439073
sI69
g71
sI42
F1.1241986718161543
sI76
F4.468470650431855
sI16
F0.0
sI49
g74
sI53
F0.7180035174839108
sI54
F1.1027263417430957
sI87
F0.0
sI59
g77
sI60
g80
sI93
F1.092521461612309
ssI9
(dp555
I69
g84
sI39
F0.0
sI41
F1.2517476414143662
sI43
F1.9793076278776904
sI76
F0.0
sI77
F2.956806773745635
sI16
F1.910084902651534
sI49
g87
sI53
F0.3014183539565993
sI54
F0.5665587859768855
sI87
F0.0
sI59
g90
sI60
g93
ssI10
(dp556
I67
g97
sI35
F1.0985204990051827
sI37
F2.799660951533424
ssI11
(dp557
I33
g101
sI84
g104
sI17
F1.955629204570383
sI49
F0.0
sI7
g107
sI63
g110
ssI12
(dp558
I97
g114
sI34
F1.86208160312116
sI35
g117
sI4
F3.0978187744027617
sI40
F0.336102203445634
sI9
F2.61777011925657
sI46
F0.0
sI16
g120
sI20
F0.0
sI87
F0.0
sI91
F0.252813902277522
sI60
g123
ssI13
(dp559
I69
g127
sI41
F0.21924152694087362
sI76
F0.8246272474496428
sI45
F1.9942988876399383
sI16
F0.0
sI20
F0.8810406741153771
sI53
F2.0792191126056903
sI54
F4.5810885339916885
sI87
F0.1580057737527924
sI59
g130
sI60
g133
ssI14
(dp560
I14
g137
ssI15
(dp561
I39
g141
sI57
g144
sI43
F0.0
sI44
g147
sI29
g150
sI61
F0.0
ssI16
(dp562
I64
F0.0
sI19
g494
sI66
F0.0
sI51
g491
sI29
g497
sI78
F0.0
ssI17
(dp563
I49
F0.0
sI84
F0.6866868638961984
sI5
g335
sI23
g338
sI73
F0.0
sI55
F3.895812193674005
ssI18
(dp564
I16
g177
sI97
g180
sI5
g183
sI23
g186
sI92
g189
sI46
g192
ssI19
(dp565
I16
g177
sI97
g180
sI5
g183
sI23
g186
sI92
g189
sI46
g192
ssI20
(dp566
I97
g114
sI34
F1.86208160312116
sI35
g117
sI4
F3.0978187744027617
sI40
F0.336102203445634
sI9
F2.61777011925657
sI46
F0.0
sI16
g120
sI20
F0.0
sI87
F0.0
sI91
F0.252813902277522
sI60
g123
ssI21
(dp567
I32
g198
sI57
g201
sI30
F0.0
sI62
F0.8387283606760174
ssI22
(dp568
I97
g114
sI34
F1.86208160312116
sI35
g117
sI4
F3.0978187744027617
sI40
F0.336102203445634
sI9
F2.61777011925657
sI46
F0.0
sI16
g120
sI20
F0.0
sI87
F0.0
sI91
F0.252813902277522
sI60
g123
ssI23
(dp569
I66
g206
sI37
F6.621286763506036
ssI24
(dp570
I64
g210
sI1
F1.9451068203647246
sI3
F3.3556321389802357
sI4
F1.6210383003136783
sI72
g213
sI77
F3.107626610213305
sI83
F3.768750785612947
sI23
F3.2068144743994917
sI94
F2.140102326126553
sI99
F2.2805455220442985
sI46
F0.0
sI50
F1.4074300445028674
sI51
F0.0
sI56
g216
sI60
F0.4443684042924567
sI61
F3.0581506412776447
ssI25
(dp571
I33
g220
sI4
F0.0
sI10
g223
sI76
g226
sI14
g229
sI15
g232
sI16
g235
sI68
g238
sI42
F0.8185320233442134
ssI26
(dp572
I70
F0.6267180221897909
sI11
g61
sI13
F0.3927034779260003
sI78
F1.7760594478412655
sI80
g64
sI82
F2.7479932551091495
sI23
F3.084940303764312
sI24
g67
sI58
F0.0
sI30
F1.8118917217146402
ssI27
(dp573
I48
F2.421985933511881
sI88
g12
sI27
F0.30625544846711183
sI52
F2.4646644632315446
sI8
F0.0
ssI28
(dp574
I64
F0.0
sI19
g154
sI66
g157
sI51
g160
sI29
g163
sI78
F0.0
ssI29
(dp575
I64
F0.0
sI19
g154
sI66
g157
sI51
g160
sI29
g163
sI78
F0.0
ssI30
(dp576
I48
F2.421985933511881
sI88
g12
sI27
F0.30625544846711183
sI52
F2.4646644632315446
sI8
F0.0
sssI144
(dp577
I0
(dp578
I48
F3.6032667608513336
sI88
g3
(g7
S'\x06\x01\x0f\x9d\x9b\x13\x0f@'
p579
tp580
Rp581
sI19
F0.8073718102531888
sI52
F2.1383634923112758
sI8
F0.5357797001137645
sI27
F1.1354924774628947
ssI1
(dp582
I16
g3
(g7
S'\x88Yv\x1eI\xf5\x08@'
p583
tp584
Rp585
sI34
F0.21489223750278885
sI84
F0.2443084681504314
sI71
g3
(g7
S'\x9aE\x92\xdb]\xed\x02@'
p586
tp587
Rp588
sI88
g3
(g7
S'\x03Icc\xfd\xe1\xef?'
p589
tp590
Rp591
sI79
F2.254784542861442
ssI2
(dp592
I98
F0.01587992846667241
sI100
F0.0
sI86
F3.2632527459704397
sI6
g3
(g7
S'\xd4\x02\xeb\xa4v\xf4\xf2?'
p593
tp594
Rp595
sI54
g3
(g7
S'\x16\xf7.[k\xee\x07@'
p596
tp597
Rp598
sI13
F0.0
sI21
F2.3220724523655347
ssI3
(dp599
I64
g3
(g7
S'\xeb\xc2\x89\xa4\xd3\x8b\x1d@'
p600
tp601
Rp602
sI1
F0.33934683901437723
sI3
F2.440755575194822
sI4
F0.9562191306324348
sI72
g3
(g7
S'\x96N\x8f\xea\xd9Y\xfd?'
p603
tp604
Rp605
sI77
F0.3463168351413733
sI83
F3.085607248336439
sI22
F1.967826545813463
sI23
F0.7786452422125192
sI94
F4.578904677874987
sI99
F2.2010443562223263
sI46
F1.0957636335986192
sI50
F1.7206553700811755
sI56
g3
(g7
S'>~*2L\x1b @'
p606
tp607
Rp608
sI60
F2.5602090299254194
sI61
F2.2822061781348015
ssI4
(dp609
I69
g3
(g7
S'\xb0}\xbb\x00\x88/\x04@'
p610
tp611
Rp612
sI70
F0.22127580252984602
sI41
F4.341427967145326
sI76
F2.7742967512241354
sI78
F0.4483745515180858
sI16
F0.6995938706675537
sI20
F2.7524078587533034
sI53
F1.887901738211549
sI54
F5.872707786310893
sI87
F1.5528776200330903
sI59
g3
(g7
S'\x9d\xc62#\\P\x00@'
p613
tp614
Rp615
sI60
g3
(g7
S'\xe0\xd39`\xb6\xa0\xf9?'
p616
tp617
Rp618
sI62
F0.0
sI85
F1.7335038779723082
ssI5
(dp619
I21
F0.0
ssI6
(dp620
I41
F0.3380597930904653
sI66
F0.0
sI67
g3
(g7
S'D\x16M\x10\x07\xef\x00@'
p621
tp622
Rp623
sI37
F5.213242007329619
ssI7
(dp624
I70
F0.0
sI11
g3
(g7
S'W\xe1E\xc9,\xe8\x0e@'
p625
tp626
Rp627
sI13
F0.12342043969305605
sI78
F1.3676613082990048
sI80
g3
(g7
S'\xb7,\xcf6\xa9O\xf1?'
p628
tp629
Rp630
sI82
F1.7919598059499735
sI52
F0.9227393053052038
sI23
F4.496799701524135
sI24
g3
(g7
S'\xe7\xc3p\xbf}\xbc\x13@'
p631
tp632
Rp633
sI58
F0.5008184195901857
sI30
F2.2182716353220227
ssI8
(dp634
I100
F1.701388276088087
sI69
g3
(g7
S'@\xbe8\xfb\xb0\xe8\xdc?'
p635
tp636
Rp637
sI42
F0.6609842344684084
sI55
F0.6367481153206798
sI76
F4.246345594519201
sI16
F1.1080582864416595
sI49
g3
(g7
S'\x8cp\xbe"\xda\xa8\x16@'
p638
tp639
Rp640
sI53
F1.081481240536814
sI54
F1.4456488493131499
sI87
F0.37498203106362565
sI59
g3
(g7
S'n\xdf2\xacC\xbc\xfe?'
p641
tp642
Rp643
sI60
g3
(g7
S'\x1f\xef\xa3\xaf\x15\x94\x1c@'
p644
tp645
Rp646
sI93
F0.6151542968207964
ssI9
(dp647
I69
g3
(g7
S'\x15v\xeby\xe6\x10\x0c@'
p648
tp649
Rp650
sI39
F0.0
sI41
F1.55926088271858
sI43
F2.1692390692911077
sI77
F3.5030154725518616
sI16
F1.044535124864632
sI49
g3
(g7
S'2t"\x02\x9eD\x12@'
p651
tp652
Rp653
sI53
F1.7864916423812
sI54
F1.5808326359012161
sI87
F0.0059893021258415596
sI59
g3
(g7
S'\xb8W\xb0\x98\x8a\xb2\x0e@'
p654
tp655
Rp656
sI60
g3
(g7
S'\xde]4\x8c\x91\x9c\x00@'
p657
tp658
Rp659
ssI10
(dp660
I35
F1.4691724705899487
sI37
F2.74233108301733
ssI11
(dp661
I33
g3
(g7
S'\xbdB\xb4,\xfco\x0c@'
p662
tp663
Rp664
sI63
g3
(g7
S't\x84f\t\xa7!\xf8?'
p665
tp666
Rp667
sI84
g3
(g7
S'\x81Sd\xba\xcbe\r@'
p668
tp669
Rp670
sI49
F0.4326444584541913
sI7
g3
(g7
S'\xdb7\x9a\xab\x9e\xc1\xfc?'
p671
tp672
Rp673
ssI12
(dp674
I97
F0.0
sI34
F1.9008902163921
sI35
g3
(g7
S'j\xc5\xf2\xe1z\r\x03@'
p675
tp676
Rp677
sI4
F6.225420372674783
sI40
F0.6097378789797134
sI9
F2.922240589555193
sI46
F0.35151442265350996
sI16
g3
(g7
S'4\xf61\x88\x16T\x00@'
p678
tp679
Rp680
sI20
F0.6443831456334251
sI87
F0.390517543042423
sI90
F0.6553070257661133
sI91
F1.014351502930828
sI60
g3
(g7
S'/\xa1\x12\x83\xe9\xad\xff?'
p681
tp682
Rp683
ssI13
(dp684
I69
g3
(g7
S'\x8f\xe8lA\xcf"\x00@'
p685
tp686
Rp687
sI38
F0.37792815108290934
sI41
F0.0
sI76
F2.697281030555266
sI45
F2.7912957482748735
sI16
F0.0
sI20
F2.9369005905640506
sI53
F0.0
sI54
F4.974689135031803
sI87
F2.16315016791333
sI59
g3
(g7
S'\\k\x9a*\xe6\x99\x0e@'
p688
tp689
Rp690
sI60
g3
(g7
S'\xea\x15\xe9*\xeb\xc8\xd0?'
p691
tp692
Rp693
ssI14
(dp694
I14
g3
(g7
S'\x9e.@\x13\xf4\x07\x08@'
p695
tp696
Rp697
ssI15
(dp698
I39
g3
(g7
S'\xae\x93\xb3&U\x8c\xf6?'
p699
tp700
Rp701
sI57
g3
(g7
S'\xcce\xa8\x97:\xc7\xfe?'
p702
tp703
Rp704
sI43
F0.0
sI44
g3
(g7
S'\xe7?1[\xcei\xf6?'
p705
tp706
Rp707
sI29
g3
(g7
S'#?F\xfb\x0fG\x00@'
p708
tp709
Rp710
sI61
F0.11777423695635415
ssI16
(dp711
I64
F0.0
sI51
g3
(g7
S'\x94Uy\x9as\x0c\x13@'
p712
tp713
Rp714
sI66
F0.0
sI19
F0.0
sI29
g3
(g7
S'\x89\x0bx\xaa+\xb4\xf1?'
p715
tp716
Rp717
sI78
F0.0
sI31
F0.261655543385948
ssI17
(dp718
I80
F0.351330748423639
sI49
F0.0
sI5
F0.0
sI55
F0.0
sI73
F0.11865069361692362
sI23
F0.0
ssI18
(dp719
I16
g3
(g7
S'\xb4\xd6G\xe5\xd6\\\xf8?'
p720
tp721
Rp722
sI97
g3
(g7
S'\x02\xec:=^7\xd1?'
p723
tp724
Rp725
sI5
F0.0
sI38
F0.07058984660851475
sI23
g3
(g7
S'\x148\\\x9a+\xcd\xc2?'
p726
tp727
Rp728
sI92
g3
(g7
S'\xc0Rn\xb6\xee\xd6\xaf?'
p729
tp730
Rp731
sI46
F0.0
ssI19
(dp732
I16
F0.0
sI97
F0.0
sI92
F0.0
sI46
g3
(g7
S'zu\x88\x96\x91\x1e\xfb?'
p733
tp734
Rp735
sI23
g3
(g7
S'\xc0\xb8\xc4\r\x8d\x0b\xe9?'
p736
tp737
Rp738
ssI20
(dp739
I97
g3
(g7
S'pw\x9e}P(\xc9?'
p740
tp741
Rp742
sI34
F2.0248150218844705
sI35
g3
(g7
S',\x97\x1d\x8e\x0b+\xf1?'
p743
tp744
Rp745
sI4
F2.0563362016596107
sI40
F0.04002393903450285
sI46
F0.0
sI16
g3
(g7
S'\xcc\ty\xfa\xee\\\xf8?'
p746
tp747
Rp748
sI20
F0.0
sI87
F0.0
sI91
F0.0
sI60
g3
(g7
S'^\xce \x87\x9c\xb1\xfc?'
p749
tp750
Rp751
ssI21
(dp752
I32
g3
(g7
S'\x17\x83\x9e\xa8+\xf0\xf7?'
p753
tp754
Rp755
sI57
g3
(g7
S'\x89\xf5\x8fZ\xed\xd3\xe9?'
p756
tp757
Rp758
sI75
F0.7361594986042156
sI62
F0.9545150854801985
sI30
F0.0
ssI22
(dp759
I97
g3
(g7
S'\r\xc5\x9c\xb8{u\x08@'
p760
tp761
Rp762
sI34
F3.177227569432933
sI35
g3
(g7
S"\x84'\xd1ei\xa9\x0e@"
p763
tp764
Rp765
sI4
F2.804176768335279
sI40
F2.349662216872836
sI9
F2.9761527424759437
sI46
F0.0
sI16
g3
(g7
S'\xce\x04\x96\x8b\x95\x8f\x0b@'
p766
tp767
Rp768
sI20
F0.0
sI87
F0.0
sI91
F0.0
sI60
g3
(g7
S'\xec9\xf9\x16\xfb\xac\x00@'
p769
tp770
Rp771
ssI23
(dp772
I66
g3
(g7
S'\x88\xae\t\x13\t\x16\xed?'
p773
tp774
Rp775
sI37
F6.513184119108049
ssI24
(dp776
I64
g3
(g7
S'\xa6\xaaj\x86\xfc#\x16@'
p777
tp778
Rp779
sI1
F0.16728571157159977
sI3
F4.391223885895869
sI4
F2.2210980551084267
sI72
g3
(g7
S'(\x1f\xa1\x97\xc4z\xf4?'
p780
tp781
Rp782
sI77
F2.0868064007974336
sI83
F3.804976208169462
sI23
F4.636609199394233
sI94
F0.33246539717657186
sI99
F1.1816872043313251
sI46
F0.04958463859228189
sI50
F0.494614886343051
sI51
F0.30046601054033933
sI55
F0.09205701499534694
sI56
g3
(g7
S'\x13>;\xf7\xaeK\x1c@'
p783
tp784
Rp785
sI60
F0.9622466648760004
ssI25
(dp786
I33
g3
(g7
S'U\x9e\xe1q\xb1\xa4\xe8?'
p787
tp788
Rp789
sI4
F0.0
sI10
g3
(g7
S'\xd0\xd7\xab\xcd\xa8<\xd1?'
p790
tp791
Rp792
sI76
g3
(g7
S'\x90\x0b\xd1N.k\xd4?'
p793
tp794
Rp795
sI14
g3
(g7
S'v\xe6A\x8fY\xa3\x07@'
p796
tp797
Rp798
sI15
g3
(g7
S'Q\xd4\x88\xa0\xb6\xaf\xfd?'
p799
tp800
Rp801
sI68
F0.0
sI42
F1.6022421685912729
ssI26
(dp802
I70
F0.5975026985946743
sI11
g3
(g7
S'\to\xfcs\xf5\xa6\x10@'
p803
tp804
Rp805
sI13
F1.155318905974516
sI78
F0.5333996335017241
sI80
g3
(g7
S'\xf2\x1e\xda\xa9\x92\xfa\xf8?'
p806
tp807
Rp808
sI82
F1.9693936153732565
sI21
F0.038130701968379754
sI23
F2.667516167455502
sI24
g3
(g7
S'\xb7\x99o \xc5\xa7\x0c@'
p809
tp810
Rp811
sI58
F0.0
sI30
F1.0036597531702816
sssI145
(dp812
I0
(dp813
I48
F2.874461335942405
sI81
F0.9511241762295999
sI52
F1.3018478788183538
sI8
F0.0
sI88
g3
(g7
S'\xfc[c\xd1\xe8-\x13@'
p814
tp815
Rp816
sI27
F3.0960995720929496
ssI1
(dp817
I16
g3
(g7
S'\xe1Xl\xaa\x19\xc9\xfe?'
p818
tp819
Rp820
sI33
F0.9171818904517303
sI34
F2.3217257148833164
sI71
g3
(g7
S'\x98\x17\x9a\xa0q2\x05@'
p821
tp822
Rp823
sI88
g3
(g7
S'\xfao\x8c\xac\x83h\xed?'
p824
tp825
Rp826
sI79
F3.2757458258124217
ssI2
(dp827
I97
F0.9391111462819731
sI98
F0.883939926859744
sI100
F0.19441596361194513
sI86
F2.3380103525365143
sI6
g3
(g7
S'\x04\x86\x89\xaa%\xe1\x08@'
p828
tp829
Rp830
sI13
F0.031236757527295628
sI21
F3.199938642461428
sI54
g3
(g7
S"I\xc2\x8e's\xcd\t@"
p831
tp832
Rp833
ssI3
(dp834
I64
g3
(g7
S'\xb7\x14d\x7f\xf9t\x19@'
p835
tp836
Rp837
sI1
F2.0823004075621645
sI3
F0.9694888638527299
sI4
F1.9462973698863197
sI72
g3
(g7
S'\xf8\xb5\x9ff\x8a*\x05@'
p838
tp839
Rp840
sI77
F0.0
sI83
F4.1697792192735905
sI22
F0.0
sI23
F0.5687873165021335
sI94
F3.041686420111775
sI99
F1.9306942963802123
sI46
F1.7672105791050328
sI50
F1.4027706822297952
sI51
F0.0
sI56
g3
(g7
S'\xd1\x10\x17i+\x97\x1f@'
p841
tp842
Rp843
sI60
F3.545664134233439
sI61
F4.028658206021415
ssI4
(dp844
I69
g3
(g7
S'\xfe;P\xbf)>\x13@'
p845
tp846
Rp847
sI41
F5.639281424718227
sI76
F2.0655786751718037
sI78
F1.6058251006372164
sI16
F0.0
sI20
F2.730501614462438
sI53
F0.0
sI54
F4.850235643671579
sI87
F1.018660820627246
sI59
g3
(g7
S'\xcbt\x01#\x10|\xf5?'
p848
tp849
Rp850
sI60
g3
(g7
S'\xf4(\x1e\x9c\x9f$\x0e@'
p851
tp852
Rp853
sI62
F0.15870206254394398
sI85
F0.9199783781403821
ssI5
(dp854
I21
F0.0
sI6
F0.0
sI79
F0.3572439572064864
ssI6
(dp855
I66
F0.0
sI67
g3
(g7
S'\xc0\xc7\xff\xcc{\xdd\xd4?'
p856
tp857
Rp858
ssI7
(dp859
I70
F0.6024446646842289
sI11
g3
(g7
S'\xb6\xb3+wX\x84\x08@'
p860
tp861
Rp862
sI13
F0.0
sI78
F2.268491875163754
sI80
g3
(g7
S'0\xb6=\xce\x0b4\x02@'
p863
tp864
Rp865
sI82
F3.0645312643503058
sI24
g3
(g7
S'\x1a\xc2T\xb1\x02\xd7\xff?'
p866
tp867
Rp868
sI58
F1.654761847811502
sI30
F4.302511368703513
ssI8
(dp869
I64
F0.2940205663358665
sI100
F0.3720937886693596
sI69
g3
(g7
S'23\xfa\xb3j\xe8\xf0?'
p870
tp871
Rp872
sI42
F0.9221848848480396
sI76
F4.79862000840663
sI16
F0.05404501250960144
sI49
g3
(g7
S'b\x05\xec\x1d\xdc\x0b\x0b@'
p873
tp874
Rp875
sI53
F2.453508166358357
sI54
F0.0
sI87
F0.27974455972833434
sI59
g3
(g7
S'd\xaf\xa5]\xf5I\x12@'
p876
tp877
Rp878
sI60
g3
(g7
S'g\x13\xb6\xe1\xa7\xf4\x1a@'
p879
tp880
Rp881
sI93
F2.393260132299324
ssI9
(dp882
I69
g3
(g7
S'\xf7\xa2^Y\xcc$\x05@'
p883
tp884
Rp885
sI39
F0.0
sI41
F1.1305580113200928
sI43
F3.0282019812585297
sI76
F0.020018445227438158
sI77
F2.247240055335695
sI16
F4.128020577376482
sI53
F0.3127776597597477
sI54
F0.0
sI87
F0.0
sI59
g3
(g7
S'kW\x88\xb17h\x05@'
p886
tp887
Rp888
sI60
g3
(g7
S'\x88\x98gu\x15w\x00@'
p889
tp890
Rp891
ssI10
(dp892
I67
g3
(g7
S'\xba\xc6\xa8\x1cG\x96\xf7?'
p893
tp894
Rp895
sI35
F1.7316025265684911
ssI11
(dp896
I33
g3
(g7
S'\xa0\xa5\xfc*\xaa*\x10@'
p897
tp898
Rp899
sI84
g3
(g7
S'.\xc3\xf3\x93B\xe8\x11@'
p900
tp901
Rp902
sI17
F3.141624308571892
sI49
F1.0925352832809172
sI8
F0.5501310946545958
sI7
g3
(g7
S'E\xaehDe\x96\x0b@'
p903
tp904
Rp905
sI63
g3
(g7
S'\xb4j\xf0\xdb\x1c\xd4\x08@'
p906
tp907
Rp908
ssI12
(dp909
I97
g3
(g7
S'\xd2u\xb3+\xfb\xaf\xf9?'
p910
tp911
Rp912
sI34
F1.1209927921955334
sI35
g3
(g7
S'\xbe\x03\x0c\x1a\xccG\x0b@'
p913
tp914
Rp915
sI4
F4.735085216496199
sI40
F1.689466032084722
sI9
F2.6461949383470222
sI46
F0.0
sI16
g3
(g7
S'\xceX;\x92\x82\x13\x00@'
p916
tp917
Rp918
sI20
F0.0
sI87
F0.0
sI91
F0.1607789045514549
sI60
g3
(g7
S'M\x80w*N\xa0\xee?'
p919
tp920
Rp921
ssI13
(dp922
I3
F0.8692418814876165
sI69
g3
(g7
S'\x9b\xad\x9c\x00\x8bE\xf3?'
p923
tp924
Rp925
sI41
F0.46371799152878024
sI76
F0.9175717610969155
sI45
F1.9513441039778425
sI16
F0.0
sI20
F0.10845257944204179
sI53
F3.015722197686296
sI54
F4.68759140537247
sI87
F0.0
sI59
g3
(g7
S'V\x84\xa3g\xc7\x03\x0e@'
p926
tp927
Rp928
sI60
g3
(g7
S'\xd4\xd1\xba\t\x8bJ\r@'
p929
tp930
Rp931
ssI14
(dp932
I14
g3
(g7
S'~\xafr\xa0r\xea\xdc?'
p933
tp934
Rp935
ssI15
(dp936
I39
g3
(g7
S'd\xf1$I0\xf7\xe9?'
p937
tp938
Rp939
sI57
g3
(g7
S'SP#\xb6\xd1\x9a\xf1?'
p940
tp941
Rp942
sI43
F0.0
sI44
g3
(g7
S'\xf3\xce\xef0\x84\x05\x02@'
p943
tp944
Rp945
sI29
g3
(g7
S'\xbf\xe9\xf0+\xb0\xc6\x0c@'
p946
tp947
Rp948
sI61
F0.36110057848013205
ssI16
(dp949
I64
F0.2696178355860236
sI19
g3
(g7
S'\xe0\xfex1G\xed\xec?'
p950
tp951
Rp952
sI66
g3
(g7
S'oC\xf2\xa3\x85\x86\xfb?'
p953
tp954
Rp955
sI51
g3
(g7
S'\xe1\xde\xdd#xZ\x12@'
p956
tp957
Rp958
sI78
F1.8206917964910876
ssI17
(dp959
I73
F0.0
sI55
F2.0224421437905766
sI5
g3
(g7
S'gF\xec\xd2y&\xf0?'
p960
tp961
Rp962
sI23
g3
(g7
S'\x1a\xa5k\xebn4\x04@'
p963
tp964
Rp965
ssI18
(dp966
I16
g3
(g7
S'\x18\xed\\\xa9:\x97\xd0?'
p967
tp968
Rp969
sI97
g3
(g7
S'\xed\xb1\xcd\x05\x0b\xfc\xc9?'
p970
tp971
Rp972
sI5
g3
(g7
S'\x92\xcf\xd1\x86(\x16\xeb?'
p973
tp974
Rp975
sI70
F0.6234246323030499
sI23
F0.0
sI92
g3
(g7
S'x\x93\x14\xec\xcb/\xba?'
p976
tp977
Rp978
sI46
g3
(g7
S'\xb7\xd3M\xe3P\x1e\xe0?'
p979
tp980
Rp981
ssI19
(dp982
I16
F0.0
sI97
g3
(g7
S'\x08lbx:\x01\xd6?'
p983
tp984
Rp985
sI5
F0.0
sI54
F0.8488418060447859
sI23
g3
(g7
S'\x80\xb9=\xf6O\xaa\xfa?'
p986
tp987
Rp988
sI92
g3
(g7
S'C\xda\xdd=\x10V\xe2?'
p989
tp990
Rp991
sI46
g3
(g7
S'\x86\xfeFbJw\xf6?'
p992
tp993
Rp994
ssI20
(dp995
I97
g3
(g7
S'\x8b\x1e\xd9\xf8\xadp\xfe?'
p996
tp997
Rp998
sI34
F1.749598433840803
sI35
g3
(g7
S'S\x1d\xf2DW^\r@'
p999
tp1000
Rp1001
sI4
F2.890022475329092
sI40
F0.0
sI9
F2.3953280482872334
sI46
F0.0
sI16
g3
(g7
S'ZC\xe3\xe8\x8br\x01@'
p1002
tp1003
Rp1004
sI20
F0.0
sI91
F0.034988168079099796
sI60
g3
(g7
S'\x14\x14\xfcb\x12\x86\xdf?'
p1005
tp1006
Rp1007
ssI21
(dp1008
I32
g3
(g7
S'\xc0$!\x01\xa31\xaf?'
p1009
tp1010
Rp1011
sI57
g3
(g7
S'\xba"g\xed\xd9\x89\xfd?'
p1012
tp1013
Rp1014
sI62
F2.624959030171773
ssI22
(dp1015
I97
F0.0
sI35
g3
(g7
S'>\xc3\x14\x8cU\xdc\x05@'
p1016
tp1017
Rp1018
sI4
F1.7441905178641786
sI40
F0.0
sI9
F2.7374140053163867
sI46
F0.0
sI16
g3
(g7
S'\x94\x0e2V`\xb0\x06@'
p1019
tp1020
Rp1021
sI20
F0.9563079165002271
sI87
F1.5234706647098366
sI91
F0.9716910480428905
sI60
g3
(g7
S'\x9b\xd7\x0eL\xf7\x7f\t@'
p1022
tp1023
Rp1024
ssI23
(dp1025
I66
g3
(g7
S'\xdb\xe1\x98\xd9\xca\xdc\xe1?'
p1026
tp1027
Rp1028
sI37
F6.413340715797905
sI85
F0.405897375476992
ssI24
(dp1029
I64
g3
(g7
S'{ql\xdd\x93\xbc\x16@'
p1030
tp1031
Rp1032
sI1
F0.0
sI3
F3.5096894404265284
sI72
g3
(g7
S' \xeak\xb8X\xd4\xa6?'
p1033
tp1034
Rp1035
sI77
F2.2709576983183406
sI83
F2.83250199030535
sI23
F3.308192327845784
sI94
F0.0
sI99
F3.9714126209174028
sI46
F0.0
sI50
F0.5750301963206707
sI51
F1.271622203468391
sI55
F0.44252043517553635
sI56
g3
(g7
S'\x13\x11t\xed\x89H @'
p1036
tp1037
Rp1038
sI60
F0.3598972105575302
sI61
F0.7143556340013265
ssI25
(dp1039
I33
F0.0
sI4
F0.34405537070459147
sI10
F0.0
sI76
g3
(g7
S'\xb82\xe8\x80\x1f;\xf8?'
p1040
tp1041
Rp1042
sI14
g3
(g7
S'\x02\xb1\xe5\x0c\x0f\xad\x0c@'
p1043
tp1044
Rp1045
sI15
g3
(g7
S'\xc4\xd4\xb2\xf7\x072\x01@'
p1046
tp1047
Rp1048
sI68
g3
(g7
S'r\xe1\xfe\x81J\xbf\xe9?'
p1049
tp1050
Rp1051
sI42
F1.5113864093630638
ssI26
(dp1052
I70
F0.7274175126861401
sI11
g3
(g7
S'.+D\x90\xb3r\n@'
p1053
tp1054
Rp1055
sI13
F0.0
sI78
F0.5364656377535422
sI80
g3
(g7
S',\xca\xf2\\iq\xf5?'
p1056
tp1057
Rp1058
sI82
F2.619816396984187
sI23
F3.447284008754911
sI24
g3
(g7
S'3\xb5,Z\x9a\x89\x11@'
p1059
tp1060
Rp1061
sI58
F0.0
sI30
F1.3261215369634898
sssI146
(dp1062
I0
(dp1063
I48
F2.874461335942405
sI81
F0.9511241762295999
sI52
F1.3018478788183538
sI8
F0.0
sI88
g816
sI27
F3.0960995720929496
ssI1
(dp1064
I16
g820
sI33
F0.9171818904517303
sI34
F2.3217257148833164
sI71
g823
sI88
g826
sI79
F3.2757458258124217
ssI2
(dp1065
I97
F0.9391111462819731
sI98
F0.883939926859744
sI100
F0.19441596361194513
sI86
F2.3380103525365143
sI6
g830
sI13
F0.031236757527295628
sI21
F3.199938642461428
sI54
g833
ssI3
(dp1066
I64
g837
sI1
F2.0823004075621645
sI3
F0.9694888638527299
sI4
F1.9462973698863197
sI72
g840
sI77
F0.0
sI83
F4.1697792192735905
sI22
F0.0
sI23
F0.5687873165021335
sI94
F3.041686420111775
sI99
F1.9306942963802123
sI46
F1.7672105791050328
sI50
F1.4027706822297952
sI51
F0.0
sI56
g843
sI60
F3.545664134233439
sI61
F4.028658206021415
ssI4
(dp1067
I69
g847
sI41
F5.639281424718227
sI76
F2.0655786751718037
sI78
F1.6058251006372164
sI16
F0.0
sI20
F2.730501614462438
sI53
F0.0
sI54
F4.850235643671579
sI87
F1.018660820627246
sI59
g850
sI60
g853
sI62
F0.15870206254394398
sI85
F0.9199783781403821
ssI5
(dp1068
I21
F0.0
sI6
F0.0
sI79
F0.3572439572064864
ssI6
(dp1069
I66
F0.0
sI67
g858
ssI7
(dp1070
I70
F0.6024446646842289
sI11
g862
sI13
F0.0
sI78
F2.268491875163754
sI80
g865
sI82
F3.0645312643503058
sI24
g868
sI58
F1.654761847811502
sI30
F4.302511368703513
ssI8
(dp1071
I64
F0.2940205663358665
sI100
F0.3720937886693596
sI69
g872
sI42
F0.9221848848480396
sI76
F4.79862000840663
sI16
F0.05404501250960144
sI49
g875
sI53
F2.453508166358357
sI54
F0.0
sI87
F0.27974455972833434
sI59
g878
sI60
g881
sI93
F2.393260132299324
ssI9
(dp1072
I69
g885
sI39
F0.0
sI41
F1.1305580113200928
sI43
F3.0282019812585297
sI76
F0.020018445227438158
sI77
F2.247240055335695
sI16
F4.128020577376482
sI53
F0.3127776597597477
sI54
F0.0
sI87
F0.0
sI59
g888
sI60
g891
ssI10
(dp1073
I67
g895
sI35
F1.7316025265684911
ssI11
(dp1074
I33
g899
sI84
g902
sI17
F3.141624308571892
sI49
F1.0925352832809172
sI8
F0.5501310946545958
sI7
g905
sI63
g908
ssI12
(dp1075
I97
g912
sI34
F1.1209927921955334
sI35
g915
sI4
F4.735085216496199
sI40
F1.689466032084722
sI9
F2.6461949383470222
sI46
F0.0
sI16
g918
sI20
F0.0
sI87
F0.0
sI91
F0.1607789045514549
sI60
g921
ssI13
(dp1076
I3
F0.8692418814876165
sI69
g925
sI41
F0.46371799152878024
sI76
F0.9175717610969155
sI45
F1.9513441039778425
sI16
F0.0
sI20
F0.10845257944204179
sI53
F3.015722197686296
sI54
F4.68759140537247
sI87
F0.0
sI59
g928
sI60
g931
ssI14
(dp1077
I14
g935
ssI15
(dp1078
I39
g939
sI57
g942
sI43
F0.0
sI44
g945
sI29
g948
sI61
F0.36110057848013205
ssI16
(dp1079
I64
F0.09061291174636626
sI19
g3
(g7
S'7/\xabv\x7fW\xf4?'
p1080
tp1081
Rp1082
sI51
g3
(g7
S'4\xc3\xc6\x00u^\x12@'
p1083
tp1084
Rp1085
sI78
F2.1653553766485336
ssI17
(dp1086
I73
F0.0
sI55
F2.0224421437905766
sI5
g962
sI23
g965
ssI18
(dp1087
I16
g969
sI97
g972
sI5
g975
sI70
F0.6234246323030499
sI23
F0.0
sI92
g978
sI46
g981
ssI19
(dp1088
I16
F0.0
sI97
g985
sI5
F0.0
sI54
F0.8488418060447859
sI23
g988
sI92
g991
sI46
g994
ssI20
(dp1089
I97
g998
sI34
F1.749598433840803
sI35
g1001
sI4
F2.890022475329092
sI40
F0.0
sI9
F2.3953280482872334
sI46
F0.0
sI16
g1004
sI20
F0.0
sI91
F0.034988168079099796
sI60
g1007
ssI21
(dp1090
I32
g1011
sI57
g1014
sI62
F2.624959030171773
ssI22
(dp1091
I97
F0.0
sI35
g1018
sI4
F1.7441905178641786
sI40
F0.0
sI9
F2.7374140053163867
sI46
F0.0
sI16
g1021
sI20
F0.9563079165002271
sI87
F1.5234706647098366
sI91
F0.9716910480428905
sI60
g1024
ssI23
(dp1092
I66
g1028
sI37
F6.413340715797905
sI85
F0.405897375476992
ssI24
(dp1093
I64
g1032
sI1
F0.0
sI3
F3.5096894404265284
sI72
g1035
sI77
F2.2709576983183406
sI83
F2.83250199030535
sI23
F3.308192327845784
sI94
F0.0
sI99
F3.9714126209174028
sI46
F0.0
sI50
F0.5750301963206707
sI51
F1.271622203468391
sI55
F0.44252043517553635
sI56
g1038
sI60
F0.3598972105575302
sI61
F0.7143556340013265
ssI25
(dp1094
I33
F0.0
sI4
F0.34405537070459147
sI10
F0.0
sI76
g1042
sI14
g1045
sI15
g1048
sI68
g1051
sI42
F1.5113864093630638
ssI26
(dp1095
I70
F0.7274175126861401
sI11
g1055
sI13
F0.0
sI78
F0.5364656377535422
sI80
g1058
sI82
F2.619816396984187
sI23
F3.447284008754911
sI24
g1061
sI58
F0.0
sI30
F1.3261215369634898
sssI147
(dp1096
I0
(dp1097
I48
F3.2535274822772506
sI8
F0.0
sI52
F1.3802579385137665
sI88
g3
(g7
S'\xcf\x17\x05\x13\x92y\x12@'
p1098
tp1099
Rp1100
sI10
F0.6678198666132326
sI27
F1.0501658507547642
ssI1
(dp1101
I16
g3
(g7
S'\t\x90\x95*9Z\r@'
p1102
tp1103
Rp1104
sI34
F1.5178056979893848
sI71
g3
(g7
S'\xd2\xc1\xc0R8\x03\xfb?'
p1105
tp1106
Rp1107
sI88
F0.0
sI58
F0.20159122145107822
sI79
F3.2133553248460265
ssI2
(dp1108
I98
F2.6593064834164224
sI100
F1.8155749804098953
sI86
F3.188217333805702
sI6
g3
(g7
S'\xba\xd6\x9c\xd8p\x04\x03@'
p1109
tp1110
Rp1111
sI13
F0.0
sI21
F3.0544695805299735
sI54
g3
(g7
S'\xbc\x05\x12\xa9\xa9\x1a\x01@'
p1112
tp1113
Rp1114
sI23
F0.5084551417077867
ssI3
(dp1115
I64
g3
(g7
S'\x85\x16\x1f\x97\x14\x1e @'
p1116
tp1117
Rp1118
sI1
F3.373723951459618
sI3
F5.611242104126733
sI4
F0.0
sI72
g3
(g7
S'\xc8X)X\xdex\xef?'
p1119
tp1120
Rp1121
sI77
F0.7591044928415849
sI83
F5.790837221649067
sI22
F1.7526623053472778
sI23
F4.681343510917825
sI94
F5.401264114961454
sI99
F0.0
sI46
F0.29723885911855713
sI50
F1.7153593454564198
sI51
F0.7403026220504098
sI56
g3
(g7
S'\xbc\xe6E\xd6\xa6\x91\x1c@'
p1122
tp1123
Rp1124
sI60
F1.2903082251948461
sI61
F3.6836130828103713
ssI4
(dp1125
I69
g3
(g7
S'\x10J0\xd2\xf2\xe5\x11@'
p1126
tp1127
Rp1128
sI41
F4.526600805834843
sI76
F1.4184709901265253
sI78
F0.5521636038403477
sI16
F0.0
sI20
F3.1105037957886963
sI53
F0.0
sI54
F5.505364695312973
sI87
F0.0
sI59
g3
(g7
S'\x88A\x93}\x89E\x05@'
p1129
tp1130
Rp1131
sI60
g3
(g7
S'\xe8e\x8by#\xce\x08@'
p1132
tp1133
Rp1134
sI62
F1.1106741382153962
sI85
F1.835133396084917
ssI5
(dp1135
I27
F0.3188312727034308
sI21
F0.0
sI6
F0.0
ssI6
(dp1136
I66
F0.0
sI67
F0.0
ssI7
(dp1137
I70
F0.7986059880941969
sI11
g3
(g7
S'\x98\xd5\x00\r\xf1\xfd\x12@'
p1138
tp1139
Rp1140
sI13
F0.5082737082470501
sI78
F3.034899659522904
sI80
g3
(g7
S'\xb3S\x1e\xf7\x85d\xf0?'
p1141
tp1142
Rp1143
sI82
F4.63367519161995
sI23
F3.857339590706453
sI24
g3
(g7
S'\xc4\xbfo\xfc>u\t@'
p1144
tp1145
Rp1146
sI89
F0.5436360242340704
sI58
F1.6810252561486918
sI30
F0.4266041126776481
ssI8
(dp1147
I34
F0.6722996493401243
sI100
F0.8124323588008394
sI69
g3
(g7
S'\xc8a\x88g\x90V\xe7?'
p1148
tp1149
Rp1150
sI42
F1.4216075372953725
sI76
F4.7041101156691045
sI16
F0.07743358770502083
sI49
g3
(g7
S'<\x1eA\x98\xf1\xc7\x0e@'
p1151
tp1152
Rp1153
sI53
F0.7238168527204906
sI54
F0.5551342950456118
sI87
F0.5874282639950854
sI59
g3
(g7
S'~\x8d\xec}\x84\x9e\x06@'
p1154
tp1155
Rp1156
sI60
g3
(g7
S'O\x8f\x9e\xe8\xb5j\x1a@'
p1157
tp1158
Rp1159
sI93
F0.9986507928620268
ssI9
(dp1160
I69
g3
(g7
S'\x05\xef\xc8gEt\x04@'
p1161
tp1162
Rp1163
sI39
F1.2630141415440665
sI41
F0.7678229652295625
sI43
F1.3649696546177328
sI76
F0.0
sI77
F1.1743407168965567
sI16
F1.5081936660164372
sI49
g3
(g7
S'\x12\x16\\6\xff+\x11@'
p1164
tp1165
Rp1166
sI53
F1.3059252445439042
sI54
F0.42282343951427137
sI87
F0.0
sI59
g3
(g7
S'\xdb-\xf5\x9c\x92\xf4\xf6?'
p1167
tp1168
Rp1169
sI60
g3
(g7
S'i\xe8\xc3\x95{\xf6\x03@'
p1170
tp1171
Rp1172
ssI10
(dp1173
I35
F0.49411024882724663
sI67
g3
(g7
S'b9\xb5\xbb\x80\xe8\xfe?'
p1174
tp1175
Rp1176
sI37
F2.989361649086267
ssI11
(dp1177
I33
g3
(g7
S'\x0b3C\x01\xb3f\x10@'
p1178
tp1179
Rp1180
sI63
g3
(g7
S'\x8a\xbdP\x0c\xb2<\x00@'
p1181
tp1182
Rp1183
sI84
g3
(g7
S'7\xea\xba\xce\xe6\x17\n@'
p1184
tp1185
Rp1186
sI49
F0.0
sI7
g3
(g7
S'$\x08\xa3mS\xb0\x05@'
p1187
tp1188
Rp1189
ssI12
(dp1190
I97
g3
(g7
S'\xf3\x03\xdb\xd1\xaf\xf5\xf8?'
p1191
tp1192
Rp1193
sI34
F3.733934435989339
sI35
g3
(g7
S'q\xfb\xdf\x17\x80\xf0\n@'
p1194
tp1195
Rp1196
sI4
F1.7773009965547721
sI71
F0.9635864474620317
sI40
F1.1892953655460365
sI9
F2.3930573011183447
sI46
F0.0
sI16
g3
(g7
S'\xa6\xb3\x03fN&\x14@'
p1197
tp1198
Rp1199
sI20
F0.0
sI87
F0.0
sI91
F2.911745338353917
sI60
g3
(g7
S'\xc7.\xf0\xdc\xa3\xab\xf6?'
p1200
tp1201
Rp1202
ssI13
(dp1203
I69
g3
(g7
S'\x963-u\x9a@\xec?'
p1204
tp1205
Rp1206
sI71
F0.22962196060924056
sI41
F0.0
sI76
F0.0
sI45
F1.5384634921905465
sI16
F0.4193140580357796
sI20
F0.0
sI53
F3.1685338389720465
sI54
F3.595505275302777
sI87
F1.71053077437854
sI59
g3
(g7
S'zv\xeb<B\x0b\x0f@'
p1207
tp1208
Rp1209
sI60
g3
(g7
S'\x05FB\xc9r\xa1\xec?'
p1210
tp1211
Rp1212
ssI14
(dp1213
I38
F0.9903079507653724
sI14
g3
(g7
S'\x96r}\x170h\x03@'
p1214
tp1215
Rp1216
ssI15
(dp1217
I57
g3
(g7
S'\xc0V\xf6\x06\x18\x9d\xf8?'
p1218
tp1219
Rp1220
sI43
F0.0
sI44
g3
(g7
S'\xd4A\x92\x8b\xab\xa8\xf5?'
p1221
tp1222
Rp1223
sI61
F0.0
sI39
g3
(g7
S'\x7f\xfbcb\xb0\x93\x05@'
p1224
tp1225
Rp1226
ssI16
(dp1227
I64
F0.4607498617604329
sI51
g3
(g7
S'V\xe9oy\xf0K\x08@'
p1228
tp1229
Rp1230
sI66
g3
(g7
S'\xe0\xc5Z\x12\xee\x9e\xf6?'
p1231
tp1232
Rp1233
sI19
g3
(g7
S'p\xd1\xa2\xf47|\xf6?'
p1234
tp1235
Rp1236
sI86
F0.9733323180093636
sI29
F0.0
sI78
F0.0
ssI17
(dp1237
I49
g3
(g7
S'V\x89\x82\xa6d\xa4\xf8?'
p1238
tp1239
Rp1240
sI5
g3
(g7
S'\x9emC\xee\x13\xcf\x05@'
p1241
tp1242
Rp1243
sI55
F0.700682520581425
sI73
F0.0
sI58
F0.6083744682030486
sI23
F0.0
ssI18
(dp1244
I16
g3
(g7
S'\x93\xc2\xbd\xd4\x96w\xf6?'
p1245
tp1246
Rp1247
sI97
g3
(g7
S'*\xd5\xf2\n~\xb3\xfc?'
p1248
tp1249
Rp1250
sI5
F0.0
sI23
g3
(g7
S'\x80/\x81\xa4P\xfe\xe8?'
p1251
tp1252
Rp1253
sI92
g3
(g7
S'`\xa0\n\xd3\xa3\x18\xfb?'
p1254
tp1255
Rp1256
sI46
g3
(g7
S'\xb9\xc2F\x16\x96\x9d\x00@'
p1257
tp1258
Rp1259
ssI19
(dp1260
I97
F0.0
sI92
g3
(g7
S'\x1a-\xd7\xd3\xed\xce\xd1?'
p1261
tp1262
Rp1263
sI5
g3
(g7
S'zv\x97\x9b\xdd\x11\xf6?'
p1264
tp1265
Rp1266
sI46
g3
(g7
S'\xa4"UU\xc0\xe1\xe6?'
p1267
tp1268
Rp1269
sI23
g3
(g7
S'\xfa\x12Dr\xb2[\xe0?'
p1270
tp1271
Rp1272
ssI20
(dp1273
I97
g3
(g7
S'A/y\x93\x01\xfc\xf0?'
p1274
tp1275
Rp1276
sI34
F1.8306947552884776
sI35
g3
(g7
S'\xa3f\xad\xf9I\xc5\x00@'
p1277
tp1278
Rp1279
sI40
F1.4237348087455053
sI9
F1.040416087210851
sI46
F2.1970845802623336
sI16
g3
(g7
S'\xc1$\x7f\xc3\xc4\xc1\x0b@'
p1280
tp1281
Rp1282
sI20
F0.06585007180789994
sI87
F0.0
sI91
F0.17425895607097702
sI60
g3
(g7
S'\xaf\x82\x06\xa2RI\x06@'
p1283
tp1284
Rp1285
ssI21
(dp1286
I32
g3
(g7
S'\xee2\x0fE\x87\xd9\xf3?'
p1287
tp1288
Rp1289
sI57
F0.0
sI62
F1.394069360283945
sI30
F0.0
ssI22
(dp1290
I97
g3
(g7
S'\x9as/\xfc\xc7\xf8\xfe?'
p1291
tp1292
Rp1293
sI34
F3.168056146357644
sI35
g3
(g7
S'l\x1f\x1aJ\xf9\xb6\x06@'
p1294
tp1295
Rp1296
sI4
F1.7924740357271642
sI40
F0.0
sI9
F1.2853621177951977
sI16
g3
(g7
S'\xe8J\x01}\xeep\x07@'
p1297
tp1298
Rp1299
sI20
F0.9381678024457442
sI87
F0.7591264790127681
sI91
F0.3672833330579186
sI60
g3
(g7
S'\x9fh\xc2\x02\x92R\xf5?'
p1300
tp1301
Rp1302
ssI23
(dp1303
I66
g3
(g7
S'\x87P;\\\xa9\xba\xe4?'
p1304
tp1305
Rp1306
sI68
F0.26082224658120445
sI37
F8.125255088699879
ssI24
(dp1307
I64
g3
(g7
S'\x07\xa8\x9a\x9d\x08\xf9\x15@'
p1308
tp1309
Rp1310
sI1
F2.0745656184254853
sI83
F3.605464645458428
sI3
F3.1856938990126813
sI4
F2.091988133213141
sI72
g3
(g7
S'\x8e}\xd6\xbaY\x84\xde?'
p1311
tp1312
Rp1313
sI77
F4.118197231297172
sI46
F0.395315683893509
sI99
F1.7794271462849554
sI50
F2.612214051983954
sI51
F1.134431284733037
sI23
F3.798871195845147
sI56
g3
(g7
S'aa\x8b&I\x1e\x1c@'
p1314
tp1315
Rp1316
sI61
F3.2334122146740305
sI94
F2.5852873497467543
ssI25
(dp1317
I33
F0.0
sI4
F0.0
sI10
F0.0
sI76
g3
(g7
S'G\xe9\xe8\x04\xd5\x1a\xea?'
p1318
tp1319
Rp1320
sI14
g3
(g7
S'\x1c.\xfcP\x8c5\xdc?'
p1321
tp1322
Rp1323
sI15
g3
(g7
S'\xb2\x10$\xaf7\xe5\x00@'
p1324
tp1325
Rp1326
sI68
g3
(g7
S"\xea\xd6\x8d\xe7\xc0'\xfb?"
p1327
tp1328
Rp1329
sI42
F0.0
ssI26
(dp1330
I70
F1.1441090568401089
sI11
g3
(g7
S'\xcc^\x85Z\x9fa\x15@'
p1331
tp1332
Rp1333
sI13
F0.0
sI78
F0.16601989643710668
sI80
g3
(g7
S'\xce\xd7xt\xef\xac\xec?'
p1334
tp1335
Rp1336
sI82
F3.370164322849023
sI14
F0.9309465355566887
sI23
F3.3238172655996827
sI24
g3
(g7
S'\x1a<\xf2*\xd9\xa4\x0b@'
p1337
tp1338
Rp1339
sI58
F1.1538216361409308
sI30
F0.6554463813703315
sssI148
(dp1340
I0
(dp1341
I48
F3.2535274822772506
sI88
g1100
sI52
F1.3802579385137665
sI8
F0.0
sI10
F0.6678198666132326
sI27
F1.0501658507547642
ssI1
(dp1342
I16
g1104
sI34
F1.5178056979893848
sI71
g1107
sI88
F0.0
sI58
F0.20159122145107822
sI79
F3.2133553248460265
ssI2
(dp1343
I98
F2.6593064834164224
sI100
F1.8155749804098953
sI54
g1114
sI6
g1111
sI13
F0.0
sI21
F3.0544695805299735
sI86
F3.188217333805702
sI23
F0.5084551417077867
ssI3
(dp1344
I64
g1118
sI1
F3.373723951459618
sI3
F5.611242104126733
sI4
F0.0
sI72
g1121
sI77
F0.7591044928415849
sI83
F5.790837221649067
sI22
F1.7526623053472778
sI23
F4.681343510917825
sI94
F5.401264114961454
sI99
F0.0
sI46
F0.29723885911855713
sI50
F1.7153593454564198
sI51
F0.7403026220504098
sI56
g1124
sI60
F1.2903082251948461
sI61
F3.6836130828103713
ssI4
(dp1345
I69
g1128
sI41
F4.526600805834843
sI76
F1.4184709901265253
sI78
F0.5521636038403477
sI16
F0.0
sI20
F3.1105037957886963
sI53
F0.0
sI54
F5.505364695312973
sI87
F0.0
sI59
g1131
sI60
g1134
sI62
F1.1106741382153962
sI85
F1.835133396084917
ssI5
(dp1346
I27
F0.3188312727034308
sI21
F0.0
sI6
F0.0
ssI6
(dp1347
I66
F0.0
sI67
F0.0
ssI7
(dp1348
I70
F0.7986059880941969
sI11
g1140
sI13
F0.5082737082470501
sI78
F3.034899659522904
sI80
g1143
sI82
F4.63367519161995
sI23
F3.857339590706453
sI24
g1146
sI89
F0.5436360242340704
sI58
F1.6810252561486918
sI30
F0.4266041126776481
ssI8
(dp1349
I34
F0.6722996493401243
sI100
F0.8124323588008394
sI69
g1150
sI42
F1.4216075372953725
sI76
F4.7041101156691045
sI16
F0.07743358770502083
sI49
g1153
sI53
F0.7238168527204906
sI54
F0.5551342950456118
sI87
F0.5874282639950854
sI59
g1156
sI60
g1159
sI93
F0.9986507928620268
ssI9
(dp1350
I69
g1163
sI39
F1.2630141415440665
sI41
F0.7678229652295625
sI43
F1.3649696546177328
sI76
F0.0
sI77
F1.1743407168965567
sI16
F1.5081936660164372
sI49
g1166
sI53
F1.3059252445439042
sI54
F0.42282343951427137
sI87
F0.0
sI59
g1169
sI60
g1172
ssI10
(dp1351
I67
g1176
sI35
F0.49411024882724663
sI37
F2.989361649086267
ssI11
(dp1352
I33
g1180
sI7
g1189
sI84
g1186
sI49
F0.0
sI63
g1183
ssI12
(dp1353
I97
g1193
sI34
F3.733934435989339
sI35
g1196
sI4
F1.7773009965547721
sI71
F0.9635864474620317
sI40
F1.1892953655460365
sI9
F2.3930573011183447
sI46
F0.0
sI16
g1199
sI20
F0.0
sI87
F0.0
sI91
F2.911745338353917
sI60
g1202
ssI13
(dp1354
I69
g1206
sI71
F0.22962196060924056
sI41
F0.0
sI76
F0.0
sI45
F1.5384634921905465
sI16
F0.4193140580357796
sI20
F0.0
sI53
F3.1685338389720465
sI54
F3.595505275302777
sI87
F1.71053077437854
sI59
g1209
sI60
g1212
ssI14
(dp1355
I14
g1216
sI38
F0.9903079507653724
ssI15
(dp1356
I57
g1220
sI43
F0.0
sI44
g1223
sI61
F0.0
sI39
g1226
ssI16
(dp1357
I64
F0.4607498617604329
sI19
g1236
sI66
g1233
sI51
g1230
sI86
F0.9733323180093636
sI29
F0.0
sI78
F0.0
ssI17
(dp1358
I49
g1240
sI5
g1243
sI55
F0.700682520581425
sI73
F0.0
sI58
F0.6083744682030486
sI23
F0.0
ssI18
(dp1359
I16
g1247
sI97
g1250
sI5
F0.0
sI23
g1253
sI92
g1256
sI46
g1259
ssI19
(dp1360
I97
F0.0
sI92
g1263
sI5
g1266
sI46
g1269
sI23
g1272
ssI20
(dp1361
I97
g1276
sI34
F1.8306947552884776
sI35
g1279
sI40
F1.4237348087455053
sI9
F1.040416087210851
sI46
F2.1970845802623336
sI16
g1282
sI20
F0.06585007180789994
sI87
F0.0
sI91
F0.17425895607097702
sI60
g1285
ssI21
(dp1362
I32
g1289
sI57
F0.0
sI30
F0.0
sI62
F1.394069360283945
ssI22
(dp1363
I97
g1293
sI34
F3.168056146357644
sI35
g1296
sI4
F1.7924740357271642
sI40
F0.0
sI9
F1.2853621177951977
sI16
g1299
sI20
F0.9381678024457442
sI87
F0.7591264790127681
sI91
F0.3672833330579186
sI60
g1302
ssI23
(dp1364
I66
g1306
sI68
F0.26082224658120445
sI37
F8.125255088699879
ssI24
(dp1365
I64
g1310
sI1
F2.0745656184254853
sI3
F3.1856938990126813
sI4
F2.091988133213141
sI51
F1.134431284733037
sI72
g1313
sI77
F4.118197231297172
sI46
F0.395315683893509
sI99
F1.7794271462849554
sI50
F2.612214051983954
sI83
F3.605464645458428
sI23
F3.798871195845147
sI56
g1316
sI61
F3.2334122146740305
sI94
F2.5852873497467543
ssI25
(dp1366
I33
F0.0
sI4
F0.0
sI10
F0.0
sI76
g1320
sI14
g1323
sI15
g1326
sI68
g1329
sI42
F0.0
ssI26
(dp1367
I70
F1.1441090568401089
sI11
g1333
sI13
F0.0
sI78
F0.16601989643710668
sI80
g1336
sI82
F3.370164322849023
sI14
F0.9309465355566887
sI23
F3.3238172655996827
sI24
g1339
sI58
F1.1538216361409308
sI30
F0.6554463813703315
ssI27
(dp1368
I14
g1216
sI38
F0.9903079507653724
sssI149
(dp1369
I0
(dp1370
I48
F3.2535274822772506
sI88
g1100
sI52
F1.3802579385137665
sI8
F0.0
sI10
F0.6678198666132326
sI27
F1.0501658507547642
ssI1
(dp1371
I16
g1104
sI34
F1.5178056979893848
sI71
g1107
sI88
F0.0
sI58
F0.20159122145107822
sI79
F3.2133553248460265
ssI2
(dp1372
I98
F2.6593064834164224
sI100
F1.8155749804098953
sI54
g1114
sI6
g1111
sI13
F0.0
sI21
F3.0544695805299735
sI86
F3.188217333805702
sI23
F0.5084551417077867
ssI3
(dp1373
I64
g1118
sI1
F3.373723951459618
sI3
F5.611242104126733
sI4
F0.0
sI72
g1121
sI77
F0.7591044928415849
sI83
F5.790837221649067
sI22
F1.7526623053472778
sI23
F4.681343510917825
sI94
F5.401264114961454
sI99
F0.0
sI46
F0.29723885911855713
sI50
F1.7153593454564198
sI51
F0.7403026220504098
sI56
g1124
sI60
F1.2903082251948461
sI61
F3.6836130828103713
ssI4
(dp1374
I69
g1128
sI41
F4.526600805834843
sI76
F1.4184709901265253
sI78
F0.5521636038403477
sI16
F0.0
sI20
F3.1105037957886963
sI53
F0.0
sI54
F5.505364695312973
sI87
F0.0
sI59
g1131
sI60
g1134
sI62
F1.1106741382153962
sI85
F1.835133396084917
ssI5
(dp1375
I27
F0.3188312727034308
sI21
F0.0
sI6
F0.0
ssI6
(dp1376
I66
F0.0
sI67
F0.0
ssI7
(dp1377
I70
F0.7986059880941969
sI11
g1140
sI13
F0.5082737082470501
sI78
F3.034899659522904
sI80
g1143
sI82
F4.63367519161995
sI23
F3.857339590706453
sI24
g1146
sI89
F0.5436360242340704
sI58
F1.6810252561486918
sI30
F0.4266041126776481
ssI8
(dp1378
I34
F0.6722996493401243
sI100
F0.8124323588008394
sI69
g1150
sI42
F1.4216075372953725
sI76
F4.7041101156691045
sI16
F0.07743358770502083
sI49
g1153
sI53
F0.7238168527204906
sI54
F0.5551342950456118
sI87
F0.5874282639950854
sI59
g1156
sI60
g1159
sI93
F0.9986507928620268
ssI9
(dp1379
I69
g1163
sI39
F1.2630141415440665
sI41
F0.7678229652295625
sI43
F1.3649696546177328
sI76
F0.0
sI77
F1.1743407168965567
sI16
F1.5081936660164372
sI49
g1166
sI53
F1.3059252445439042
sI54
F0.42282343951427137
sI87
F0.0
sI59
g1169
sI60
g1172
ssI10
(dp1380
I67
g1176
sI35
F0.49411024882724663
sI37
F2.989361649086267
ssI11
(dp1381
I33
g1180
sI7
g1189
sI84
g1186
sI49
F0.0
sI63
g1183
ssI12
(dp1382
I97
g1193
sI34
F3.733934435989339
sI35
g1196
sI4
F1.7773009965547721
sI71
F0.9635864474620317
sI40
F1.1892953655460365
sI9
F2.3930573011183447
sI46
F0.0
sI16
g1199
sI20
F0.0
sI87
F0.0
sI91
F2.911745338353917
sI60
g1202
ssI13
(dp1383
I69
g1206
sI71
F0.22962196060924056
sI41
F0.0
sI76
F0.0
sI45
F1.5384634921905465
sI16
F0.4193140580357796
sI20
F0.0
sI53
F3.1685338389720465
sI54
F3.595505275302777
sI87
F1.71053077437854
sI59
g1209
sI60
g1212
ssI14
(dp1384
I14
g1216
sI38
F0.9903079507653724
ssI15
(dp1385
I57
g1220
sI43
F0.0
sI44
g1223
sI61
F0.0
sI39
g1226
ssI16
(dp1386
I64
F0.4607498617604329
sI19
g1236
sI66
g1233
sI51
g1230
sI86
F0.9733323180093636
sI29
F0.0
sI78
F0.0
ssI17
(dp1387
I49
g1240
sI5
g1243
sI55
F0.700682520581425
sI73
F0.0
sI58
F0.6083744682030486
sI23
F0.0
ssI18
(dp1388
I16
g1247
sI97
g1250
sI5
F0.0
sI23
g1253
sI92
g1256
sI46
g1259
ssI19
(dp1389
I97
F0.0
sI92
g1263
sI5
g1266
sI46
g1269
sI23
g1272
ssI20
(dp1390
I97
g1276
sI34
F1.8306947552884776
sI35
g1279
sI40
F1.4237348087455053
sI9
F1.040416087210851
sI46
F2.1970845802623336
sI16
g1282
sI20
F0.06585007180789994
sI87
F0.0
sI91
F0.17425895607097702
sI60
g1285
ssI21
(dp1391
I32
g1289
sI57
F0.0
sI30
F0.0
sI62
F1.394069360283945
ssI22
(dp1392
I97
g1293
sI34
F3.168056146357644
sI35
g1296
sI4
F1.7924740357271642
sI40
F0.0
sI9
F1.2853621177951977
sI16
g1299
sI20
F0.9381678024457442
sI87
F0.7591264790127681
sI91
F0.3672833330579186
sI60
g1302
ssI23
(dp1393
I66
g1306
sI68
F0.26082224658120445
sI37
F8.125255088699879
ssI24
(dp1394
I64
g1310
sI1
F2.0745656184254853
sI3
F3.1856938990126813
sI4
F2.091988133213141
sI51
F1.134431284733037
sI72
g1313
sI77
F4.118197231297172
sI46
F0.395315683893509
sI99
F1.7794271462849554
sI50
F2.612214051983954
sI83
F3.605464645458428
sI23
F3.798871195845147
sI56
g1316
sI61
F3.2334122146740305
sI94
F2.5852873497467543
ssI25
(dp1395
I33
F0.0
sI4
F0.0
sI10
F0.0
sI76
g1320
sI14
g1323
sI15
g1326
sI68
g1329
sI42
F0.0
ssI26
(dp1396
I70
F1.1441090568401089
sI11
g1333
sI13
F0.0
sI78
F0.16601989643710668
sI80
g1336
sI82
F3.370164322849023
sI14
F0.9309465355566887
sI23
F3.3238172655996827
sI24
g1339
sI58
F1.1538216361409308
sI30
F0.6554463813703315
ssI27
(dp1397
I70
F0.7986059880941969
sI11
g1140
sI13
F0.5082737082470501
sI78
F3.034899659522904
sI80
g1143
sI82
F4.63367519161995
sI23
F3.857339590706453
sI24
g1146
sI89
F0.5436360242340704
sI58
F1.6810252561486918
sI30
F0.4266041126776481
sssI150
(dp1398
I0
(dp1399
I48
F3.2535274822772506
sI88
g1100
sI52
F1.3802579385137665
sI8
F0.0
sI10
F0.6678198666132326
sI27
F1.0501658507547642
ssI1
(dp1400
I16
g1104
sI34
F1.5178056979893848
sI71
g1107
sI88
F0.0
sI58
F0.20159122145107822
sI79
F3.2133553248460265
ssI2
(dp1401
I98
F2.6593064834164224
sI100
F1.8155749804098953
sI54
g1114
sI6
g1111
sI13
F0.0
sI21
F3.0544695805299735
sI86
F3.188217333805702
sI23
F0.5084551417077867
ssI3
(dp1402
I64
g1118
sI1
F3.373723951459618
sI3
F5.611242104126733
sI4
F0.0
sI72
g1121
sI77
F0.7591044928415849
sI83
F5.790837221649067
sI22
F1.7526623053472778
sI23
F4.681343510917825
sI94
F5.401264114961454
sI99
F0.0
sI46
F0.29723885911855713
sI50
F1.7153593454564198
sI51
F0.7403026220504098
sI56
g1124
sI60
F1.2903082251948461
sI61
F3.6836130828103713
ssI4
(dp1403
I69
g1128
sI41
F4.526600805834843
sI76
F1.4184709901265253
sI78
F0.5521636038403477
sI16
F0.0
sI20
F3.1105037957886963
sI53
F0.0
sI54
F5.505364695312973
sI87
F0.0
sI59
g1131
sI60
g1134
sI62
F1.1106741382153962
sI85
F1.835133396084917
ssI5
(dp1404
I27
F0.3188312727034308
sI21
F0.0
sI6
F0.0
ssI6
(dp1405
I66
F0.0
sI67
F0.0
ssI7
(dp1406
I70
F0.7986059880941969
sI11
g1140
sI13
F0.5082737082470501
sI78
F3.034899659522904
sI80
g1143
sI82
F4.63367519161995
sI23
F3.857339590706453
sI24
g1146
sI89
F0.5436360242340704
sI58
F1.6810252561486918
sI30
F0.4266041126776481
ssI8
(dp1407
I34
F0.6722996493401243
sI100
F0.8124323588008394
sI69
g1150
sI42
F1.4216075372953725
sI76
F4.7041101156691045
sI16
F0.07743358770502083
sI49
g1153
sI53
F0.7238168527204906
sI54
F0.5551342950456118
sI87
F0.5874282639950854
sI59
g1156
sI60
g1159
sI93
F0.9986507928620268
ssI9
(dp1408
I69
g3
(g7
S'\xb6\x8bb\x18\xf2L\x14@'
p1409
tp1410
Rp1411
sI38
F0.6511072532770804
sI39
F1.9512876511076822
sI41
F0.6285988178332957
sI43
F2.170337773589873
sI76
F0.0
sI77
F0.0
sI16
F1.3321094467477022
sI49
g3
(g7
S'j-!}R9\x10@'
p1412
tp1413
Rp1414
sI53
F1.5793563372570236
sI54
F2.894456439742915
sI87
F0.0
sI59
g3
(g7
S'\xf4\x85\xbaE\xcb(\x00@'
p1415
tp1416
Rp1417
sI60
g3
(g7
S'A\x8f\x8b\xe5;\xcd\xff?'
p1418
tp1419
Rp1420
ssI10
(dp1421
I67
g1176
sI35
F0.49411024882724663
sI37
F2.989361649086267
ssI11
(dp1422
I33
g1180
sI7
g1189
sI84
g1186
sI49
F0.0
sI63
g1183
ssI12
(dp1423
I97
g1193
sI34
F3.733934435989339
sI35
g1196
sI4
F1.7773009965547721
sI71
F0.9635864474620317
sI40
F1.1892953655460365
sI9
F2.3930573011183447
sI46
F0.0
sI16
g1199
sI20
F0.0
sI87
F0.0
sI91
F2.911745338353917
sI60
g1202
ssI13
(dp1424
I69
g1206
sI71
F0.22962196060924056
sI41
F0.0
sI76
F0.0
sI45
F1.5384634921905465
sI16
F0.4193140580357796
sI20
F0.0
sI53
F3.1685338389720465
sI54
F3.595505275302777
sI87
F1.71053077437854
sI59
g1209
sI60
g1212
ssI14
(dp1425
I14
g1216
sI38
F0.9903079507653724
ssI15
(dp1426
I57
g1220
sI43
F0.0
sI44
g1223
sI61
F0.0
sI39
g1226
ssI16
(dp1427
I64
F0.4607498617604329
sI19
g1236
sI66
g1233
sI51
g1230
sI86
F0.9733323180093636
sI29
F0.0
sI78
F0.0
ssI17
(dp1428
I49
g1240
sI5
g1243
sI55
F0.700682520581425
sI73
F0.0
sI58
F0.6083744682030486
sI23
F0.0
ssI18
(dp1429
I16
g1247
sI97
g1250
sI5
F0.0
sI23
g1253
sI92
g1256
sI46
g1259
ssI19
(dp1430
I97
F0.0
sI92
g1263
sI5
g1266
sI46
g1269
sI23
g1272
ssI20
(dp1431
I97
g1276
sI34
F1.8306947552884776
sI35
g1279
sI40
F1.4237348087455053
sI9
F1.040416087210851
sI46
F2.1970845802623336
sI16
g1282
sI20
F0.06585007180789994
sI87
F0.0
sI91
F0.17425895607097702
sI60
g1285
ssI21
(dp1432
I32
g1289
sI57
F0.0
sI30
F0.0
sI62
F1.394069360283945
ssI22
(dp1433
I97
g1293
sI34
F3.168056146357644
sI35
g1296
sI4
F1.7924740357271642
sI40
F0.0
sI9
F1.2853621177951977
sI16
g1299
sI20
F0.9381678024457442
sI87
F0.7591264790127681
sI91
F0.3672833330579186
sI60
g1302
ssI23
(dp1434
I66
g1306
sI68
F0.26082224658120445
sI37
F8.125255088699879
ssI24
(dp1435
I64
g1310
sI1
F2.0745656184254853
sI3
F3.1856938990126813
sI4
F2.091988133213141
sI51
F1.134431284733037
sI72
g1313
sI77
F4.118197231297172
sI46
F0.395315683893509
sI99
F1.7794271462849554
sI50
F2.612214051983954
sI83
F3.605464645458428
sI23
F3.798871195845147
sI56
g1316
sI61
F3.2334122146740305
sI94
F2.5852873497467543
ssI25
(dp1436
I33
F0.0
sI4
F0.0
sI10
F0.0
sI76
g1320
sI14
g1323
sI15
g1326
sI68
g1329
sI42
F0.0
ssI26
(dp1437
I70
F1.1441090568401089
sI11
g1333
sI13
F0.0
sI78
F0.16601989643710668
sI80
g1336
sI82
F3.370164322849023
sI14
F0.9309465355566887
sI23
F3.3238172655996827
sI24
g1339
sI58
F1.1538216361409308
sI30
F0.6554463813703315
ssI27
(dp1438
I70
F0.7986059880941969
sI11
g1140
sI13
F0.5082737082470501
sI78
F3.034899659522904
sI80
g1143
sI82
F4.63367519161995
sI23
F3.857339590706453
sI24
g1146
sI89
F0.5436360242340704
sI58
F1.6810252561486918
sI30
F0.4266041126776481
sssI151
(dp1439
I0
(dp1440
I48
F4.829680243508324
sI81
F1.3739973367183378
sI52
F0.7923563869519049
sI8
F0.0
sI88
g3
(g7
S'\x13H\xb2e\x1c\x8f\x0e@'
p1441
tp1442
Rp1443
sI27
F0.9442475179485998
ssI1
(dp1444
I16
g3
(g7
S'A\xf1\xe9\x17\x7fA\xf8?'
p1445
tp1446
Rp1447
sI33
F0.5755039671110906
sI34
F0.8763812515110696
sI71
g3
(g7
S'\x1c\x13\x8d\x86L\x0c\x14@'
p1448
tp1449
Rp1450
sI56
F0.3830419393617399
sI88
g3
(g7
S'L\xae\x8d\xfe_\x8e\x03@'
p1451
tp1452
Rp1453
sI79
F1.635035734301938
ssI2
(dp1454
I97
F3.664402411280532
sI98
F0.2697318201961467
sI100
F1.0644537072075901
sI54
g3
(g7
S'BD \x0c\xd7\xae\x03@'
p1455
tp1456
Rp1457
sI6
g3
(g7
S'\r\xcc\x97\xb9\xc8i\n@'
p1458
tp1459
Rp1460
sI13
F0.01053391608887123
sI21
F3.430243157296379
sI86
F2.5993273250609055
ssI3
(dp1461
I64
g3
(g7
S'\x87\xa4\xc5!\xe6\x02\x1a@'
p1462
tp1463
Rp1464
sI1
F2.92483672772087
sI4
F2.069044900856351
sI72
g3
(g7
S'BA3\x07*\x8c\t@'
p1465
tp1466
Rp1467
sI77
F0.06299879657266866
sI83
F5.224486000707028
sI22
F0.0
sI23
F0.0
sI94
F3.2849070829731044
sI99
F1.3412779731806976
sI46
F3.259797833386508
sI50
F1.5587857019093205
sI51
F0.4206944955180942
sI56
g3
(g7
S'\xd2A\x14d\xc6\xb0\x1c@'
p1468
tp1469
Rp1470
sI60
F3.9005305513521584
sI61
F2.2816792911405073
ssI4
(dp1471
I69
g3
(g7
S'\x18\xc7\xd6\xda\xe7\x90\x10@'
p1472
tp1473
Rp1474
sI41
F5.5917742805231665
sI76
F2.469525094406866
sI78
F2.98509631913846
sI16
F0.1147422499846692
sI20
F2.9007253821192407
sI53
F0.26273478802394645
sI54
F4.9460563496251035
sI87
F0.7658083184795995
sI25
F0.9333576773476083
sI59
g3
(g7
S'\xb7\n\x83\xd1\xb9\xd9\xf1?'
p1475
tp1476
Rp1477
sI60
g3
(g7
S'\x973:\xec\x99\xed\x14@'
p1478
tp1479
Rp1480
sI62
F0.0
sI85
F1.6325979888152293
ssI5
(dp1481
I36
F0.9694109702078543
sI21
F0.0
sI6
F0.41588024981820465
sI79
F0.0
ssI6
(dp1482
I66
F0.36195554512788597
sI67
F0.0
ssI7
(dp1483
I70
F0.0
sI11
g3
(g7
S'<\x86\x82w&>\x13@'
p1484
tp1485
Rp1486
sI13
F0.0
sI78
F1.857472832664998
sI80
g3
(g7
S'\xd4\xe8\xa4\x91\x18\xd8\x01@'
p1487
tp1488
Rp1489
sI82
F3.4921682523009703
sI24
g3
(g7
S'\xc6)\x96\x14\xc0\xf1\xf7?'
p1490
tp1491
Rp1492
sI58
F3.4986793067431865
sI30
F4.913971543614245
ssI8
(dp1493
I64
F0.87825878653305
sI100
F1.0241705542816044
sI69
g3
(g7
S'V_3\x0cdr\xf9?'
p1494
tp1495
Rp1496
sI7
F0.18025667318744132
sI42
F0.0
sI76
F4.665551233135604
sI16
F0.22541066577569724
sI49
g3
(g7
S'\x18\xe3f\x11\x8d\x89\xdd?'
p1497
tp1498
Rp1499
sI53
F3.1917041585218393
sI54
F0.0
sI87
F0.6779706148302032
sI59
g3
(g7
S'\xfe\x1e$\xc5\x88\xce\x14@'
p1500
tp1501
Rp1502
sI60
g3
(g7
S'\t\xd3\x83-\x05\x10\x1a@'
p1503
tp1504
Rp1505
sI93
F2.9715139929945633
ssI9
(dp1506
I69
g3
(g7
S'\xf1R\xa0\x1b\x88\xb3\x07@'
p1507
tp1508
Rp1509
sI39
F0.0
sI41
F1.9844957097609934
sI43
F3.474340332497262
sI76
F0.6323951323200161
sI77
F2.0072599361383263
sI16
F2.552915678052597
sI53
F0.3874535718590185
sI54
F0.9739719743036913
sI87
F0.0
sI90
F0.3632530645530573
sI59
g3
(g7
S'p<R\xe7i\xfd\x05@'
p1510
tp1511
Rp1512
sI60
g3
(g7
S'\x86\xa0s\xac`\x84\xf1?'
p1513
tp1514
Rp1515
ssI10
(dp1516
I67
g3
(g7
S'\xd8-N\xf3 \xe7\xdc?'
p1517
tp1518
Rp1519
ssI11
(dp1520
I33
g3
(g7
S'\xdawU\xe8\xe7\xa5\x10@'
p1521
tp1522
Rp1523
sI49
F1.442353341744969
sI7
g3
(g7
S'\x0b\x1fO\x8f\rZ\x0c@'
p1524
tp1525
Rp1526
sI8
F0.5653327560020391
sI17
F2.9943745335444247
sI84
g3
(g7
S'\x84%6\x11_\x1b\x08@'
p1527
tp1528
Rp1529
sI91
F0.9370979998414363
sI63
g3
(g7
S'\x13\xbf\x1a\xe4\x0b\xe7\x00@'
p1530
tp1531
Rp1532
ssI12
(dp1533
I97
g3
(g7
S'\x1c\xe3\xda\xd1"\xd3\xe9?'
p1534
tp1535
Rp1536
sI34
F1.1303082662828947
sI35
g3
(g7
S'\xd1o\xd8\xadu4\x02@'
p1537
tp1538
Rp1539
sI4
F4.783345988411472
sI65
F0.9726980800612999
sI40
F1.1162204561180418
sI9
F2.9321891908192605
sI46
F0.5145352872780421
sI16
g3
(g7
S'\xa3KC3\xd73\xf0?'
p1540
tp1541
Rp1542
sI20
F0.0
sI87
F0.0
sI91
F2.0856144621324226
sI60
g3
(g7
S'\x00\xb3\xd2C\xa2y\xd8?'
p1543
tp1544
Rp1545
ssI13
(dp1546
I3
F0.0
sI68
F0.001896848314459021
sI69
g3
(g7
S'\xc0L\x9fw\xc7\xb1\xf8?'
p1547
tp1548
Rp1549
sI41
F0.5077097148530537
sI76
F0.0
sI45
F1.9453840290550783
sI16
F1.2039734893613145
sI20
F0.12434907716007322
sI53
F0.9479408843810342
sI54
F5.890617890297889
sI87
F0.3678486966425416
sI59
g3
(g7
S'\xefm\xdf\x16\xcb\xc8\x15@'
p1550
tp1551
Rp1552
sI60
g3
(g7
S'\xffk\xa7\xd1-r\x0b@'
p1553
tp1554
Rp1555
ssI14
(dp1556
I14
g3
(g7
S"B\x89\xe4'<\xf2\xec?"
p1557
tp1558
Rp1559
sI70
F0.27850922846778625
ssI15
(dp1560
I39
g3
(g7
S'\x0bDd\xecU4\xf0?'
p1561
tp1562
Rp1563
sI57
g3
(g7
S'\xa0\xe3\xd8\xc3\x91b\xcc?'
p1564
tp1565
Rp1566
sI43
F0.450866463188049
sI44
g3
(g7
S'PP:\xef\xe1\x85\xef?'
p1567
tp1568
Rp1569
sI29
g3
(g7
S'af$\xdff\x11\x12@'
p1570
tp1571
Rp1572
sI61
F0.0
ssI16
(dp1573
I64
F0.3333473058970742
sI51
g3
(g7
S'\x93\x93\x04\x98\xfd\t\x15@'
p1574
tp1575
Rp1576
sI19
g3
(g7
S'v\xf0\xb2\x8fy\xab\xfa?'
p1577
tp1578
Rp1579
sI78
F1.7872990915030569
ssI17
(dp1580
I73
F0.0
sI23
g3
(g7
S'QZ9\xd1\xe1\xd8\x04@'
p1581
tp1582
Rp1583
sI5
g3
(g7
S'\xa1\x7f\x00\xc8\xdf\xcd\xef?'
p1584
tp1585
Rp1586
sI85
F0.3854698300342081
sI55
F2.4885243575641036
ssI18
(dp1587
I97
g3
(g7
S'\x18\xc7@\x86w\xfe\xff?'
p1588
tp1589
Rp1590
sI5
g3
(g7
S'\x97\xee\xee1\xbab\xef?'
p1591
tp1592
Rp1593
sI70
F0.0
sI39
F0.7768723540710342
sI46
g3
(g7
S"'sG+l\xc1\x00@"
p1594
tp1595
Rp1596
sI16
F0.0
sI23
F0.0
sI92
g3
(g7
S'\xcc\xf6o\xa5e\xf1\xf4?'
p1597
tp1598
Rp1599
ssI19
(dp1600
I16
F1.488539122403733
sI97
F0.0
sI5
F1.9240978607786712
sI54
F1.3989733377935005
sI92
g3
(g7
S'\xdc\xc3\xf4\x88\xf7\xb8\xf1?'
p1601
tp1602
Rp1603
sI46
F0.0
ssI20
(dp1604
I97
g3
(g7
S'x\x9c\xaf7E\x01\x03@'
p1605
tp1606
Rp1607
sI34
F0.41387897642666305
sI35
g3
(g7
S'\xf4\xe5Q\xaa)\x12\n@'
p1608
tp1609
Rp1610
sI4
F3.3790597138413716
sI40
F0.0
sI9
F2.147230517842124
sI46
F0.7804768624057083
sI16
g3
(g7
S'\xe6\xa3\x90*\x9dV\x04@'
p1611
tp1612
Rp1613
sI20
F0.7678293950243044
sI89
F0.22677888119919365
sI91
F0.0
sI60
g3
(g7
S'\xd2\xbe\xd7\x8cL.\xfa?'
p1614
tp1615
Rp1616
ssI21
(dp1617
I32
g3
(g7
S'\x07\x1f>\x90\x00S\xf3?'
p1618
tp1619
Rp1620
sI57
g3
(g7
S'44\x87$$\xd3\xe7?'
p1621
tp1622
Rp1623
sI62
F1.5187031902381554
ssI22
(dp1624
I97
F0.0
sI35
g3
(g7
S'\x17\x81\x81B+\x13\xf6?'
p1625
tp1626
Rp1627
sI4
F0.40475336874156764
sI40
F0.2033075790704259
sI9
F3.763878341899801
sI46
F0.0
sI16
g3
(g7
S'&\\\x80\x10q\x8a\x0b@'
p1628
tp1629
Rp1630
sI20
F0.7331908357222575
sI91
F1.5058419216174166
sI60
g3
(g7
S'\x1a\x8f\xb9Jz:\x0f@'
p1631
tp1632
Rp1633
ssI23
(dp1634
I66
g3
(g7
S'\xfdO\xb8U\xf24\xea?'
p1635
tp1636
Rp1637
sI37
F8.531422171215473
sI85
F0.0
ssI24
(dp1638
I64
g3
(g7
S'c\xa8\x8c\x89\xe4\x8c\x1a@'
p1639
tp1640
Rp1641
sI1
F0.011325683101824637
sI3
F4.441357290786472
sI72
F0.0
sI77
F1.025495177472406
sI83
F3.1947523254858647
sI23
F4.704261536807758
sI94
F0.0
sI99
F3.547982384446262
sI46
F0.5756506965633396
sI50
F0.48421088126473255
sI51
F0.0
sI55
F0.0
sI56
g3
(g7
S'W\xa6\xd4PK\xdf\x1b@'
p1642
tp1643
Rp1644
sI60
F0.99737143498564
sI61
F0.3884806414774676
ssI25
(dp1645
I33
F0.0
sI4
F0.28636080465325603
sI10
F0.0
sI76
g3
(g7
S'Z\x85\x82\xafe\x9e\xf7?'
p1646
tp1647
Rp1648
sI14
g3
(g7
S'\x8a\x97\xf5\x1er)\x07@'
p1649
tp1650
Rp1651
sI15
g3
(g7
S'\x8a~\x14\xbc\xb0v\x07@'
p1652
tp1653
Rp1654
sI56
F0.4778168775700886
sI68
g3
(g7
S'B\xb0O\x8d\xbb\xaa\xf2?'
p1655
tp1656
Rp1657
sI42
F0.6954652690331522
ssI26
(dp1658
I70
F0.39090210655853835
sI11
g3
(g7
S'1\xab@\x13q`\x07@'
p1659
tp1660
Rp1661
sI13
F0.0
sI78
F1.3272449498918273
sI80
g3
(g7
S'\x92\xdc]\xfeA\xb6\x02@'
p1662
tp1663
Rp1664
sI82
F1.3636580672771905
sI23
F2.397862693509987
sI24
g3
(g7
S'\x0e\xf4\xf7\xffG\xf0\x12@'
p1665
tp1666
Rp1667
sI58
F1.0101205311922767
sI30
F1.9412681807401424
sssI152
(dp1668
I0
(dp1669
I48
F2.6578310900876887
sI81
F2.265840606550454
sI52
F1.6818988548113474
sI71
F0.7889337543615365
sI8
F0.21868764564839419
sI88
g3
(g7
S'\xc7\x13\xf5yp\xa5\x12@'
p1670
tp1671
Rp1672
sI27
F1.8400887844862754
ssI1
(dp1673
I16
g3
(g7
S'wi\x9b\xeb\xc3\xc5\xff?'
p1674
tp1675
Rp1676
sI33
F1.859533832340473
sI34
F3.99134317332505
sI71
g3
(g7
S'\xac\xa5\x84\xa4\xf4?\x12@'
p1677
tp1678
Rp1679
sI88
g3
(g7
S'\xbbq\xfcG\xc9?\xe0?'
p1680
tp1681
Rp1682
sI79
F4.012672249792327
ssI2
(dp1683
I97
F2.097200380371609
sI98
F1.4232550654549823
sI100
F0.6709743616042207
sI54
g3
(g7
S'\x04D\xef\xc0\xf7[\x03@'
p1684
tp1685
Rp1686
sI6
g3
(g7
S'\x11g\xa5\xd1\xd7T\x11@'
p1687
tp1688
Rp1689
sI13
F0.6777068360822984
sI21
F3.267479220104656
sI86
F2.318509986907553
ssI3
(dp1690
I64
g3
(g7
S'\xf9\xf8c\xae\xd3\xe6\x19@'
p1691
tp1692
Rp1693
sI1
F0.8545487633177336
sI3
F0.0
sI4
F1.8444790548793841
sI72
g3
(g7
S'C\xfb\x0e\xdb\x06`\x04@'
p1694
tp1695
Rp1696
sI77
F0.0
sI83
F4.828958434244828
sI22
F0.609313258008748
sI23
F0.0
sI99
F1.5575414586396492
sI46
F1.745355473903538
sI50
F0.5406745606439057
sI51
F0.0
sI56
g3
(g7
S"\x93\xe4yz'\x0f\x1c@"
p1697
tp1698
Rp1699
sI60
F3.6370749498232366
sI61
F3.22208254141811
ssI4
(dp1700
I69
g3
(g7
S'cQ\xa5\xb4\xd3`\x11@'
p1701
tp1702
Rp1703
sI41
F5.229480965935267
sI76
F1.280724034935663
sI78
F2.5979371200219474
sI16
F0.0
sI20
F3.890027082911185
sI53
F0.8003121967527468
sI54
F5.914401041026812
sI87
F0.0
sI59
g3
(g7
S'\xea\x97/\xe18\x96\t@'
p1704
tp1705
Rp1706
sI60
g3
(g7
S'`\xca\x0c\xd0%\xff\x06@'
p1707
tp1708
Rp1709
sI62
F0.23164877226108035
sI85
F0.7840851224335
ssI5
(dp1710
I6
F0.0
sI79
F0.0
ssI6
(dp1711
I66
F0.0
ssI7
(dp1712
I70
F0.4812659166973915
sI11
g3
(g7
S'yC\x8b\x01\xfa\xa1\x04@'
p1713
tp1714
Rp1715
sI13
F2.256289130531878
sI78
F1.8382195181704089
sI80
g3
(g7
S'\xa0\xb8\xc3\x03\xecI\xc7?'
p1716
tp1717
Rp1718
sI82
F1.3782848316563152
sI24
g3
(g7
S'\xf2\xf95\x08\xd5\xbd\t@'
p1719
tp1720
Rp1721
sI58
F0.7792585407305566
sI90
F0.9511235470678344
sI30
F5.003727854133511
ssI8
(dp1722
I64
F0.015952382118514352
sI100
F0.2843631557190881
sI69
g3
(g7
S'\xa8\xc6\x04\x10\x9a\xa1\x00@'
p1723
tp1724
Rp1725
sI42
F0.0
sI76
F3.375182900233213
sI47
F0.05349378412952899
sI16
F0.024739999873407817
sI49
g3
(g7
S'\x8e\xedI\x840>\xfd?'
p1726
tp1727
Rp1728
sI53
F2.4363744028078815
sI54
F0.044662091007603655
sI87
F2.2818360953294365
sI59
g3
(g7
S'\xb6Rm[\xae\xe8\x17@'
p1729
tp1730
Rp1731
sI60
g3
(g7
S'\x0b^r\xa8\xfe\x9b\x15@'
p1732
tp1733
Rp1734
sI93
F2.9239253425223026
ssI9
(dp1735
I69
g3
(g7
S'6\xa9\xa6C\xe6)\xfa?'
p1736
tp1737
Rp1738
sI39
F0.5827993909347057
sI41
F1.6749270141374355
sI43
F4.626119846890791
sI76
F0.0
sI77
F3.369971606718733
sI16
F4.190128249810291
sI53
F0.3386058052940161
sI54
F0.0
sI87
F0.0
sI59
g3
(g7
S'r\x045z \xd4\xf6?'
p1739
tp1740
Rp1741
sI60
g3
(g7
S'%V\x8cC\xc4\xbf\xfc?'
p1742
tp1743
Rp1744
sI37
F0.42500733706009775
ssI10
(dp1745
I35
F1.0409774187293142
sI67
g3
(g7
S'\x00\xa0u$\x04\xbf\xa4?'
p1746
tp1747
Rp1748
ssI11
(dp1749
I17
F2.759385625410248
sI84
g3
(g7
S'\x1a\x84\x8eEV\xe8\x10@'
p1750
tp1751
Rp1752
sI49
F0.0
sI8
F0.6669554458346963
sI7
g3
(g7
S'bb\xb3i\x1b\xf1\x07@'
p1753
tp1754
Rp1755
sI63
g3
(g7
S"W:'\xfa\x00\xbc\xf8?"
p1756
tp1757
Rp1758
ssI12
(dp1759
I97
g3
(g7
S'"\x7f\xdd#\xf4e\x08@'
p1760
tp1761
Rp1762
sI34
F1.206833407390733
sI35
g3
(g7
S'B\x91\xf2bv\x9b\x08@'
p1763
tp1764
Rp1765
sI4
F4.9846162436615575
sI40
F1.428109344006883
sI9
F2.72211153946475
sI46
F0.4209706554836684
sI16
g3
(g7
S'\x00\x9b\x05)\x04p\xca?'
p1766
tp1767
Rp1768
sI20
F0.0
sI87
F0.8697080756824097
sI91
F0.8675628303658354
sI60
F0.0
ssI13
(dp1769
I3
F0.0
sI69
g3
(g7
S'\xc2^\xecg\xc7\x9f\xd3?'
p1770
tp1771
Rp1772
sI76
F0.642108866677898
sI45
F2.750741773464354
sI16
F0.5676733872925712
sI20
F0.0
sI53
F4.111301280480298
sI54
F3.659602703846052
sI87
F0.0
sI59
g3
(g7
S'\xb0cJ\x0b\x14P\x03@'
p1773
tp1774
Rp1775
sI60
g3
(g7
S'\xf5\xba\xc5\xa0#\xe3\n@'
p1776
tp1777
Rp1778
ssI15
(dp1779
I68
F0.77064223095649
sI39
F0.0
sI57
g3
(g7
S'G\x15\x9a\xc4\xa7\xef\xe1?'
p1780
tp1781
Rp1782
sI43
F0.5684940304271981
sI44
g3
(g7
S'\xfe\x9e\xe9\xb8=\xad\x06@'
p1783
tp1784
Rp1785
sI29
g3
(g7
S'<tqPj\xf4\x16@'
p1786
tp1787
Rp1788
sI61
F0.031086765350843426
ssI16
(dp1789
I64
F0.15179225245547434
sI19
g3
(g7
S'\x86/\xfa\xd9\x0bb\x03@'
p1790
tp1791
Rp1792
sI66
g3
(g7
S'SA\x0fs\x96:\x05@'
p1793
tp1794
Rp1795
sI51
g3
(g7
S'Q\x15\xba.\xc1\xbc\x16@'
p1796
tp1797
Rp1798
sI18
F0.7929994080796499
sI78
F1.8674626290105742
ssI17
(dp1799
I73
F0.001219333311359983
sI23
g3
(g7
S'\xa0F\x87\xa0A\xf4\xfb?'
p1800
tp1801
Rp1802
sI5
F0.0
sI38
F0.9474315554264788
sI55
F2.2071663460721447
ssI18
(dp1803
I16
F0.0
sI97
g3
(g7
S'Bi-\x1el\xa4\xe9?'
p1804
tp1805
Rp1806
sI5
F0.0
sI70
F0.0
sI23
F0.0
sI92
g3
(g7
S'*\xe7\xe7\xf4G\x0b\xf9?'
p1807
tp1808
Rp1809
sI46
g3
(g7
S'\xc8X\xb2\xfc\xa9\x10\xc7?'
p1810
tp1811
Rp1812
ssI19
(dp1813
I97
F0.0
sI5
F1.3470071649376294
sI46
g3
(g7
S'\xa7\xd6\xe9\xd3\x91\xcf\x00@'
p1814
tp1815
Rp1816
sI16
F0.1873472612828866
sI54
F2.3094066973923018
sI23
g3
(g7
S'V\x122\x99\xe1\x08\x04@'
p1817
tp1818
Rp1819
sI92
F0.0
sI37
F0.3904610478363265
ssI20
(dp1820
I97
g3
(g7
S'K\xff\xf6\x17H\xa0\xfe?'
p1821
tp1822
Rp1823
sI34
F0.14456425280984497
sI35
g3
(g7
S'\x84y6\xaf\xab\xfb\x10@'
p1824
tp1825
Rp1826
sI4
F2.721409342296802
sI40
F2.343283657351497
sI9
F1.3705085728209838
sI16
g3
(g7
S'\xd8\x8e\x007\xf7\xdf\x01@'
p1827
tp1828
Rp1829
sI20
F0.6430905166202949
sI91
F0.0
sI60
g3
(g7
S'3\xad\x19P\xe7\xd7\xd0?'
p1830
tp1831
Rp1832
ssI21
(dp1833
I32
F0.0
sI57
g3
(g7
S'2 \xa4a\x17x\xf5?'
p1834
tp1835
Rp1836
sI62
F2.556155450021757
ssI22
(dp1837
I97
F0.0
sI35
g3
(g7
S'\xa6?\xe0\xc9\xfd\x97\x01@'
p1838
tp1839
Rp1840
sI4
F0.8598939412152622
sI40
F1.6406349540478986
sI9
F3.783644676168299
sI46
F0.2410135095008225
sI16
g3
(g7
S's\xf9\xe1\xc3\x9d\xef\xf9?'
p1841
tp1842
Rp1843
sI20
F0.0
sI87
F3.7775624643460874
sI91
F0.49286711886867657
sI60
g3
(g7
S'\xd3\xee"\xe9\xab\xf5\x12@'
p1844
tp1845
Rp1846
ssI23
(dp1847
I66
g3
(g7
S'\xdd\xa3Z\x8b\x0f\xbe\x00@'
p1848
tp1849
Rp1850
sI37
F7.449766014422363
sI85
F1.2902534848248588
sI15
F0.46701225368876376
ssI24
(dp1851
I64
g3
(g7
S'32\xa7\xf37\xcd\x16@'
p1852
tp1853
Rp1854
sI1
F0.38573242301181704
sI3
F4.093325657461506
sI51
F1.1608426917864052
sI72
g3
(g7
S'\x0cW\x9d\xea\x80\xeb\xde?'
p1855
tp1856
Rp1857
sI55
F0.0
sI77
F1.4572798132400933
sI99
F2.787147045991076
sI50
F0.0
sI83
F2.509404892646836
sI23
F2.6310462238742742
sI56
g3
(g7
S'\x8b\xd4G7f\x82!@'
p1858
tp1859
Rp1860
sI60
F1.125744875918777
sI61
F0.37366904065482204
sI94
F1.7965883761493515
ssI25
(dp1861
I33
F0.0
sI4
F0.27798110559096983
sI10
F0.3019242944120503
sI76
g3
(g7
S'T\xba\x90\xca\xe3\xca\xd7?'
p1862
tp1863
Rp1864
sI14
g3
(g7
S'\xde\x1e\x19f\x16\xba\x0e@'
p1865
tp1866
Rp1867
sI15
g3
(g7
S'\xf4b\xcc\xeb\xc1\x17\xf7?'
p1868
tp1869
Rp1870
sI68
g3
(g7
S'H\xbf\x97\xa15\x81\xda?'
p1871
tp1872
Rp1873
sI42
F2.105844770093707
ssI26
(dp1874
I70
F0.0
sI11
g3
(g7
S'\xdb/\rD\xd5B\x02@'
p1875
tp1876
Rp1877
sI13
F0.7862407726983142
sI78
F0.17980404734624178
sI80
g3
(g7
S'\xa8"\xe5\x93\xb4#\xf3?'
p1878
tp1879
Rp1880
sI82
F3.3564016058357105
sI23
F2.6445698213280644
sI24
g3
(g7
S'9\rX\xd7#\x0b\x10@'
p1881
tp1882
Rp1883
sI30
F2.212322103433185
sssI153
(dp1884
I0
(dp1885
I48
F2.6578310900876887
sI81
F2.265840606550454
sI52
F1.6818988548113474
sI71
F0.7889337543615365
sI8
F0.21868764564839419
sI88
g1672
sI27
F1.8400887844862754
ssI1
(dp1886
I16
g1676
sI33
F1.859533832340473
sI34
F3.99134317332505
sI71
g1679
sI88
g1682
sI79
F4.012672249792327
ssI2
(dp1887
I97
F2.097200380371609
sI98
F1.4232550654549823
sI100
F0.6709743616042207
sI54
g1686
sI6
g1689
sI13
F0.6777068360822984
sI21
F3.267479220104656
sI86
F2.318509986907553
ssI3
(dp1888
I64
g1693
sI1
F0.8545487633177336
sI3
F0.0
sI4
F1.8444790548793841
sI72
g1696
sI77
F0.0
sI83
F4.828958434244828
sI22
F0.609313258008748
sI23
F0.0
sI99
F1.5575414586396492
sI46
F1.745355473903538
sI50
F0.5406745606439057
sI51
F0.0
sI56
g1699
sI60
F3.6370749498232366
sI61
F3.22208254141811
ssI4
(dp1889
I69
g1703
sI41
F5.229480965935267
sI76
F1.280724034935663
sI78
F2.5979371200219474
sI16
F0.0
sI20
F3.890027082911185
sI53
F0.8003121967527468
sI54
F5.914401041026812
sI87
F0.0
sI59
g1706
sI60
g1709
sI62
F0.23164877226108035
sI85
F0.7840851224335
ssI5
(dp1890
I6
F0.0
sI79
F0.0
ssI6
(dp1891
I66
F0.0
ssI7
(dp1892
I70
F0.4812659166973915
sI11
g1715
sI13
F2.256289130531878
sI78
F1.8382195181704089
sI80
g1718
sI82
F1.3782848316563152
sI24
g1721
sI58
F0.7792585407305566
sI90
F0.9511235470678344
sI30
F5.003727854133511
ssI8
(dp1893
I64
F0.015952382118514352
sI100
F0.2843631557190881
sI69
g1725
sI42
F0.0
sI76
F3.375182900233213
sI47
F0.05349378412952899
sI16
F0.024739999873407817
sI49
g1728
sI53
F2.4363744028078815
sI54
F0.044662091007603655
sI87
F2.2818360953294365
sI59
g1731
sI60
g1734
sI93
F2.9239253425223026
ssI9
(dp1894
I69
g1738
sI39
F0.5827993909347057
sI41
F1.6749270141374355
sI43
F4.626119846890791
sI76
F0.0
sI77
F3.369971606718733
sI16
F4.190128249810291
sI53
F0.3386058052940161
sI54
F0.0
sI87
F0.0
sI59
g1741
sI60
g1744
sI37
F0.42500733706009775
ssI10
(dp1895
I35
F1.0409774187293142
sI67
g1748
ssI11
(dp1896
I17
F2.759385625410248
sI84
g1752
sI49
F0.0
sI8
F0.6669554458346963
sI7
g1755
sI63
g1758
ssI12
(dp1897
I97
g1762
sI34
F1.206833407390733
sI35
g1765
sI4
F4.9846162436615575
sI40
F1.428109344006883
sI9
F2.72211153946475
sI46
F0.4209706554836684
sI16
g1768
sI20
F0.0
sI87
F0.8697080756824097
sI91
F0.8675628303658354
sI60
F0.0
ssI13
(dp1898
I3
F0.0
sI69
g1772
sI76
F0.642108866677898
sI45
F2.750741773464354
sI16
F0.5676733872925712
sI20
F0.0
sI53
F4.111301280480298
sI54
F3.659602703846052
sI87
F0.0
sI59
g1775
sI60
g1778
ssI15
(dp1899
I68
F0.77064223095649
sI39
F0.0
sI57
g1782
sI43
F0.5684940304271981
sI44
g1785
sI29
g1788
sI61
F0.031086765350843426
ssI16
(dp1900
I64
F0.15179225245547434
sI19
g1792
sI66
g1795
sI51
g1798
sI18
F0.7929994080796499
sI78
F1.8674626290105742
ssI17
(dp1901
I73
F0.001219333311359983
sI23
g1802
sI5
F0.0
sI38
F0.9474315554264788
sI55
F2.2071663460721447
ssI18
(dp1902
I16
F0.0
sI97
g1806
sI5
F0.0
sI70
F0.0
sI23
F0.0
sI92
g1809
sI46
g1812
ssI19
(dp1903
I97
F0.0
sI5
F1.3470071649376294
sI46
g1816
sI16
F0.1873472612828866
sI54
F2.3094066973923018
sI23
g1819
sI92
F0.0
sI37
F0.3904610478363265
ssI20
(dp1904
I97
g1823
sI34
F0.14456425280984497
sI35
g1826
sI4
F2.721409342296802
sI40
F2.343283657351497
sI9
F1.3705085728209838
sI16
g1829
sI20
F0.6430905166202949
sI91
F0.0
sI60
g1832
ssI21
(dp1905
I32
F0.0
sI57
g1836
sI62
F2.556155450021757
ssI22
(dp1906
I97
F0.0
sI35
g1840
sI4
F0.8598939412152622
sI40
F1.6406349540478986
sI9
F3.783644676168299
sI46
F0.2410135095008225
sI16
g1843
sI20
F0.0
sI87
F3.7775624643460874
sI91
F0.49286711886867657
sI60
g1846
ssI23
(dp1907
I66
g1850
sI37
F7.449766014422363
sI85
F1.2902534848248588
sI15
F0.46701225368876376
ssI24
(dp1908
I64
g3
(g7
S'\xef\xebq\x8e\x10\x11 @'
p1909
tp1910
Rp1911
sI1
F0.7565118186166154
sI3
F3.347497469946224
sI51
F2.5576356395159694
sI97
F0.07215025224889571
sI72
g3
(g7
S'\xb4\xa0\xb8Wq\xd7\xef?'
p1912
tp1913
Rp1914
sI55
F0.0
sI77
F0.0
sI99
F2.448030808725034
sI50
F0.6314648303130671
sI83
F0.45276917652506743
sI23
F3.249175402546543
sI56
g3
(g7
S'\xc1\xe8\xd6\x03Rs%@'
p1915
tp1916
Rp1917
sI60
F0.9071306298029996
sI61
F1.3660907853331017
sI94
F2.005789498408734
ssI25
(dp1918
I33
F0.0
sI4
F0.27798110559096983
sI10
F0.3019242944120503
sI76
g1864
sI14
g1867
sI15
g1870
sI68
g1873
sI42
F2.105844770093707
ssI26
(dp1919
I70
F0.0
sI11
g1877
sI13
F0.7862407726983142
sI78
F0.17980404734624178
sI80
g1880
sI82
F3.3564016058357105
sI23
F2.6445698213280644
sI24
g1883
sI30
F2.212322103433185
sssI154
(dp1920
I0
(dp1921
I48
F2.6578310900876887
sI81
F2.265840606550454
sI52
F1.6818988548113474
sI71
F0.7889337543615365
sI8
F0.21868764564839419
sI88
g1672
sI27
F1.8400887844862754
ssI1
(dp1922
I16
g1676
sI33
F1.859533832340473
sI34
F3.99134317332505
sI71
g1679
sI88
g1682
sI79
F4.012672249792327
ssI2
(dp1923
I97
F2.097200380371609
sI98
F1.4232550654549823
sI100
F0.6709743616042207
sI54
g1686
sI6
g1689
sI13
F0.6777068360822984
sI21
F3.267479220104656
sI86
F2.318509986907553
ssI3
(dp1924
I64
g1693
sI1
F0.8545487633177336
sI3
F0.0
sI4
F1.8444790548793841
sI72
g1696
sI77
F0.0
sI83
F4.828958434244828
sI22
F0.609313258008748
sI23
F0.0
sI99
F1.5575414586396492
sI46
F1.745355473903538
sI50
F0.5406745606439057
sI51
F0.0
sI56
g1699
sI60
F3.6370749498232366
sI61
F3.22208254141811
ssI4
(dp1925
I69
g1703
sI41
F5.229480965935267
sI76
F1.280724034935663
sI78
F2.5979371200219474
sI16
F0.0
sI20
F3.890027082911185
sI53
F0.8003121967527468
sI54
F5.914401041026812
sI87
F0.0
sI59
g1706
sI60
g1709
sI62
F0.23164877226108035
sI85
F0.7840851224335
ssI5
(dp1926
I6
F0.0
sI79
F0.0
ssI6
(dp1927
I66
F0.0
ssI7
(dp1928
I70
F0.4812659166973915
sI11
g1715
sI13
F2.256289130531878
sI78
F1.8382195181704089
sI80
g1718
sI82
F1.3782848316563152
sI24
g1721
sI58
F0.7792585407305566
sI90
F0.9511235470678344
sI30
F5.003727854133511
ssI8
(dp1929
I64
F0.015952382118514352
sI100
F0.2843631557190881
sI69
g1725
sI42
F0.0
sI76
F3.375182900233213
sI47
F0.05349378412952899
sI16
F0.024739999873407817
sI49
g1728
sI53
F2.4363744028078815
sI54
F0.044662091007603655
sI87
F2.2818360953294365
sI59
g1731
sI60
g1734
sI93
F2.9239253425223026
ssI9
(dp1930
I69
g1738
sI39
F0.5827993909347057
sI41
F1.6749270141374355
sI43
F4.626119846890791
sI76
F0.0
sI77
F3.369971606718733
sI16
F4.190128249810291
sI53
F0.3386058052940161
sI54
F0.0
sI87
F0.0
sI59
g1741
sI60
g1744
sI37
F0.42500733706009775
ssI10
(dp1931
I35
F1.0409774187293142
sI67
g1748
ssI11
(dp1932
I17
F2.759385625410248
sI84
g1752
sI49
F0.0
sI8
F0.6669554458346963
sI7
g1755
sI63
g1758
ssI12
(dp1933
I97
g1762
sI34
F1.206833407390733
sI35
g1765
sI4
F4.9846162436615575
sI40
F1.428109344006883
sI9
F2.72211153946475
sI46
F0.4209706554836684
sI16
g1768
sI20
F0.0
sI87
F0.8697080756824097
sI91
F0.8675628303658354
sI60
F0.0
ssI13
(dp1934
I3
F0.0
sI69
g1772
sI76
F0.642108866677898
sI45
F2.750741773464354
sI16
F0.5676733872925712
sI20
F0.0
sI53
F4.111301280480298
sI54
F3.659602703846052
sI87
F0.0
sI59
g1775
sI60
g1778
ssI15
(dp1935
I68
F0.77064223095649
sI39
F0.0
sI57
g1782
sI43
F0.5684940304271981
sI44
g1785
sI29
g1788
sI61
F0.031086765350843426
ssI16
(dp1936
I64
F0.15179225245547434
sI19
g1792
sI66
g1795
sI51
g1798
sI18
F0.7929994080796499
sI78
F1.8674626290105742
ssI17
(dp1937
I73
F0.001219333311359983
sI23
g1802
sI5
F0.0
sI38
F0.9474315554264788
sI55
F2.2071663460721447
ssI18
(dp1938
I16
F0.0
sI97
g1806
sI5
F0.0
sI70
F0.0
sI23
F0.0
sI92
g1809
sI46
g1812
ssI19
(dp1939
I97
F0.0
sI5
F1.3470071649376294
sI46
g1816
sI16
F0.1873472612828866
sI54
F2.3094066973923018
sI23
g1819
sI92
F0.0
sI37
F0.3904610478363265
ssI20
(dp1940
I97
g1823
sI34
F0.14456425280984497
sI35
g1826
sI4
F2.721409342296802
sI40
F2.343283657351497
sI9
F1.3705085728209838
sI16
g1829
sI20
F0.6430905166202949
sI91
F0.0
sI60
g1832
ssI21
(dp1941
I32
F0.0
sI57
g1836
sI62
F2.556155450021757
ssI22
(dp1942
I97
F0.0
sI35
g1840
sI4
F0.8598939412152622
sI40
F1.6406349540478986
sI9
F3.783644676168299
sI46
F0.2410135095008225
sI16
g1843
sI20
F0.0
sI87
F3.7775624643460874
sI91
F0.49286711886867657
sI60
g1846
ssI23
(dp1943
I66
g1850
sI37
F7.449766014422363
sI85
F1.2902534848248588
sI15
F0.46701225368876376
ssI24
(dp1944
I64
g1911
sI1
F0.7565118186166154
sI3
F3.347497469946224
sI72
g1914
sI77
F0.0
sI83
F0.45276917652506743
sI23
F3.249175402546543
sI94
F2.005789498408734
sI97
F0.07215025224889571
sI99
F2.448030808725034
sI50
F0.6314648303130671
sI51
F2.5576356395159694
sI55
F0.0
sI56
g1917
sI60
F0.9071306298029996
sI61
F1.3660907853331017
ssI25
(dp1945
I33
F0.06718658468335842
sI4
F0.0
sI10
F0.0
sI76
g3
(g7
S'FT\xca\xba-s\xc6?'
p1946
tp1947
Rp1948
sI14
g3
(g7
S'\xbe\x8a\x13N\x04L\x15@'
p1949
tp1950
Rp1951
sI15
F0.0
sI89
F0.4442754666601486
sI68
g3
(g7
S'}M\xfc~:#\xe0?'
p1952
tp1953
Rp1954
sI42
F1.909471933831184
ssI26
(dp1955
I70
F0.0
sI11
g1877
sI13
F0.7862407726983142
sI78
F0.17980404734624178
sI80
g1880
sI82
F3.3564016058357105
sI23
F2.6445698213280644
sI24
g1883
sI30
F2.212322103433185
sssI155
(dp1956
I0
(dp1957
I48
F5.338454175446755
sI81
F2.804169862586464
sI51
F0.6947410685478147
sI52
F0.0
sI8
F0.0
sI88
g3
(g7
S'\xa2\ncq\xf3\xb7\x0b@'
p1958
tp1959
Rp1960
sI27
F1.707506097173211
ssI1
(dp1961
I16
g3
(g7
S'\\\x07\x9bd#@\xf9?'
p1962
tp1963
Rp1964
sI33
F0.5722126221759836
sI34
F0.0
sI71
g3
(g7
S'L)\x10c\xf0Z\x19@'
p1965
tp1966
Rp1967
sI56
F0.0
sI88
g3
(g7
S'\x0f|\xd9$\x98\xa1\x0b@'
p1968
tp1969
Rp1970
sI79
F1.0786072749735554
ssI2
(dp1971
I97
F3.6002550641573814
sI98
F0.0
sI67
F0.31390371326948396
sI100
F0.0
sI86
F2.247972260983846
sI6
g3
(g7
S'\x99\xcb\xd9\x9d\x12\x12\x11@'
p1972
tp1973
Rp1974
sI13
F0.3382434618058306
sI21
F4.156051279041262
sI54
g3
(g7
S'\xc4\xb2\x85=\xb2\x1a\xf9?'
p1975
tp1976
Rp1977
ssI3
(dp1978
I64
g3
(g7
S'\x0eJ\xd8+\x0b6\x1f@'
p1979
tp1980
Rp1981
sI1
F3.445220156085276
sI4
F1.2684634325304769
sI72
g3
(g7
S'}k4"\x81i\x13@'
p1982
tp1983
Rp1984
sI77
F0.0
sI83
F4.141277920424682
sI22
F0.44034269129445847
sI23
F0.5078863297125855
sI94
F2.747405082190556
sI99
F0.9281149085377999
sI44
F0.13048288090514593
sI46
F2.6748593781687324
sI50
F1.7833456654566089
sI51
F0.0
sI56
g3
(g7
S'y3\n\\\x80\x01\x1f@'
p1985
tp1986
Rp1987
sI60
F2.737545664316797
sI61
F2.393296957527831
ssI4
(dp1988
I69
g3
(g7
S'\xaf\xc2NI\x83\xdc\x10@'
p1989
tp1990
Rp1991
sI41
F6.196401698891974
sI76
F3.356430415831772
sI78
F2.30708925372749
sI16
F0.0
sI20
F3.4357182173167704
sI53
F0.4777910978511385
sI54
F5.480946044131727
sI87
F0.6914922386276563
sI25
F2.9271847148551577
sI59
g3
(g7
S'\x8d\xd8\xcbh,\xe3\x06@'
p1992
tp1993
Rp1994
sI60
g3
(g7
S'\x81\xb5g\xae\xae \x14@'
p1995
tp1996
Rp1997
sI62
F0.0
sI85
F1.2641259283453716
ssI5
(dp1998
I21
F0.3548100455572759
sI6
F0.0
sI79
F0.2556201030408465
ssI6
(dp1999
I67
F0.1963706021697253
ssI7
(dp2000
I70
F0.0
sI11
g3
(g7
S'\x0c(\xebDj\xa6\x1b@'
p2001
tp2002
Rp2003
sI13
F0.9969883791743295
sI78
F2.1840585410950166
sI80
g3
(g7
S'k\x90\xb6\xea\x98\x8c\x03@'
p2004
tp2005
Rp2006
sI82
F2.9531621211478
sI24
g3
(g7
S'\x8a\xceo\xe3\x86\x1a\n@'
p2007
tp2008
Rp2009
sI58
F3.987085834307932
sI30
F3.960241417912059
ssI8
(dp2010
I64
F0.5148060638113638
sI100
F0.0
sI69
g3
(g7
S'\x0e\x14c\xd4\x9c\xec\xe7?'
p2011
tp2012
Rp2013
sI7
F0.48179386668100416
sI42
F0.0
sI76
F5.628445261407313
sI16
F0.7791941357463962
sI49
F0.0
sI53
F3.8266925089598818
sI54
F0.2662586078124648
sI59
g3
(g7
S'\xbc\xc8\xb3d#l\x0e@'
p2014
tp2015
Rp2016
sI60
g3
(g7
S',\xf9\x1a\xbc\xbd8\x19@'
p2017
tp2018
Rp2019
sI93
F1.955927221243857
ssI9
(dp2020
I69
g3
(g7
S'\xe4\x03g\xe5\xbfY\x12@'
p2021
tp2022
Rp2023
sI39
F0.0
sI41
F2.6185306013064187
sI43
F4.532225534674197
sI76
F0.6541306959112858
sI77
F2.7058697211518066
sI28
F0.5396921539570892
sI16
F3.6817705226920614
sI53
F0.0
sI54
F0.7713263464415006
sI87
F0.19582542109166026
sI90
F0.0
sI59
g3
(g7
S'\x154\x9e\x18\xad\x19\x0b@'
p2024
tp2025
Rp2026
sI60
g3
(g7
S'.@a\x84\x06~\x01@'
p2027
tp2028
Rp2029
ssI10
(dp2030
I59
F0.2839578239853756
sI67
g3
(g7
S'\x91`\xe8P\x92v\xe1?'
p2031
tp2032
Rp2033
ssI11
(dp2034
I33
g3
(g7
S'\xfe%1\x08M\x89\x13@'
p2035
tp2036
Rp2037
sI84
g3
(g7
S'~\xa7\x0f,\xc3.\r@'
p2038
tp2039
Rp2040
sI17
F2.3814353419777072
sI49
F0.8893360320297803
sI8
F0.0
sI91
F0.896555489755318
sI63
g3
(g7
S'>\xf4N\x94\x15i\xf4?'
p2041
tp2042
Rp2043
ssI12
(dp2044
I97
g3
(g7
S'\xa7(0\xe5?K\x01@'
p2045
tp2046
Rp2047
sI34
F1.329782648039241
sI35
g3
(g7
S'U\xd7\x80{\xab\x1b\x05@'
p2048
tp2049
Rp2050
sI4
F5.225521364327055
sI65
F2.593905877533669
sI40
F0.2050122373301947
sI9
F3.9696761393782474
sI46
F0.0
sI16
g3
(g7
S'\x039"\x17y\xcb\xe5?'
p2051
tp2052
Rp2053
sI20
F0.0
sI87
F0.04893985340124452
sI91
F3.3779129947305493
sI60
g3
(g7
S'h5\x03\xb117\xfa?'
p2054
tp2055
Rp2056
sI63
F0.35716010287701605
ssI13
(dp2057
I3
F0.41636561584040366
sI68
F1.1058012295136561
sI69
g3
(g7
S'\xbbq\t \x1b\xdc\xf7?'
p2058
tp2059
Rp2060
sI41
F0.0
sI76
F1.085709743338779
sI45
F1.9310973651737957
sI16
F2.281562712420427
sI20
F0.0
sI53
F1.2547319952716531
sI54
F7.7000853963414055
sI87
F0.0
sI59
g3
(g7
S'(\x90\xb1t\xc4\x06\x1d@'
p2061
tp2062
Rp2063
sI60
g3
(g7
S'\xda\xe4\xf0\xa4\xb0\xe1\x06@'
p2064
tp2065
Rp2066
ssI14
(dp2067
I89
F0.5269830535909193
sI70
F0.8738441514982779
sI14
g3
(g7
S'z\x14Y\xce\xb9\xc0\xf3?'
p2068
tp2069
Rp2070
ssI15
(dp2071
I29
g3
(g7
S'\xa1\xafmpU\xa3\x13@'
p2072
tp2073
Rp2074
sI43
F1.66311213831341
sI44
g3
(g7
S'k\xb7*\x18$\xe9\xff?'
p2075
tp2076
Rp2077
sI61
F1.6868782610750739
sI39
g3
(g7
S'S\x07\xec\xd1\xe8\xf4\xeb?'
p2078
tp2079
Rp2080
ssI16
(dp2081
I64
F0.0
sI19
g3
(g7
S'\x84?.\x8bR\x8f\xf0?'
p2082
tp2083
Rp2084
sI51
g3
(g7
S'K\x8d\xce\x9d\x0e\xbf\x10@'
p2085
tp2086
Rp2087
sI78
F0.7411574349926173
sI38
F0.7819858832689255
ssI17
(dp2088
I73
F0.0
sI55
F1.6369942586218587
sI5
g3
(g7
S'\xc0\x0c,\xe9D`\xef?'
p2089
tp2090
Rp2091
sI85
F0.0
sI23
g3
(g7
S'\x8c4@x\xc7\x97\xfd?'
p2092
tp2093
Rp2094
ssI18
(dp2095
I16
F0.8145473898841994
sI5
g3
(g7
S'\x93\x85$\x9e\x84\x81\xe2?'
p2096
tp2097
Rp2098
sI70
F0.0
sI39
F0.0
sI23
F0.22562161717755708
sI92
g3
(g7
S'\xd6\x01F\xf1\xa9\x1b\x05@'
p2099
tp2100
Rp2101
sI46
g3
(g7
S'\xd2o\x0c!.(\xe9?'
p2102
tp2103
Rp2104
ssI19
(dp2105
I16
F3.17408947580527
sI97
F0.0
sI92
g3
(g7
S'l\x99\xdd\xb8i\xf1\xd8?'
p2106
tp2107
Rp2108
sI5
F2.0337731099809235
sI54
F1.7975438847143101
ssI20
(dp2109
I97
g3
(g7
S'\xaeR:\xc9&<\x02@'
p2110
tp2111
Rp2112
sI34
F0.24591005162778756
sI35
g3
(g7
S'<\xdbw\xcd\x93H\x05@'
p2113
tp2114
Rp2115
sI4
F4.354131858894941
sI40
F0.6789316840430116
sI9
F3.3227333166234567
sI44
F0.843574969039055
sI46
F0.8416034344466564
sI16
g3
(g7
S'\x1e^i\x93\x90\x81\xfa?'
p2116
tp2117
Rp2118
sI20
F1.8688085274655548
sI89
F1.4006696378777788
sI91
F0.1163044650103845
sI60
g3
(g7
S'W/\xf41\x96r\xfb?'
p2119
tp2120
Rp2121
ssI21
(dp2122
I32
g3
(g7
S'\xc8\x16\xea\x91zM\xe9?'
p2123
tp2124
Rp2125
sI62
F1.7395196994406577
ssI22
(dp2126
I97
F0.0
sI35
g3
(g7
S'-\xedk\xf8\xab5\xf1?'
p2127
tp2128
Rp2129
sI4
F1.7156958837371175
sI40
F0.0
sI9
F1.7804016699623046
sI46
F0.0
sI16
g3
(g7
S'\x1cA\xc2g\x84\xbc\x11@'
p2130
tp2131
Rp2132
sI20
F0.16580274469948542
sI55
F0.1177659637561651
sI91
F2.4808274745179513
sI60
g3
(g7
S'6\xae\t\x82\xf6\xfa\x11@'
p2133
tp2134
Rp2135
ssI23
(dp2136
I66
g3
(g7
S'\x11\x16\x1cp\xb1\xea\xe6?'
p2137
tp2138
Rp2139
sI37
F7.012424625169286
sI85
F1.0507160703611567
ssI24
(dp2140
I64
g3
(g7
S',\x97\xbe\x06\xe1\x86\x1a@'
p2141
tp2142
Rp2143
sI1
F0.9556934506163676
sI3
F3.5447960460405157
sI51
F0.0
sI72
F0.3666372945136473
sI55
F1.6590733801442943
sI46
F1.6376229329247605
sI99
F2.4795370809489383
sI50
F0.706448114906514
sI83
F2.004266601204564
sI23
F4.112776038875621
sI56
g3
(g7
S'\x86\xa4)\xcd\xf0\xbe\x1f@'
p2144
tp2145
Rp2146
sI60
F1.973127076931085
sI61
F0.266713011581135
sI94
F0.09018177618532708
ssI25
(dp2147
I33
F0.0
sI4
F0.9494637030392172
sI10
F0.0
sI76
g3
(g7
S'\xb8\x8f\x81\xfa\x058\xf6?'
p2148
tp2149
Rp2150
sI14
g3
(g7
S'\xf9"C\xd6D\x97\x05@'
p2151
tp2152
Rp2153
sI15
g3
(g7
S'\xf6m\xbc#1\xc3\xfa?'
p2154
tp2155
Rp2156
sI56
F1.769767885770555
sI68
g3
(g7
S';\xaa[\x13\x85s\xee?'
p2157
tp2158
Rp2159
sI42
F0.779643130860569
ssI26
(dp2160
I69
F0.37677269902799615
sI70
F2.4532223503478323
sI11
g3
(g7
S'\\\x11\xe5\x11BD\x0c@'
p2161
tp2162
Rp2163
sI13
F0.0
sI78
F1.7100217704591718
sI80
g3
(g7
S'noF\xa4Y/\xf6?'
p2164
tp2165
Rp2166
sI82
F2.3183465009613604
sI23
F2.206470589892522
sI24
g3
(g7
S'\xb5#\x1a\xe2\xc9\x95\x16@'
p2167
tp2168
Rp2169
sI58
F1.4330256767142209
sI30
F0.6887650175251017
sssI156
(dp2170
I0
(dp2171
I48
F2.8222072917865235
sI81
F2.1013312817613965
sI52
F1.983780749485995
sI71
F2.1007554278535103
sI8
F0.0
sI88
g3
(g7
S'\xba\\\xdfyK\x93\x12@'
p2172
tp2173
Rp2174
sI27
F1.75084441291738
ssI1
(dp2175
I16
g3
(g7
S'\x14\xe9\xd9\xe5\xb6v\xd8?'
p2176
tp2177
Rp2178
sI33
F1.6658977104319879
sI34
F3.104523692667571
sI71
g3
(g7
S'utO7\x88v\x14@'
p2179
tp2180
Rp2181
sI88
g3
(g7
S'\xdd\xf1\xd4\xc73\xd8\xe3?'
p2182
tp2183
Rp2184
sI28
F0.4158276347008075
sI79
F4.47395346919473
ssI2
(dp2185
I97
F2.1405192899356407
sI98
F0.0
sI100
F1.046564300633081
sI86
F2.3087092879036426
sI6
g3
(g7
S'\tx\xcdP.\x04\x14@'
p2186
tp2187
Rp2188
sI13
F0.08325210856740717
sI14
F0.504740037546984
sI21
F2.8575019372298427
sI54
g3
(g7
S'\xa1 q7\xd0\xd3\x02@'
p2189
tp2190
Rp2191
ssI3
(dp2192
I64
g3
(g7
S'\xadE\xab \x88\x99\x1e@'
p2193
tp2194
Rp2195
sI1
F1.4050916640579365
sI83
F4.093415681488257
sI3
F0.8114447561762917
sI4
F2.1957495726968106
sI77
F0.0
sI46
F0.5890248790506731
sI99
F0.705551965837063
sI50
F0.8595417229626943
sI51
F0.48350895970670665
sI22
F0.832664654065624
sI23
F0.0
sI56
g3
(g7
S'\xd2\xab\xb7\xe3\x1e\xe4\x1c@'
p2196
tp2197
Rp2198
sI60
F4.27496076885759
sI61
F3.479911492006245
ssI4
(dp2199
I35
F0.5082180209581831
sI69
g3
(g7
S'6\x98\xf5]\\n\x15@'
p2200
tp2201
Rp2202
sI41
F3.9297574857134694
sI76
F1.6861662942601952
sI78
F3.5291954508637695
sI16
F1.0073212003505945
sI20
F4.132881467048576
sI53
F0.0
sI54
F3.856366683544164
sI87
F0.8874307228050696
sI59
g3
(g7
S'\x82\xd2\x85\x18\xb3\xc1\n@'
p2203
tp2204
Rp2205
sI60
g3
(g7
S':\x0f\xe0\tL\xf1\x12@'
p2206
tp2207
Rp2208
sI62
F0.24839379200520617
sI85
F0.3222510544743588
ssI5
(dp2209
I6
F0.2913105171125557
sI79
F0.0
ssI6
(dp2210
I66
F0.0
ssI7
(dp2211
I70
F1.0350912986124214
sI13
F4.561120665054225
sI78
F2.2308384478542083
sI80
g3
(g7
S'\x04\xac=k\xbdz\xfa?'
p2212
tp2213
Rp2214
sI82
F3.4170539025579196
sI24
g3
(g7
S'{\xb2\xdb5\xf5X\x10@'
p2215
tp2216
Rp2217
sI58
F1.3182803330772361
sI90
F1.6118809302744308
sI30
F6.01445476953687
ssI8
(dp2218
I64
F0.0
sI100
F0.6256026116334605
sI69
g3
(g7
S'Q\xfc\x11\x8d\x05\xe4\x02@'
p2219
tp2220
Rp2221
sI42
F0.0
sI76
F2.2584175123834673
sI47
F0.0
sI49
g3
(g7
S'pO\xa9VX\x1e\xfe?'
p2222
tp2223
Rp2224
sI53
F1.389228064691514
sI54
F0.0
sI87
F2.8412864742835016
sI59
g3
(g7
S'c\xe9\xa9Z}>\x19@'
p2225
tp2226
Rp2227
sI60
g3
(g7
S'?\xd7AK*\xef\x19@'
p2228
tp2229
Rp2230
sI93
F2.1359613870496355
ssI9
(dp2231
I69
g3
(g7
S'/~g\xda\xc1\xa7\xfb?'
p2232
tp2233
Rp2234
sI39
F0.0
sI41
F0.0
sI43
F3.7745232960953996
sI76
F0.0
sI77
F2.4508228087741495
sI15
F0.4933931688940538
sI16
F4.5738470255437385
sI53
F0.28435555888418895
sI54
F0.0
sI87
F0.0
sI59
g3
(g7
S'\xb2P\x1f]\xcbp\xff?'
p2235
tp2236
Rp2237
sI60
g3
(g7
S'\x99]\xda\xd9\x056\xf8?'
p2238
tp2239
Rp2240
sI37
F0.0
ssI10
(dp2241
I67
F0.0
sI35
F2.994660174120275
ssI11
(dp2242
I8
F0.0
sI49
F1.9154857673768826
sI63
g3
(g7
S'\x12iI\xf9\xca\xa6\x06@'
p2243
tp2244
Rp2245
sI84
g3
(g7
S'f\x02,\xd2%\x04\x0b@'
p2246
tp2247
Rp2248
sI7
g3
(g7
S"H\xa7\x19-P'\xff?"
p2249
tp2250
Rp2251
ssI12
(dp2252
I97
g3
(g7
S'`h\x87/\x06\x93\x0b@'
p2253
tp2254
Rp2255
sI34
F3.122623992523504
sI35
g3
(g7
S'\x1dJ\x9dW\x1a1\x06@'
p2256
tp2257
Rp2258
sI4
F6.38710677965561
sI40
F0.6276685076439784
sI9
F4.081515917177646
sI46
F1.0856216860573893
sI16
F0.0
sI20
F0.0
sI87
F2.420488149683281
sI91
F0.5779785193107919
sI60
F0.5894550750268076
ssI13
(dp2259
I3
F0.323282932423861
sI69
F0.0
sI76
F0.0
sI45
F3.2095160705935655
sI16
F1.1359185923539503
sI20
F1.3305077219213377
sI53
F2.3880359696918236
sI54
F3.412559339377622
sI87
F1.018066301868122
sI59
g3
(g7
S'\xb0\x8f!*\xf5\xad\x06@'
p2260
tp2261
Rp2262
sI60
g3
(g7
S'\xb8\x98\x96O\xe0t\x13@'
p2263
tp2264
Rp2265
ssI15
(dp2266
I68
F2.7965988064473715
sI39
F0.0
sI43
F0.0
sI44
g3
(g7
S'\x8e\xceK\xedO\x1d\x05@'
p2267
tp2268
Rp2269
sI77
F0.06167998675566644
sI61
F0.0
sI57
g3
(g7
S'4\xdf\xeb\x81\xa8E\x05@'
p2270
tp2271
Rp2272
sI29
g3
(g7
S'\xc2kc\x9bMx\x10@'
p2273
tp2274
Rp2275
ssI16
(dp2276
I64
F1.4754713245117381
sI51
g3
(g7
S'\xe2\x1cc\xcc\x07\x94\x14@'
p2277
tp2278
Rp2279
sI66
g3
(g7
S',\xdb\x90\x8f\x0b\x08\xfb?'
p2280
tp2281
Rp2282
sI19
g3
(g7
S'\xdcQ\x9e\xe8\xae\xa4\x0b@'
p2283
tp2284
Rp2285
sI25
F0.9506660376795047
sI18
F3.6155834609034443
sI78
F1.1026345598963019
ssI17
(dp2286
I73
F0.0
sI55
F2.125922253637402
sI5
F0.0
sI38
F2.0367451945261217
sI23
g3
(g7
S'\x85\xf9\xe1I\x87\xf0\x04@'
p2287
tp2288
Rp2289
ssI18
(dp2290
I16
F0.5554229599534762
sI5
F1.4502412421482818
sI70
F0.7786351616567573
sI23
F0.5686347717744208
sI92
g3
(g7
S'X\x8b7?O\xaa\x04@'
p2291
tp2292
Rp2293
sI46
g3
(g7
S'2)|\xfcx}\xf3?'
p2294
tp2295
Rp2296
ssI19
(dp2297
I16
F0.3101081372031153
sI5
F1.838678640780145
sI54
F2.847846271593715
sI23
g3
(g7
S'\xd8B\xb1R\\\x0e\xfc?'
p2298
tp2299
Rp2300
sI92
F0.0
sI46
g3
(g7
S'\x08\xb1MM\x13\xf2\xf9?'
p2301
tp2302
Rp2303
sI37
F2.1329199824432106
ssI20
(dp2304
I97
g3
(g7
S'\x9e%\x03\xa80>\x06@'
p2305
tp2306
Rp2307
sI34
F0.8659411624757447
sI35
g3
(g7
S'843\xc9\x10\xff\x13@'
p2308
tp2309
Rp2310
sI4
F3.628139844648824
sI40
F2.0410906778857956
sI9
F2.1370355943142503
sI76
F0.42518860758258625
sI16
g3
(g7
S'\x9e\xf6\xdd;\xdf\x1d\xe9?'
p2311
tp2312
Rp2313
sI20
F0.0
sI91
F0.0
sI60
g3
(g7
S'R\xa1\xa7\xce\xbd5\xec?'
p2314
tp2315
Rp2316
ssI21
(dp2317
I32
F0.011336817598760193
sI57
g3
(g7
S'l\x17\x88c\x972\xf1?'
p2318
tp2319
Rp2320
sI62
F2.1025807363309705
ssI22
(dp2321
I97
F1.4216272063098636
sI35
g3
(g7
S'^\xe9n[2\xa4\x0b@'
p2322
tp2323
Rp2324
sI4
F1.4965174770730008
sI40
F0.9715155931469657
sI9
F4.333623794724472
sI45
F0.5794970368711494
sI46
F0.6504633442024559
sI16
g3
(g7
S'\xa6v\xa2\xe5\xa7S\xed?'
p2325
tp2326
Rp2327
sI20
F0.6003361362265596
sI87
F3.194747414917738
sI91
F0.0
sI60
g3
(g7
S'\xc67?\xdf3\x17\t@'
p2328
tp2329
Rp2330
ssI23
(dp2331
I66
g3
(g7
S'#M\xe3QR4\x02@'
p2332
tp2333
Rp2334
sI15
F1.2583839301885913
sI37
F6.630441734903069
sI85
F2.8618773559445474
sI7
F0.1915132700894716
ssI24
(dp2335
I64
g3
(g7
S'\x0fz\x1aJ\x80M\x1b@'
p2336
tp2337
Rp2338
sI1
F0.8344348494716691
sI83
F2.422165986157914
sI3
F4.356560155520965
sI72
F0.0
sI23
F2.4023275793409464
sI77
F1.9666706561867486
sI99
F3.9562691663604617
sI50
F0.0
sI51
F2.451835113699799
sI55
F1.3851668978708414
sI56
g3
(g7
S'\xe4\x0cv\x83\x8d(&@'
p2339
tp2340
Rp2341
sI60
F0.580760647759298
sI61
F0.0
sI94
F1.5997282480191493
ssI25
(dp2342
I33
F0.0
sI67
F0.8032696373444735
sI4
F0.0
sI10
F1.4029974627141704
sI76
g3
(g7
S'\xe8\xc1\xfez\xb6]\xe3?'
p2343
tp2344
Rp2345
sI14
g3
(g7
S'Z\nvi\xc2\xde\x11@'
p2346
tp2347
Rp2348
sI15
g3
(g7
S'd\xda\xb5\xa4\xcd1\xfa?'
p2349
tp2350
Rp2351
sI68
F0.0
sI42
F3.09540241369992
ssI26
(dp2352
I70
F0.7663606176438891
sI11
g3
(g7
S'\xec\xca\xa3M\x9e\xe5\xea?'
p2353
tp2354
Rp2355
sI13
F1.1077687611846394
sI78
F0.8134978962898113
sI80
g3
(g7
S'\xd4i)\x15U\x81\x01@'
p2356
tp2357
Rp2358
sI82
F1.8136199363870313
sI24
g3
(g7
S'\xca\xa3\xe7B\xfd<\x0f@'
p2359
tp2360
Rp2361
sI30
F1.6784692073902092
sssI157
(dp2362
I0
(dp2363
I48
F2.8222072917865235
sI81
F2.1013312817613965
sI52
F1.983780749485995
sI71
F2.1007554278535103
sI8
F0.0
sI88
g2174
sI27
F1.75084441291738
ssI1
(dp2364
I16
g2178
sI33
F1.6658977104319879
sI34
F3.104523692667571
sI71
g2181
sI88
g2184
sI28
F0.4158276347008075
sI79
F4.47395346919473
ssI2
(dp2365
I97
F2.1405192899356407
sI98
F0.0
sI100
F1.046564300633081
sI86
F2.3087092879036426
sI6
g2188
sI13
F0.08325210856740717
sI14
F0.504740037546984
sI21
F2.8575019372298427
sI54
g2191
ssI3
(dp2366
I64
g2195
sI1
F1.4050916640579365
sI83
F4.093415681488257
sI3
F0.8114447561762917
sI4
F2.1957495726968106
sI77
F0.0
sI46
F0.5890248790506731
sI99
F0.705551965837063
sI50
F0.8595417229626943
sI51
F0.48350895970670665
sI22
F0.832664654065624
sI23
F0.0
sI56
g2198
sI60
F4.27496076885759
sI61
F3.479911492006245
ssI4
(dp2367
I35
F0.5082180209581831
sI69
g2202
sI41
F3.9297574857134694
sI76
F1.6861662942601952
sI78
F3.5291954508637695
sI16
F1.0073212003505945
sI20
F4.132881467048576
sI53
F0.0
sI54
F3.856366683544164
sI87
F0.8874307228050696
sI59
g2205
sI60
g2208
sI62
F0.24839379200520617
sI85
F0.3222510544743588
ssI5
(dp2368
I6
F0.2913105171125557
sI79
F0.0
ssI6
(dp2369
I66
F0.0
ssI7
(dp2370
I70
F1.0350912986124214
sI13
F4.561120665054225
sI78
F2.2308384478542083
sI80
g2214
sI82
F3.4170539025579196
sI24
g2217
sI58
F1.3182803330772361
sI90
F1.6118809302744308
sI30
F6.01445476953687
ssI8
(dp2371
I64
F0.0
sI100
F0.6256026116334605
sI69
g2221
sI42
F0.0
sI76
F2.2584175123834673
sI47
F0.0
sI49
g2224
sI53
F1.389228064691514
sI54
F0.0
sI87
F2.8412864742835016
sI59
g2227
sI60
g2230
sI93
F2.1359613870496355
ssI9
(dp2372
I69
g2234
sI39
F0.0
sI41
F0.0
sI43
F3.7745232960953996
sI76
F0.0
sI77
F2.4508228087741495
sI15
F0.4933931688940538
sI16
F4.5738470255437385
sI53
F0.28435555888418895
sI54
F0.0
sI87
F0.0
sI59
g2237
sI60
g2240
sI37
F0.0
ssI10
(dp2373
I67
F0.0
sI35
F2.994660174120275
ssI11
(dp2374
I8
F0.0
sI49
F1.9154857673768826
sI63
g2245
sI84
g2248
sI7
g2251
ssI12
(dp2375
I97
g2255
sI34
F3.122623992523504
sI35
g2258
sI4
F6.38710677965561
sI40
F0.6276685076439784
sI9
F4.081515917177646
sI46
F1.0856216860573893
sI16
F0.0
sI20
F0.0
sI87
F2.420488149683281
sI91
F0.5779785193107919
sI60
F0.5894550750268076
ssI13
(dp2376
I3
F0.323282932423861
sI69
F0.0
sI76
F0.0
sI45
F3.2095160705935655
sI16
F1.1359185923539503
sI20
F1.3305077219213377
sI53
F2.3880359696918236
sI54
F3.412559339377622
sI87
F1.018066301868122
sI59
g2262
sI60
g2265
ssI15
(dp2377
I68
F2.7965988064473715
sI39
F0.0
sI43
F0.0
sI44
g2269
sI77
F0.06167998675566644
sI61
F0.0
sI57
g2272
sI29
g2275
ssI16
(dp2378
I64
F1.1322519875732149
sI51
g3
(g7
S'\x19\xa0m\x82\xb5\x86\r@'
p2379
tp2380
Rp2381
sI66
g3
(g7
S'2D\x909\xe3\x86\xf9?'
p2382
tp2383
Rp2384
sI19
g3
(g7
S'\xeae\xe3]\xd7\xe1\x02@'
p2385
tp2386
Rp2387
sI99
F0.23147693463262697
sI25
F1.1135492861475182
sI18
F4.380353499622934
sI78
F1.62446831556313
ssI17
(dp2388
I73
F0.0
sI55
F2.125922253637402
sI5
F0.0
sI38
F2.0367451945261217
sI23
g2289
ssI18
(dp2389
I16
F0.5554229599534762
sI5
F1.4502412421482818
sI70
F0.7786351616567573
sI23
F0.5686347717744208
sI92
g2293
sI46
g2296
ssI19
(dp2390
I16
F0.3101081372031153
sI5
F1.838678640780145
sI54
F2.847846271593715
sI23
g2300
sI92
F0.0
sI46
g2303
sI37
F2.1329199824432106
ssI20
(dp2391
I97
g2307
sI34
F0.8659411624757447
sI35
g2310
sI4
F3.628139844648824
sI40
F2.0410906778857956
sI9
F2.1370355943142503
sI76
F0.42518860758258625
sI16
g2313
sI20
F0.0
sI91
F0.0
sI60
g2316
ssI21
(dp2392
I32
F0.011336817598760193
sI57
g2320
sI62
F2.1025807363309705
ssI22
(dp2393
I97
F1.4216272063098636
sI35
g2324
sI4
F1.4965174770730008
sI40
F0.9715155931469657
sI9
F4.333623794724472
sI45
F0.5794970368711494
sI46
F0.6504633442024559
sI16
g2327
sI20
F0.6003361362265596
sI87
F3.194747414917738
sI91
F0.0
sI60
g2330
ssI23
(dp2394
I66
g2334
sI15
F1.2583839301885913
sI37
F6.630441734903069
sI85
F2.8618773559445474
sI7
F0.1915132700894716
ssI24
(dp2395
I64
g2338
sI1
F0.8344348494716691
sI83
F2.422165986157914
sI3
F4.356560155520965
sI72
F0.0
sI23
F2.4023275793409464
sI77
F1.9666706561867486
sI99
F3.9562691663604617
sI50
F0.0
sI51
F2.451835113699799
sI55
F1.3851668978708414
sI56
g2341
sI60
F0.580760647759298
sI61
F0.0
sI94
F1.5997282480191493
ssI25
(dp2396
I33
F0.0
sI67
F0.8032696373444735
sI4
F0.0
sI10
F1.4029974627141704
sI76
g2345
sI14
g2348
sI15
g2351
sI68
F0.0
sI42
F3.09540241369992
ssI26
(dp2397
I70
F0.7663606176438891
sI11
g2355
sI13
F1.1077687611846394
sI78
F0.8134978962898113
sI80
g2358
sI82
F1.8136199363870313
sI24
g2361
sI30
F1.6784692073902092
sssI158
(dp2398
I0
(dp2399
I48
F2.8222072917865235
sI81
F2.1013312817613965
sI52
F1.983780749485995
sI71
F2.1007554278535103
sI8
F0.0
sI88
g2174
sI27
F1.75084441291738
ssI1
(dp2400
I16
g2178
sI33
F1.6658977104319879
sI34
F3.104523692667571
sI71
g2181
sI88
g2184
sI28
F0.4158276347008075
sI79
F4.47395346919473
ssI2
(dp2401
I97
F2.1405192899356407
sI98
F0.0
sI100
F1.046564300633081
sI54
g2191
sI6
g2188
sI13
F0.08325210856740717
sI14
F0.504740037546984
sI21
F2.8575019372298427
sI86
F2.3087092879036426
ssI3
(dp2402
I64
g2195
sI1
F1.4050916640579365
sI3
F0.8114447561762917
sI4
F2.1957495726968106
sI51
F0.48350895970670665
sI77
F0.0
sI46
F0.5890248790506731
sI99
F0.705551965837063
sI50
F0.8595417229626943
sI83
F4.093415681488257
sI22
F0.832664654065624
sI23
F0.0
sI56
g2198
sI60
F4.27496076885759
sI61
F3.479911492006245
ssI4
(dp2403
I35
F0.5082180209581831
sI69
g2202
sI41
F3.9297574857134694
sI76
F1.6861662942601952
sI78
F3.5291954508637695
sI16
F1.0073212003505945
sI20
F4.132881467048576
sI53
F0.0
sI54
F3.856366683544164
sI87
F0.8874307228050696
sI59
g2205
sI60
g2208
sI62
F0.24839379200520617
sI85
F0.3222510544743588
ssI5
(dp2404
I6
F0.2913105171125557
sI79
F0.0
ssI6
(dp2405
I66
F0.0
ssI7
(dp2406
I70
F1.0350912986124214
sI13
F4.561120665054225
sI78
F2.2308384478542083
sI80
g2214
sI82
F3.4170539025579196
sI24
g2217
sI58
F1.3182803330772361
sI90
F1.6118809302744308
sI30
F6.01445476953687
ssI8
(dp2407
I64
F0.0
sI100
F0.6256026116334605
sI69
g2221
sI42
F0.0
sI76
F2.2584175123834673
sI47
F0.0
sI49
g2224
sI53
F1.389228064691514
sI54
F0.0
sI87
F2.8412864742835016
sI59
g2227
sI60
g2230
sI93
F2.1359613870496355
ssI9
(dp2408
I69
g2234
sI39
F0.0
sI41
F0.0
sI43
F3.7745232960953996
sI76
F0.0
sI77
F2.4508228087741495
sI15
F0.4933931688940538
sI16
F4.5738470255437385
sI53
F0.28435555888418895
sI54
F0.0
sI87
F0.0
sI59
g2237
sI60
g2240
sI37
F0.0
ssI10
(dp2409
I35
F2.994660174120275
sI67
F0.0
ssI11
(dp2410
I8
F0.0
sI49
F1.9154857673768826
sI7
g2251
sI84
g2248
sI63
g2245
ssI12
(dp2411
I97
g2255
sI34
F3.122623992523504
sI35
g2258
sI4
F6.38710677965561
sI40
F0.6276685076439784
sI9
F4.081515917177646
sI46
F1.0856216860573893
sI16
F0.0
sI20
F0.0
sI87
F2.420488149683281
sI91
F0.5779785193107919
sI60
F0.5894550750268076
ssI13
(dp2412
I3
F0.323282932423861
sI69
F0.0
sI76
F0.0
sI45
F3.2095160705935655
sI16
F1.1359185923539503
sI20
F1.3305077219213377
sI53
F2.3880359696918236
sI54
F3.412559339377622
sI87
F1.018066301868122
sI59
g2262
sI60
g2265
ssI15
(dp2413
I68
F2.7965988064473715
sI39
F0.0
sI43
F0.0
sI44
g2269
sI77
F0.06167998675566644
sI29
g2275
sI57
g2272
sI61
F0.0
ssI16
(dp2414
I64
F1.4754713245117381
sI19
g2285
sI66
g2282
sI51
g2279
sI25
F0.9506660376795047
sI18
F3.6155834609034443
sI78
F1.1026345598963019
ssI17
(dp2415
I73
F0.0
sI23
g2289
sI5
F0.0
sI38
F2.0367451945261217
sI55
F2.125922253637402
ssI18
(dp2416
I16
F0.5554229599534762
sI5
F1.4502412421482818
sI70
F0.7786351616567573
sI23
F0.5686347717744208
sI92
g2293
sI46
g2296
ssI19
(dp2417
I16
F0.3101081372031153
sI5
F1.838678640780145
sI54
F2.847846271593715
sI23
g2300
sI92
F0.0
sI46
g2303
sI37
F2.1329199824432106
ssI20
(dp2418
I97
g2307
sI34
F0.8659411624757447
sI35
g2310
sI4
F3.628139844648824
sI40
F2.0410906778857956
sI9
F2.1370355943142503
sI76
F0.42518860758258625
sI16
g2313
sI20
F0.0
sI91
F0.0
sI60
g2316
ssI21
(dp2419
I32
F0.011336817598760193
sI57
g2320
sI62
F2.1025807363309705
ssI22
(dp2420
I97
F1.4216272063098636
sI35
g2324
sI4
F1.4965174770730008
sI40
F0.9715155931469657
sI9
F4.333623794724472
sI45
F0.5794970368711494
sI46
F0.6504633442024559
sI16
g2327
sI20
F0.6003361362265596
sI87
F3.194747414917738
sI91
F0.0
sI60
g2330
ssI23
(dp2421
I66
g2334
sI7
F0.1915132700894716
sI37
F6.630441734903069
sI85
F2.8618773559445474
sI15
F1.2583839301885913
ssI24
(dp2422
I64
g3
(g7
S'%\xc0\x9c\x8b.\xeb\x18@'
p2423
tp2424
Rp2425
sI1
F0.0
sI3
F3.6606912501288402
sI51
F3.7687901055574136
sI72
F0.0
sI55
F0.0
sI77
F2.02132646704634
sI99
F3.556631703678091
sI50
F0.32157700123799954
sI83
F2.074235333831225
sI23
F3.572901858083478
sI56
g3
(g7
S'\xe4\x1f\xf9\x19\x8d\xba$@'
p2426
tp2427
Rp2428
sI60
F0.08776519623140794
sI61
F0.4661627806339764
sI94
F3.028656057121922
ssI25
(dp2429
I33
F0.0
sI67
F0.8032696373444735
sI4
F0.0
sI10
F1.4029974627141704
sI76
g2345
sI14
g2348
sI15
g2351
sI68
F0.0
sI42
F3.09540241369992
ssI26
(dp2430
I70
F0.7663606176438891
sI11
g2355
sI13
F1.1077687611846394
sI78
F0.8134978962898113
sI80
g2358
sI82
F1.8136199363870313
sI24
g2361
sI30
F1.6784692073902092
sssI159
(dp2431
I0
(dp2432
I48
F2.8222072917865235
sI81
F2.1013312817613965
sI52
F1.983780749485995
sI71
F2.1007554278535103
sI8
F0.0
sI88
g2174
sI27
F1.75084441291738
ssI1
(dp2433
I16
g2178
sI33
F1.6658977104319879
sI34
F3.104523692667571
sI71
g2181
sI88
g2184
sI28
F0.4158276347008075
sI79
F4.47395346919473
ssI2
(dp2434
I97
F2.1405192899356407
sI98
F0.0
sI100
F1.046564300633081
sI86
F2.3087092879036426
sI6
g2188
sI13
F0.08325210856740717
sI14
F0.504740037546984
sI21
F2.8575019372298427
sI54
g2191
ssI3
(dp2435
I64
g2195
sI1
F1.4050916640579365
sI83
F4.093415681488257
sI3
F0.8114447561762917
sI4
F2.1957495726968106
sI77
F0.0
sI46
F0.5890248790506731
sI99
F0.705551965837063
sI50
F0.8595417229626943
sI51
F0.48350895970670665
sI22
F0.832664654065624
sI23
F0.0
sI56
g2198
sI60
F4.27496076885759
sI61
F3.479911492006245
ssI4
(dp2436
I35
F0.5082180209581831
sI69
g2202
sI41
F3.9297574857134694
sI76
F1.6861662942601952
sI78
F3.5291954508637695
sI16
F1.0073212003505945
sI20
F4.132881467048576
sI53
F0.0
sI54
F3.856366683544164
sI87
F0.8874307228050696
sI59
g2205
sI60
g2208
sI62
F0.24839379200520617
sI85
F0.3222510544743588
ssI5
(dp2437
I6
F0.2913105171125557
sI79
F0.0
ssI6
(dp2438
I66
F0.0
ssI7
(dp2439
I70
F1.0350912986124214
sI13
F4.561120665054225
sI78
F2.2308384478542083
sI80
g2214
sI82
F3.4170539025579196
sI24
g2217
sI58
F1.3182803330772361
sI90
F1.6118809302744308
sI30
F6.01445476953687
ssI8
(dp2440
I64
F0.0
sI100
F0.6256026116334605
sI69
g2221
sI42
F0.0
sI76
F2.2584175123834673
sI47
F0.0
sI49
g2224
sI53
F1.389228064691514
sI54
F0.0
sI87
F2.8412864742835016
sI59
g2227
sI60
g2230
sI93
F2.1359613870496355
ssI9
(dp2441
I69
g2234
sI39
F0.0
sI41
F0.0
sI43
F3.7745232960953996
sI76
F0.0
sI77
F2.4508228087741495
sI15
F0.4933931688940538
sI16
F4.5738470255437385
sI53
F0.28435555888418895
sI54
F0.0
sI87
F0.0
sI59
g2237
sI60
g2240
sI37
F0.0
ssI10
(dp2442
I67
F0.0
sI35
F2.994660174120275
ssI11
(dp2443
I8
F0.0
sI49
F1.9154857673768826
sI63
g2245
sI84
g2248
sI7
g2251
ssI12
(dp2444
I97
g2255
sI34
F3.122623992523504
sI35
g2258
sI4
F6.38710677965561
sI40
F0.6276685076439784
sI9
F4.081515917177646
sI46
F1.0856216860573893
sI16
F0.0
sI20
F0.0
sI87
F2.420488149683281
sI91
F0.5779785193107919
sI60
F0.5894550750268076
ssI13
(dp2445
I3
F0.323282932423861
sI69
F0.0
sI76
F0.0
sI45
F3.2095160705935655
sI16
F1.1359185923539503
sI20
F1.3305077219213377
sI53
F2.3880359696918236
sI54
F3.412559339377622
sI87
F1.018066301868122
sI59
g2262
sI60
g2265
ssI15
(dp2446
I68
F2.7965988064473715
sI39
F0.0
sI43
F0.0
sI44
g2269
sI77
F0.06167998675566644
sI61
F0.0
sI57
g2272
sI29
g2275
ssI16
(dp2447
I64
F1.1322519875732149
sI51
g2381
sI66
g2384
sI99
F0.23147693463262697
sI78
F1.62446831556313
sI18
F4.380353499622934
sI19
g2387
sI25
F1.1135492861475182
ssI17
(dp2448
I73
F0.0
sI55
F2.125922253637402
sI5
F0.0
sI38
F2.0367451945261217
sI23
g2289
ssI18
(dp2449
I16
F0.5554229599534762
sI5
F1.4502412421482818
sI70
F0.7786351616567573
sI23
F0.5686347717744208
sI92
g2293
sI46
g2296
ssI19
(dp2450
I16
F0.3101081372031153
sI5
F1.838678640780145
sI54
F2.847846271593715
sI23
g2300
sI92
F0.0
sI46
g2303
sI37
F2.1329199824432106
ssI20
(dp2451
I97
g2307
sI34
F0.8659411624757447
sI35
g2310
sI4
F3.628139844648824
sI40
F2.0410906778857956
sI9
F2.1370355943142503
sI76
F0.42518860758258625
sI16
g2313
sI20
F0.0
sI91
F0.0
sI60
g2316
ssI21
(dp2452
I32
F0.011336817598760193
sI57
g2320
sI62
F2.1025807363309705
ssI22
(dp2453
I97
F1.4216272063098636
sI35
g2324
sI4
F1.4965174770730008
sI40
F0.9715155931469657
sI9
F4.333623794724472
sI45
F0.5794970368711494
sI46
F0.6504633442024559
sI16
g2327
sI20
F0.6003361362265596
sI87
F3.194747414917738
sI91
F0.0
sI60
g2330
ssI23
(dp2454
I66
g2334
sI15
F1.2583839301885913
sI37
F6.630441734903069
sI85
F2.8618773559445474
sI7
F0.1915132700894716
ssI24
(dp2455
I64
g3
(g7
S'\xbf\xa4Fm\x01.\x17@'
p2456
tp2457
Rp2458
sI1
F0.11172281601620326
sI83
F3.5432877481146003
sI3
F3.379455973567665
sI72
F0.49875534655963744
sI23
F3.4970474750589036
sI99
F4.388528127605999
sI50
F0.457327085098861
sI51
F2.692567967300163
sI55
F0.0
sI56
g3
(g7
S'<\x82\xd2\xacZ\x02$@'
p2459
tp2460
Rp2461
sI60
F1.6923462854195135
sI61
F0.0
sI94
F2.245319311432347
ssI25
(dp2462
I33
F0.0
sI67
F0.8032696373444735
sI4
F0.0
sI10
F1.4029974627141704
sI76
g2345
sI14
g2348
sI15
g2351
sI68
F0.0
sI42
F3.09540241369992
ssI26
(dp2463
I70
F0.7663606176438891
sI11
g2355
sI13
F1.1077687611846394
sI78
F0.8134978962898113
sI80
g2358
sI82
F1.8136199363870313
sI24
g2361
sI30
F1.6784692073902092
sssI160
(dp2464
I0
(dp2465
I71
F1.1530734545913557
sI8
F0.9119815969279442
sI48
F2.1170794511874824
sI81
F1.3528563728723797
sI19
F0.17777954960482145
sI52
F0.9742127260974474
sI88
g3
(g7
S'\xb7=\x0eI\xc1\x92\n@'
p2466
tp2467
Rp2468
sI27
F1.1700959491055842
ssI1
(dp2469
I16
g3
(g7
S'\xa0\xf6\xee\xc0\xdb{\xf6?'
p2470
tp2471
Rp2472
sI33
F2.8459056719393345
sI34
F4.579675074855241
sI71
g3
(g7
S'b\xa8\xa3\x06\xb37\x17@'
p2473
tp2474
Rp2475
sI88
F0.0
sI79
F4.793177823530474
ssI2
(dp2476
I97
F2.7363785052580996
sI98
F0.46014493805355516
sI100
F0.0
sI54
g3
(g7
S'\xf6d\xd5[\xce\xc0\x08@'
p2477
tp2478
Rp2479
sI6
g3
(g7
S'%\x96\xc9\xb0\xca\x88\x11@'
p2480
tp2481
Rp2482
sI13
F0.0
sI21
F1.846648974919791
sI86
F2.5883000763167154
sI63
F0.4353942025361094
ssI3
(dp2483
I64
g3
(g7
S'\x9c\x9f7\x98p\x8c\x1e@'
p2484
tp2485
Rp2486
sI1
F1.2957077075457477
sI3
F0.0
sI4
F1.4504670549267598
sI51
F0.6143736529803594
sI72
g3
(g7
S'p\xb3K\xee\xd9\xfc\x0e@'
p2487
tp2488
Rp2489
sI46
F2.5573581302032538
sI99
F2.157943789658878
sI50
F0.0
sI83
F4.884085028879995
sI22
F0.0
sI23
F0.0
sI56
g3
(g7
S'y\xc4\xaa\xefa\x02\x1d@'
p2490
tp2491
Rp2492
sI60
F3.4976222034609865
sI61
F2.520689638842545
ssI4
(dp2493
I69
g3
(g7
S'\xf9\xd8Y<\xed\xe9\x10@'
p2494
tp2495
Rp2496
sI41
F5.948586933390057
sI76
F0.7212336266991295
sI78
F2.457775825845185
sI16
F0.5662477629109053
sI20
F3.594631183357604
sI53
F3.1202849530584134
sI54
F6.007431169350013
sI87
F0.07420360211557626
sI59
g3
(g7
S'V7\xa9\x9fA9\xfd?'
p2497
tp2498
Rp2499
sI60
g3
(g7
S'($\x94\xb4\nq\r@'
p2500
tp2501
Rp2502
sI62
F0.0
sI85
F1.519568285190366
ssI5
(dp2503
I6
F1.3909590003180914
sI79
F1.1322389676234736
ssI7
(dp2504
I70
F1.2627181492199
sI11
g3
(g7
S'\xe0pn\r\x82\x9c\x08@'
p2505
tp2506
Rp2507
sI13
F0.7548479505612518
sI78
F2.2424729831247854
sI80
F0.0
sI82
F2.020081577914914
sI55
F0.8794628643090668
sI24
g3
(g7
S'\x16tIp\x9eY\r@'
p2508
tp2509
Rp2510
sI58
F2.3696581659210754
sI90
F0.0
sI30
F3.147612362215423
ssI8
(dp2511
I64
F0.0
sI100
F0.6045224865158483
sI69
g3
(g7
S'\xae\x87E\x9fEU\xf2?'
p2512
tp2513
Rp2514
sI42
F0.8718257771808796
sI76
F2.492919190725993
sI47
F0.0
sI16
F1.1315255769155257
sI49
g3
(g7
S'\xae\x99pG\x84B\xf0?'
p2515
tp2516
Rp2517
sI53
F0.8501676286736213
sI54
F0.0
sI87
F0.0
sI25
F0.836493558556948
sI59
g3
(g7
S'\r\x15\xf0EX{\x17@'
p2518
tp2519
Rp2520
sI60
g3
(g7
S',\x96+\xfd\x97\xe9\x0e@'
p2521
tp2522
Rp2523
sI93
F3.1239824065821793
ssI9
(dp2524
I69
g3
(g7
S'\x96m\xd1\x9ae\x82\x00@'
p2525
tp2526
Rp2527
sI41
F0.8576044029993267
sI43
F4.401344256175531
sI76
F0.0
sI77
F3.54302317001823
sI16
F4.505632994806873
sI53
F1.0518578783218566
sI54
F0.0
sI87
F0.0
sI59
g3
(g7
S'\x9a\x15\xd9lG\x9e\xdf?'
p2528
tp2529
Rp2530
sI60
g3
(g7
S'\x07b\xdc\xe4\x15C\xef?'
p2531
tp2532
Rp2533
sI37
F0.0
ssI10
(dp2534
I35
F4.125707526647291
sI67
F0.0
ssI11
(dp2535
I17
F0.8852771139839319
sI84
g3
(g7
S'v`FDx\x8b\x03@'
p2536
tp2537
Rp2538
sI49
F0.0
sI8
F1.4310801280153354
sI52
F0.08401376309444708
sI7
g3
(g7
S'B\t%xIA\xfb?'
p2539
tp2540
Rp2541
sI63
g3
(g7
S'\x17\xff\t1q\xd9\xef?'
p2542
tp2543
Rp2544
ssI12
(dp2545
I97
g3
(g7
S'\x85\xd4\xf1\xf64_\x06@'
p2546
tp2547
Rp2548
sI34
F1.1137107025573754
sI35
g3
(g7
S'RJ\x8d\xec\xee\xa9\x07@'
p2549
tp2550
Rp2551
sI4
F4.329782209808125
sI40
F3.0389123605742285
sI9
F1.5659203227172889
sI46
F0.0
sI16
g3
(g7
S'\xcc\xb0\x0f\xfc\x9ba\xe6?'
p2552
tp2553
Rp2554
sI20
F0.0
sI87
F1.8735257695292016
sI91
F1.0326371336976576
sI60
F1.312184177954599
sI30
F0.957599259024471
ssI13
(dp2555
I3
F0.0
sI69
g3
(g7
S'D\x94\x85\xba\xfeR\xd7?'
p2556
tp2557
Rp2558
sI76
F0.0
sI45
F4.478817332306082
sI16
F0.2796249989112773
sI20
F0.019703001171678048
sI53
F3.370483692211097
sI54
F4.4357020454135805
sI87
F0.0
sI59
g3
(g7
S'\xc2\xda\xbc\x08\x94\xa7\xfe?'
p2559
tp2560
Rp2561
sI60
g3
(g7
S'\xd4\x7f~O"@\x14@'
p2562
tp2563
Rp2564
sI61
F0.7578338919168686
ssI15
(dp2565
I68
F0.8872686587897216
sI39
F0.7851854555545
sI57
g3
(g7
S'\xfe\xd3z\x95\xaf\x1f\xe4?'
p2566
tp2567
Rp2568
sI43
F0.11448140640156657
sI44
g3
(g7
S'mz\xb1\x11\xf2Z\x0e@'
p2569
tp2570
Rp2571
sI29
g3
(g7
S'\xbcJ\x97\x99\xc2m\x12@'
p2572
tp2573
Rp2574
sI61
F0.9705495800997689
ssI16
(dp2575
I64
F0.34774929569663326
sI19
g3
(g7
S'\x91w\x169Sn\x03@'
p2576
tp2577
Rp2578
sI18
F1.4344928844178053
sI51
g3
(g7
S'\x94\x17\x97\xdb\xebt\x18@'
p2579
tp2580
Rp2581
sI78
F1.1011917861890859
ssI17
(dp2582
I73
F0.0
sI23
g3
(g7
S'\xd5\x82\xc3(b\xa5\xec?'
p2583
tp2584
Rp2585
sI5
F0.008569817867926483
sI38
F1.8727119258247544
sI55
F1.9091454306130184
ssI18
(dp2586
I16
F0.0
sI97
g3
(g7
S':\xd0\xcd\\Z\x19\xf4?'
p2587
tp2588
Rp2589
sI70
F0.0
sI23
F0.0
sI92
g3
(g7
S'\xfdz\xbd\x889\x9b\x07@'
p2590
tp2591
Rp2592
sI46
F0.0
ssI19
(dp2593
I16
F0.0
sI97
F0.0
sI5
F1.886468176414351
sI54
F2.4079050313739643
sI23
g3
(g7
S'\x8a<S\xb6/\x0b\t@'
p2594
tp2595
Rp2596
sI92
F0.769689901028506
sI37
F0.0
ssI20
(dp2597
I97
g3
(g7
S'\xd8w\x18\xa7\xd4\xcc\xd4?'
p2598
tp2599
Rp2600
sI34
F0.04720209835610285
sI35
g3
(g7
S'\xbb\x07\xfbG\xc0\x97\x10@'
p2601
tp2602
Rp2603
sI40
F3.135684877987668
sI9
F2.115923056373121
sI16
g3
(g7
S'\xd0\x02Q\x05AF\r@'
p2604
tp2605
Rp2606
sI20
F0.7503590991586867
sI91
F0.0
sI60
g3
(g7
S'D\x1d\x88\xac\x9f\x9e\xca?'
p2607
tp2608
Rp2609
ssI21
(dp2610
I32
F0.6659659023759439
sI57
g3
(g7
S'\xdbo\x0f\xa6\xb3\x8a\xf1?'
p2611
tp2612
Rp2613
sI62
F3.447251578638472
ssI22
(dp2614
I97
F0.22259684002291044
sI35
g3
(g7
S'"Z.G_\x0f\x06@'
p2615
tp2616
Rp2617
sI4
F0.26403365657738187
sI40
F1.6539228637467676
sI9
F4.347056894139181
sI46
F1.2942235875269994
sI16
g3
(g7
S'\xfa:WZ\xb4\x11\x08@'
p2618
tp2619
Rp2620
sI20
F0.1592987318505421
sI87
F4.923228021680757
sI91
F1.4456696307431123
ssI23
(dp2621
I66
g3
(g7
S'\xb2\x13\x1f\x92\xa3\x15\r@'
p2622
tp2623
Rp2624
sI37
F6.974346709064367
sI85
F2.3956558303552167
sI15
F0.0
ssI24
(dp2625
I64
g3
(g7
S'\xd9\x0ck\x12\x812"@'
p2626
tp2627
Rp2628
sI1
F0.2797544364694913
sI3
F2.686081575461698
sI72
g3
(g7
S'\x88\x1e\xa6e<\xf9\xd2?'
p2629
tp2630
Rp2631
sI77
F2.361906817034998
sI83
F0.122307945443692
sI23
F4.013872762853094
sI94
F0.6719387281837708
sI97
F0.2660744200484623
sI99
F2.4431951119405597
sI50
F1.6183253945815186
sI51
F2.818192823711727
sI55
F0.5913899089206477
sI56
g3
(g7
S'D\x92\xc3\x86X\xe6#@'
p2632
tp2633
Rp2634
sI60
F0.6708554570794982
sI61
F2.8084059588064685
ssI25
(dp2635
I33
F0.04351578630495512
sI68
g3
(g7
S'\xd6\x8d)\x002\xfa\xee?'
p2636
tp2637
Rp2638
sI10
F0.0
sI76
F0.0
sI14
g3
(g7
S'\xe2\\\xc0\xae\xd9\xf4\x19@'
p2639
tp2640
Rp2641
sI15
F0.8793987383609744
sI89
F0.7794264255953388
sI42
F3.5563275814532567
sI4
F1.3522773472929517
ssI26
(dp2642
I96
F0.5481829836485237
sI70
F1.7971045505788572
sI11
g3
(g7
S'`i\x13\xa0o\xce\x03@'
p2643
tp2644
Rp2645
sI13
F0.7883770461765617
sI78
F1.5409353641431158
sI80
g3
(g7
S'\xc7\x97\xf0\xac\xb57\xf2?'
p2646
tp2647
Rp2648
sI82
F2.498523105515147
sI23
F3.2470739329162406
sI24
g3
(g7
S'\xf1Q\xdf5q?\x0b@'
p2649
tp2650
Rp2651
sI30
F0.0
sssI161
(dp2652
I0
(dp2653
I71
F1.1530734545913557
sI8
F0.9119815969279442
sI48
F2.1170794511874824
sI81
F1.3528563728723797
sI19
F0.17777954960482145
sI52
F0.9742127260974474
sI88
g2468
sI27
F1.1700959491055842
ssI1
(dp2654
I16
g2472
sI33
F2.8459056719393345
sI34
F4.579675074855241
sI71
g2475
sI88
F0.0
sI79
F4.793177823530474
ssI2
(dp2655
I97
F2.7363785052580996
sI98
F0.46014493805355516
sI100
F0.0
sI54
g2479
sI6
g2482
sI13
F0.0
sI21
F1.846648974919791
sI86
F2.5883000763167154
sI63
F0.4353942025361094
ssI3
(dp2656
I64
g2486
sI1
F1.2957077075457477
sI3
F0.0
sI4
F1.4504670549267598
sI51
F0.6143736529803594
sI72
g2489
sI46
F2.5573581302032538
sI99
F2.157943789658878
sI50
F0.0
sI83
F4.884085028879995
sI22
F0.0
sI23
F0.0
sI56
g2492
sI60
F3.4976222034609865
sI61
F2.520689638842545
ssI4
(dp2657
I69
g2496
sI41
F5.948586933390057
sI76
F0.7212336266991295
sI78
F2.457775825845185
sI16
F0.5662477629109053
sI20
F3.594631183357604
sI53
F3.1202849530584134
sI54
F6.007431169350013
sI87
F0.07420360211557626
sI59
g2499
sI60
g2502
sI62
F0.0
sI85
F1.519568285190366
ssI5
(dp2658
I6
F1.3909590003180914
sI79
F1.1322389676234736
ssI7
(dp2659
I70
F1.2627181492199
sI11
g2507
sI13
F0.7548479505612518
sI78
F2.2424729831247854
sI80
F0.0
sI82
F2.020081577914914
sI55
F0.8794628643090668
sI24
g2510
sI58
F2.3696581659210754
sI90
F0.0
sI30
F3.147612362215423
ssI8
(dp2660
I64
F0.5294124167244071
sI100
F0.0
sI69
g3
(g7
S't\xcee]\x93\xed\xf9?'
p2661
tp2662
Rp2663
sI42
F1.6115019338434036
sI76
F3.2941351595144774
sI47
F0.0
sI16
F0.14788399184891798
sI49
g3
(g7
S'\xd8d\x833iJ\xca?'
p2664
tp2665
Rp2666
sI53
F2.282557813614182
sI54
F1.8757143393476754
sI25
F3.081453568848721
sI59
g3
(g7
S'\x16\x8a\xa8\x7fI!\x15@'
p2667
tp2668
Rp2669
sI60
g3
(g7
S'\xab\xdez\x8c\xf03\x11@'
p2670
tp2671
Rp2672
sI93
F3.686782419492918
ssI9
(dp2673
I69
g2527
sI41
F0.8576044029993267
sI43
F4.401344256175531
sI76
F0.0
sI77
F3.54302317001823
sI16
F4.505632994806873
sI53
F1.0518578783218566
sI54
F0.0
sI87
F0.0
sI59
g2530
sI60
g2533
sI37
F0.0
ssI10
(dp2674
I35
F4.125707526647291
sI67
F0.0
ssI11
(dp2675
I17
F0.8852771139839319
sI84
g2538
sI49
F0.0
sI8
F1.4310801280153354
sI52
F0.08401376309444708
sI7
g2541
sI63
g2544
ssI12
(dp2676
I97
g2548
sI34
F1.1137107025573754
sI35
g2551
sI4
F4.329782209808125
sI40
F3.0389123605742285
sI9
F1.5659203227172889
sI46
F0.0
sI16
g2554
sI20
F0.0
sI87
F1.8735257695292016
sI91
F1.0326371336976576
sI60
F1.312184177954599
sI30
F0.957599259024471
ssI13
(dp2677
I3
F0.0
sI69
g2558
sI76
F0.0
sI45
F4.478817332306082
sI16
F0.2796249989112773
sI20
F0.019703001171678048
sI53
F3.370483692211097
sI54
F4.4357020454135805
sI87
F0.0
sI59
g2561
sI60
g2564
sI61
F0.7578338919168686
ssI15
(dp2678
I68
F0.8872686587897216
sI39
F0.7851854555545
sI57
g2568
sI43
F0.11448140640156657
sI44
g2571
sI29
g2574
sI61
F0.9705495800997689
ssI16
(dp2679
I64
F0.34774929569663326
sI19
g2578
sI18
F1.4344928844178053
sI51
g2581
sI78
F1.1011917861890859
ssI17
(dp2680
I73
F0.0
sI23
g2585
sI5
F0.008569817867926483
sI38
F1.8727119258247544
sI55
F1.9091454306130184
ssI18
(dp2681
I16
F0.0
sI97
g2589
sI70
F0.0
sI23
F0.0
sI92
g2592
sI46
F0.0
ssI19
(dp2682
I16
F0.0
sI97
F0.0
sI5
F1.886468176414351
sI54
F2.4079050313739643
sI23
g2596
sI92
F0.769689901028506
sI37
F0.0
ssI20
(dp2683
I97
g2600
sI34
F0.04720209835610285
sI35
g2603
sI40
F3.135684877987668
sI9
F2.115923056373121
sI16
g2606
sI20
F0.7503590991586867
sI91
F0.0
sI60
g2609
ssI21
(dp2684
I32
F0.6659659023759439
sI57
g2613
sI62
F3.447251578638472
ssI22
(dp2685
I97
F0.22259684002291044
sI35
g2617
sI4
F0.26403365657738187
sI40
F1.6539228637467676
sI9
F4.347056894139181
sI46
F1.2942235875269994
sI16
g2620
sI20
F0.1592987318505421
sI87
F4.923228021680757
sI91
F1.4456696307431123
ssI23
(dp2686
I66
g2624
sI37
F6.974346709064367
sI85
F2.3956558303552167
sI15
F0.0
ssI24
(dp2687
I64
g2628
sI1
F0.2797544364694913
sI3
F2.686081575461698
sI72
g2631
sI77
F2.361906817034998
sI83
F0.122307945443692
sI23
F4.013872762853094
sI94
F0.6719387281837708
sI97
F0.2660744200484623
sI99
F2.4431951119405597
sI50
F1.6183253945815186
sI51
F2.818192823711727
sI55
F0.5913899089206477
sI56
g2634
sI60
F0.6708554570794982
sI61
F2.8084059588064685
ssI25
(dp2688
I33
F0.04351578630495512
sI68
g2638
sI10
F0.0
sI76
F0.0
sI14
g2641
sI15
F0.8793987383609744
sI89
F0.7794264255953388
sI42
F3.5563275814532567
sI4
F1.3522773472929517
ssI26
(dp2689
I96
F0.5481829836485237
sI70
F1.7971045505788572
sI11
g2645
sI13
F0.7883770461765617
sI78
F1.5409353641431158
sI80
g2648
sI82
F2.498523105515147
sI23
F3.2470739329162406
sI24
g2651
sI30
F0.0
sssI162
(dp2690
I0
(dp2691
I71
F1.1530734545913557
sI8
F0.9119815969279442
sI48
F2.1170794511874824
sI81
F1.3528563728723797
sI19
F0.17777954960482145
sI52
F0.9742127260974474
sI88
g2468
sI27
F1.1700959491055842
ssI1
(dp2692
I16
g2472
sI33
F2.8459056719393345
sI34
F4.579675074855241
sI71
g2475
sI88
F0.0
sI79
F4.793177823530474
ssI2
(dp2693
I97
F2.7363785052580996
sI98
F0.46014493805355516
sI100
F0.0
sI54
g2479
sI6
g2482
sI13
F0.0
sI21
F1.846648974919791
sI86
F2.5883000763167154
sI63
F0.4353942025361094
ssI3
(dp2694
I64
g2486
sI1
F1.2957077075457477
sI3
F0.0
sI4
F1.4504670549267598
sI51
F0.6143736529803594
sI72
g2489
sI46
F2.5573581302032538
sI99
F2.157943789658878
sI50
F0.0
sI83
F4.884085028879995
sI22
F0.0
sI23
F0.0
sI56
g2492
sI60
F3.4976222034609865
sI61
F2.520689638842545
ssI4
(dp2695
I69
g2496
sI41
F5.948586933390057
sI76
F0.7212336266991295
sI78
F2.457775825845185
sI16
F0.5662477629109053
sI20
F3.594631183357604
sI53
F3.1202849530584134
sI54
F6.007431169350013
sI87
F0.07420360211557626
sI59
g2499
sI60
g2502
sI62
F0.0
sI85
F1.519568285190366
ssI5
(dp2696
I6
F1.3909590003180914
sI79
F1.1322389676234736
ssI7
(dp2697
I70
F1.2627181492199
sI11
g2507
sI13
F0.7548479505612518
sI78
F2.2424729831247854
sI80
F0.0
sI82
F2.020081577914914
sI55
F0.8794628643090668
sI24
g2510
sI58
F2.3696581659210754
sI90
F0.0
sI30
F3.147612362215423
ssI8
(dp2698
I64
F0.5294124167244071
sI100
F0.0
sI69
g2663
sI42
F1.6115019338434036
sI76
F3.2941351595144774
sI47
F0.0
sI16
F0.14788399184891798
sI49
g2666
sI53
F2.282557813614182
sI54
F1.8757143393476754
sI25
F3.081453568848721
sI59
g2669
sI60
g2672
sI93
F3.686782419492918
ssI9
(dp2699
I69
g2527
sI41
F0.8576044029993267
sI43
F4.401344256175531
sI76
F0.0
sI77
F3.54302317001823
sI16
F4.505632994806873
sI53
F1.0518578783218566
sI54
F0.0
sI87
F0.0
sI59
g2530
sI60
g2533
sI37
F0.0
ssI10
(dp2700
I35
F4.125707526647291
sI67
F0.0
ssI11
(dp2701
I17
F0.8852771139839319
sI84
g2538
sI49
F0.0
sI8
F1.4310801280153354
sI52
F0.08401376309444708
sI7
g2541
sI63
g2544
ssI12
(dp2702
I97
g2548
sI34
F1.1137107025573754
sI35
g2551
sI4
F4.329782209808125
sI40
F3.0389123605742285
sI9
F1.5659203227172889
sI46
F0.0
sI16
g2554
sI20
F0.0
sI87
F1.8735257695292016
sI91
F1.0326371336976576
sI60
F1.312184177954599
sI30
F0.957599259024471
ssI13
(dp2703
I3
F0.0
sI69
g2558
sI76
F0.0
sI45
F4.478817332306082
sI16
F0.2796249989112773
sI20
F0.019703001171678048
sI53
F3.370483692211097
sI54
F4.4357020454135805
sI87
F0.0
sI59
g2561
sI60
g2564
sI61
F0.7578338919168686
ssI15
(dp2704
I68
F0.8872686587897216
sI39
F0.7851854555545
sI57
g2568
sI43
F0.11448140640156657
sI44
g2571
sI29
g2574
sI61
F0.9705495800997689
ssI16
(dp2705
I64
F0.34774929569663326
sI19
g2578
sI18
F1.4344928844178053
sI51
g2581
sI78
F1.1011917861890859
ssI17
(dp2706
I73
F0.0
sI23
g2585
sI5
F0.008569817867926483
sI38
F1.8727119258247544
sI55
F1.9091454306130184
ssI18
(dp2707
I16
F0.0
sI97
g2589
sI70
F0.0
sI23
F0.0
sI92
g2592
sI46
F0.0
ssI19
(dp2708
I16
F0.0
sI97
F0.0
sI5
F1.886468176414351
sI54
F2.4079050313739643
sI23
g2596
sI92
F0.769689901028506
sI37
F0.0
ssI20
(dp2709
I97
g2600
sI34
F0.04720209835610285
sI35
g2603
sI40
F3.135684877987668
sI9
F2.115923056373121
sI16
g2606
sI20
F0.7503590991586867
sI91
F0.0
sI60
g2609
ssI21
(dp2710
I32
F0.6659659023759439
sI57
g2613
sI62
F3.447251578638472
ssI22
(dp2711
I97
F0.22259684002291044
sI35
g2617
sI4
F0.26403365657738187
sI40
F1.6539228637467676
sI9
F4.347056894139181
sI46
F1.2942235875269994
sI16
g2620
sI20
F0.1592987318505421
sI87
F4.923228021680757
sI91
F1.4456696307431123
ssI23
(dp2712
I66
g2624
sI37
F6.974346709064367
sI85
F2.3956558303552167
sI15
F0.0
ssI24
(dp2713
I64
g2628
sI1
F0.2797544364694913
sI3
F2.686081575461698
sI72
g2631
sI77
F2.361906817034998
sI83
F0.122307945443692
sI23
F4.013872762853094
sI94
F0.6719387281837708
sI97
F0.2660744200484623
sI99
F2.4431951119405597
sI50
F1.6183253945815186
sI51
F2.818192823711727
sI55
F0.5913899089206477
sI56
g2634
sI60
F0.6708554570794982
sI61
F2.8084059588064685
ssI25
(dp2714
I33
F0.0
sI68
g3
(g7
S'\xb2\xa5\xa4\xa4\xb7\xe7\xd8?'
p2715
tp2716
Rp2717
sI10
F0.0
sI76
F0.0
sI14
g3
(g7
S'2^-S\xea\xf1\x15@'
p2718
tp2719
Rp2720
sI89
F1.8442503277475146
sI42
F2.3231603122031452
sI4
F1.575696687697082
ssI26
(dp2721
I96
F0.5481829836485237
sI70
F1.7971045505788572
sI11
g2645
sI13
F0.7883770461765617
sI78
F1.5409353641431158
sI80
g2648
sI82
F2.498523105515147
sI23
F3.2470739329162406
sI24
g2651
sI30
F0.0
sssI163
(dp2722
I0
(dp2723
I48
F3.3403728659216587
sI81
F2.279876241722176
sI52
F1.3633350890837612
sI71
F2.5749146962140053
sI8
F0.5116488379644281
sI88
g3
(g7
S'\x80\xa2\x0fS\xa9c\x1c@'
p2724
tp2725
Rp2726
sI27
F0.62462578067546
ssI1
(dp2727
I16
F0.0
sI34
F4.319857696687241
sI71
g3
(g7
S'\x15\xa3N5\x8d}\x14@'
p2728
tp2729
Rp2730
sI88
g3
(g7
S'f\xe6c+\xb5k\xed?'
p2731
tp2732
Rp2733
sI28
F0.7109838436603768
sI79
F5.117471014139262
ssI2
(dp2734
I97
F1.9766979042422497
sI98
F0.5478888014911413
sI100
F0.4093158929966281
sI54
g3
(g7
S'\x1a\x89\xa56\x92\x15\xe0?'
p2735
tp2736
Rp2737
sI6
g3
(g7
S'\x8b\xdb\xedo\x0eX\x1b@'
p2738
tp2739
Rp2740
sI65
F0.6364199382198978
sI13
F0.6436774063053676
sI14
F2.0916540583185035
sI21
F1.1927801409999959
sI86
F2.985247059323685
ssI3
(dp2741
I64
g3
(g7
S'\xbc\xfd\xaf\x16\x03)\x1c@'
p2742
tp2743
Rp2744
sI1
F1.3004129803105675
sI3
F0.44156986727506164
sI4
F1.4631802880409048
sI51
F1.1176120439677253
sI77
F0.394664197912944
sI46
F0.0
sI99
F1.987727540996548
sI50
F2.69288201321275
sI83
F3.1416114930627366
sI22
F0.557334831288796
sI23
F1.5297056075235929
sI56
g3
(g7
S'rw\xff\xd6\xa1Z\x1c@'
p2745
tp2746
Rp2747
sI60
F6.026138589862783
sI61
F4.060331700837072
ssI4
(dp2748
I35
F1.5638853441915654
sI69
g3
(g7
S':!y\x91]q\x15@'
p2749
tp2750
Rp2751
sI41
F4.77589085399109
sI76
F2.185007151392216
sI78
F3.7130386907064383
sI16
F1.1140992629070297
sI20
F3.529142937325745
sI53
F0.0
sI54
F3.494346294835063
sI87
F0.0
sI59
g3
(g7
S'4\xfbP\x11\xfd\xc4\t@'
p2752
tp2753
Rp2754
sI60
g3
(g7
S'\xe8\x02\xee\x80>E\x15@'
p2755
tp2756
Rp2757
sI62
F1.3722772326460098
sI85
F1.7267246495011075
ssI5
(dp2758
I79
F0.0
ssI7
(dp2759
I70
F0.8950177506347778
sI13
F2.9941825892881146
sI78
F1.967864407707857
sI80
g3
(g7
S'4yd\x12uB\x03@'
p2760
tp2761
Rp2762
sI82
F1.9273603657483154
sI24
g3
(g7
S'S\x8cs\x01\xf6e\x11@'
p2763
tp2764
Rp2765
sI58
F1.1081867094026063
sI90
F2.027115000867483
sI30
F6.750169087608268
ssI8
(dp2766
I64
F0.7232167480545086
sI100
F0.0
sI69
g3
(g7
S'a\x15o\xc7=\x83\x06@'
p2767
tp2768
Rp2769
sI42
F1.1790060309566677
sI76
F2.600868340633915
sI47
F0.0
sI49
g3
(g7
S'\x12Y\x0eO\xb7O\x12@'
p2770
tp2771
Rp2772
sI53
F3.3278427636542567
sI54
F0.0
sI87
F0.6346350989591154
sI59
g3
(g7
S'\xa7ML}\xf3~\x1b@'
p2773
tp2774
Rp2775
sI60
g3
(g7
S'\x08/\xa6`\xfc\xe7\x18@'
p2776
tp2777
Rp2778
sI93
F2.3607409347386827
ssI9
(dp2779
I59
g3
(g7
S'Po\x1cW\x1d\xa0\xf6?'
p2780
tp2781
Rp2782
sI69
g3
(g7
S'\xb1\x13\xc8\x8a7J\xfa?'
p2783
tp2784
Rp2785
sI39
F1.6680517385730071
sI41
F0.0
sI43
F4.6260219271042455
sI76
F0.0
sI77
F2.785671456193458
sI15
F0.0
sI16
F5.36125695475409
sI53
F0.04628138934077819
sI54
F1.3242354994242527
sI87
F0.0
sI27
F0.5342576872571334
sI60
g3
(g7
S'\x00\xaa\x16\xa4\xe1?\xd9?'
p2786
tp2787
Rp2788
sI37
F0.0
ssI10
(dp2789
I35
F2.5120110041755725
sI67
F0.0
ssI11
(dp2790
I8
F0.10234552892679759
sI49
F0.9242720570381598
sI7
g3
(g7
S'\xfa\x16\xd9\ta\xaa\x05@'
p2791
tp2792
Rp2793
sI84
g3
(g7
S'-\xeb\xc3\xc7\x8f\xc8\xfc?'
p2794
tp2795
Rp2796
sI63
g3
(g7
S'\xf1\xc7\x80\xb3J^\x10@'
p2797
tp2798
Rp2799
ssI12
(dp2800
I97
g3
(g7
S'\xc4y&\xc4\xd6r\x06@'
p2801
tp2802
Rp2803
sI34
F2.4338947748942212
sI35
g3
(g7
S'>h;\xce\xeb8\x00@'
p2804
tp2805
Rp2806
sI4
F7.696421099564992
sI70
F0.2316287245982548
sI40
F2.136185890023618
sI9
F4.412347436450122
sI46
F3.067468236343359
sI16
F0.0
sI20
F0.0
sI87
F3.6618176269842246
sI91
F1.012620605372762
sI60
F0.0
ssI13
(dp2807
I96
F0.8138526823906108
sI3
F1.0836838776410331
sI69
F0.0
sI76
F0.0
sI45
F2.3523199986642838
sI16
F2.155523383209646
sI20
F0.8914593024633428
sI53
F1.905826288938338
sI54
F3.915162794107489
sI87
F1.5122816053887331
sI59
g3
(g7
S'\xe8a\xae8%\xab\n@'
p2808
tp2809
Rp2810
sI60
g3
(g7
S'\xb3\xfbe\xb7e\x0c\x15@'
p2811
tp2812
Rp2813
ssI15
(dp2814
I68
F1.42266704731566
sI39
F0.0
sI43
F0.1775635618668864
sI44
g3
(g7
S'Z\x81\xe6\xcd\x03\xde\x07@'
p2815
tp2816
Rp2817
sI77
F0.0
sI29
g3
(g7
S'\xcfH\xb6\xf6\xefu\x0e@'
p2818
tp2819
Rp2820
sI57
g3
(g7
S'\xd5\x88\x9d\xf4\x80\xab\x03@'
p2821
tp2822
Rp2823
sI61
F0.0
ssI16
(dp2824
I64
F1.4013475067075836
sI19
g3
(g7
S'H\x05>7\xad<\x06@'
p2825
tp2826
Rp2827
sI66
g3
(g7
S'\xa18\x90M\xb2\x11\x05@'
p2828
tp2829
Rp2830
sI51
g3
(g7
S'\t\xfau\xd1\xe9>\x15@'
p2831
tp2832
Rp2833
sI25
F1.6379833121693568
sI18
F3.1463186007017283
sI78
F0.9355740133941001
ssI17
(dp2834
I73
F0.0
sI5
F0.0
sI38
F2.1887881334859167
sI55
F1.3778918376405138
ssI18
(dp2835
I16
F1.277899500187496
sI5
F2.9149009723482866
sI70
F1.5565269726718978
sI23
F0.6852727261539258
sI89
F0.7576726140334427
sI92
g3
(g7
S'\xb3$\x11\x93\x8e\x87\x01@'
p2836
tp2837
Rp2838
sI46
g3
(g7
S'\xe0\x92\x11s\x85\xbf\xc9?'
p2839
tp2840
Rp2841
ssI19
(dp2842
I16
F0.0
sI5
F2.0818576953341963
sI54
F3.673444574679093
sI23
g3
(g7
S'\xed\x99\x89X\xd0\x05\xf4?'
p2843
tp2844
Rp2845
sI92
F0.8901757147326324
sI46
g3
(g7
S'*\x888l\xc5\xbe\xfc?'
p2846
tp2847
Rp2848
sI37
F0.9335794737356158
ssI20
(dp2849
I97
g3
(g7
S'9\xc20{\x05\xd9\xf3?'
p2850
tp2851
Rp2852
sI34
F0.7329456578550526
sI35
g3
(g7
S'\xa6\xa0j\xb8$\xe6\x14@'
p2853
tp2854
Rp2855
sI4
F3.7555586477047
sI40
F2.87524760557836
sI9
F3.3118230923307515
sI76
F2.276042202375464
sI47
F0.35109401073531143
sI16
g3
(g7
S'\xaer9\xd5_\x0e\x02@'
p2856
tp2857
Rp2858
sI20
F0.0
sI91
F0.0
sI60
g3
(g7
S'\x98\xab$@\xd6\xa8\xe0?'
p2859
tp2860
Rp2861
ssI21
(dp2862
I32
F0.0
sI57
F0.0
sI62
F1.6042387955915203
ssI22
(dp2863
I97
F1.1160612788433895
sI35
g3
(g7
S'\xd4\x89\xae\xe1[\x8c\r@'
p2864
tp2865
Rp2866
sI4
F1.0844365599552304
sI40
F0.24173610935099232
sI9
F5.446513796881786
sI76
F0.6322723757862986
sI45
F0.8241409220134809
sI46
F0.3061976292049708
sI16
g3
(g7
S'\x0b\xb6\x9c2t\xb4\xea?'
p2867
tp2868
Rp2869
sI20
F0.0
sI87
F4.604139826530039
sI91
F0.42014889744015443
sI60
g3
(g7
S'\xc2\xb6\xa3|\xc7\x81\x0f@'
p2870
tp2871
Rp2872
ssI23
(dp2873
I66
g3
(g7
S'\x0c\xa7\xe8\x01+\xe9\x0c@'
p2874
tp2875
Rp2876
sI83
F0.9906083336543593
sI37
F7.625205257430156
sI7
F0.0
sI85
F2.8854227583839434
sI15
F0.6899463285175303
ssI24
(dp2877
I64
g3
(g7
S'\xd6\x0c\xbd\xa1\xe0 \x1c@'
p2878
tp2879
Rp2880
sI1
F0.6051881268161152
sI3
F3.244512604202063
sI69
F0.8514431122639705
sI72
F0.8395826614530587
sI77
F1.3242326797140676
sI83
F0.5356393053764881
sI23
F5.058593174637308
sI94
F3.7908129591944792
sI99
F4.107558134408708
sI50
F2.3095081178223618
sI51
F3.90314377199625
sI55
F0.0
sI56
g3
(g7
S'\xceK\xf4O\xa7\xb7%@'
p2881
tp2882
Rp2883
sI60
F0.0
sI61
F1.496776447119645
ssI25
(dp2884
I33
F0.0
sI67
F0.0
sI4
F1.3953674924318205
sI10
F0.6612316134289739
sI76
g3
(g7
S'\xaf|^\xd2\x86\xe6\xf0?'
p2885
tp2886
Rp2887
sI14
g3
(g7
S'\xb1\x7f\tx\xf1\xa5\x13@'
p2888
tp2889
Rp2890
sI15
F0.0
sI68
F0.0
sI42
F3.813071623441304
ssI26
(dp2891
I70
F0.15087801655233835
sI13
F0.5931452304561718
sI78
F1.3911360083914066
sI80
g3
(g7
S'\xb2\x8b\xff\x1b\xc0\xee\xf4?'
p2892
tp2893
Rp2894
sI82
F1.1882696012689458
sI24
g3
(g7
S'[\x12\x04\xa41\xe7\x12@'
p2895
tp2896
Rp2897
sI30
F1.1664847463769048
sssI164
(dp2898
I0
(dp2899
I48
F3.3403728659216587
sI81
F2.279876241722176
sI52
F1.3633350890837612
sI71
F2.5749146962140053
sI8
F0.5116488379644281
sI88
g2726
sI27
F0.62462578067546
ssI1
(dp2900
I16
F0.0
sI34
F4.319857696687241
sI71
g2730
sI88
g2733
sI28
F0.7109838436603768
sI79
F5.117471014139262
ssI2
(dp2901
I97
F1.9766979042422497
sI98
F0.5478888014911413
sI100
F0.4093158929966281
sI54
g2737
sI6
g2740
sI65
F0.6364199382198978
sI13
F0.6436774063053676
sI14
F2.0916540583185035
sI21
F1.1927801409999959
sI86
F2.985247059323685
ssI3
(dp2902
I64
g2744
sI1
F1.3004129803105675
sI3
F0.44156986727506164
sI4
F1.4631802880409048
sI51
F1.1176120439677253
sI77
F0.394664197912944
sI46
F0.0
sI99
F1.987727540996548
sI50
F2.69288201321275
sI83
F3.1416114930627366
sI22
F0.557334831288796
sI23
F1.5297056075235929
sI56
g2747
sI60
F6.026138589862783
sI61
F4.060331700837072
ssI4
(dp2903
I35
F1.5638853441915654
sI69
g2751
sI41
F4.77589085399109
sI76
F2.185007151392216
sI78
F3.7130386907064383
sI16
F1.1140992629070297
sI20
F3.529142937325745
sI53
F0.0
sI54
F3.494346294835063
sI87
F0.0
sI59
g2754
sI60
g2757
sI62
F1.3722772326460098
sI85
F1.7267246495011075
ssI5
(dp2904
I79
F0.0
ssI7
(dp2905
I70
F0.8950177506347778
sI13
F2.9941825892881146
sI78
F1.967864407707857
sI80
g2762
sI82
F1.9273603657483154
sI24
g2765
sI58
F1.1081867094026063
sI90
F2.027115000867483
sI30
F6.750169087608268
ssI8
(dp2906
I64
F0.7232167480545086
sI100
F0.0
sI69
g2769
sI42
F1.1790060309566677
sI76
F2.600868340633915
sI47
F0.0
sI49
g2772
sI53
F3.3278427636542567
sI54
F0.0
sI87
F0.6346350989591154
sI59
g2775
sI60
g2778
sI93
F2.3607409347386827
ssI9
(dp2907
I59
g2782
sI69
g2785
sI39
F1.6680517385730071
sI41
F0.0
sI43
F4.6260219271042455
sI76
F0.0
sI77
F2.785671456193458
sI15
F0.0
sI16
F5.36125695475409
sI53
F0.04628138934077819
sI54
F1.3242354994242527
sI87
F0.0
sI27
F0.5342576872571334
sI60
g2788
sI37
F0.0
ssI10
(dp2908
I35
F2.5120110041755725
sI67
F0.0
ssI11
(dp2909
I8
F0.10234552892679759
sI49
F0.9242720570381598
sI7
g2793
sI84
g2796
sI63
g2799
ssI12
(dp2910
I97
g2803
sI34
F2.4338947748942212
sI35
g2806
sI4
F7.696421099564992
sI70
F0.2316287245982548
sI40
F2.136185890023618
sI9
F4.412347436450122
sI46
F3.067468236343359
sI16
F0.0
sI20
F0.0
sI87
F3.6618176269842246
sI91
F1.012620605372762
sI60
F0.0
ssI13
(dp2911
I96
F0.8138526823906108
sI3
F1.0836838776410331
sI69
F0.0
sI76
F0.0
sI45
F2.3523199986642838
sI16
F2.155523383209646
sI20
F0.8914593024633428
sI53
F1.905826288938338
sI54
F3.915162794107489
sI87
F1.5122816053887331
sI59
g2810
sI60
g2813
ssI15
(dp2912
I68
F1.42266704731566
sI39
F0.0
sI43
F0.1775635618668864
sI44
g2817
sI77
F0.0
sI29
g2820
sI57
g2823
sI61
F0.0
ssI16
(dp2913
I64
F1.4013475067075836
sI19
g2827
sI66
g2830
sI51
g2833
sI25
F1.6379833121693568
sI18
F3.1463186007017283
sI78
F0.9355740133941001
ssI17
(dp2914
I73
F0.0
sI5
F0.0
sI38
F2.1887881334859167
sI55
F1.3778918376405138
ssI18
(dp2915
I16
F1.395895595079248
sI5
F2.9857762196762607
sI23
F1.3173622752765999
sI89
F1.0136070894144116
sI92
g3
(g7
S'\xaa\x8e\xd9I$Z\x04@'
p2916
tp2917
Rp2918
sI46
g3
(g7
S'z\x9f\xb6\xb4$E\xe5?'
p2919
tp2920
Rp2921
ssI19
(dp2922
I16
F0.0
sI5
F2.0818576953341963
sI54
F3.673444574679093
sI23
g2845
sI92
F0.8901757147326324
sI46
g2848
sI37
F0.9335794737356158
ssI20
(dp2923
I97
g2852
sI34
F0.7329456578550526
sI35
g2855
sI4
F3.7555586477047
sI40
F2.87524760557836
sI9
F3.3118230923307515
sI76
F2.276042202375464
sI47
F0.35109401073531143
sI16
g2858
sI20
F0.0
sI91
F0.0
sI60
g2861
ssI21
(dp2924
I32
F0.0
sI57
F0.0
sI62
F1.6042387955915203
ssI22
(dp2925
I97
F1.1160612788433895
sI35
g2866
sI4
F1.0844365599552304
sI40
F0.24173610935099232
sI9
F5.446513796881786
sI76
F0.6322723757862986
sI45
F0.8241409220134809
sI46
F0.3061976292049708
sI16
g2869
sI20
F0.0
sI87
F4.604139826530039
sI91
F0.42014889744015443
sI60
g2872
ssI23
(dp2926
I66
g2876
sI83
F0.9906083336543593
sI37
F7.625205257430156
sI7
F0.0
sI85
F2.8854227583839434
sI15
F0.6899463285175303
ssI24
(dp2927
I64
g2880
sI1
F0.6051881268161152
sI3
F3.244512604202063
sI69
F0.8514431122639705
sI72
F0.8395826614530587
sI77
F1.3242326797140676
sI83
F0.5356393053764881
sI23
F5.058593174637308
sI94
F3.7908129591944792
sI99
F4.107558134408708
sI50
F2.3095081178223618
sI51
F3.90314377199625
sI55
F0.0
sI56
g2883
sI60
F0.0
sI61
F1.496776447119645
ssI25
(dp2928
I33
F0.0
sI67
F0.0
sI4
F1.3953674924318205
sI10
F0.6612316134289739
sI76
g2887
sI14
g2890
sI15
F0.0
sI68
F0.0
sI42
F3.813071623441304
ssI26
(dp2929
I80
g2894
sI82
F1.1882696012689458
sI78
F1.3911360083914066
sI70
F0.15087801655233835
sI24
g2897
sI13
F0.5931452304561718
sI30
F1.1664847463769048
sss.