(dp0
I13
(dp1
I0
(dp2
I8
F1.133096773219568
sI48
F0.0
sI52
F0.0
sI88
cnumpy.core.multiarray
scalar
p3
(cnumpy
dtype
p4
(S'f8'
p5
I0
I1
tp6
Rp7
(I3
S'<'
p8
NNNI-1
I-1
I0
tp9
bS'\x0bt\nv\xf5-\x04@'
p10
tp11
Rp12
sI57
F0.37730214266685147
sI27
F0.12921479602641256
sI60
g3
(g7
S'\xd4\xddr\x18\xd0I\xe0?'
p13
tp14
Rp15
sI63
F0.0
ssI1
(dp16
I32
F0.0
sI33
F0.0
sI34
F1.1845845887296176
sI16
g3
(g7
S'\xc9P6\xdc~\xa6\x05@'
p17
tp18
Rp19
sI71
g3
(g7
S'\xf3\xf66\xf3\xe0\x00\x04@'
p20
tp21
Rp22
sI88
g3
(g7
S'0\xa2~9\xe3\x89\xe2?'
p23
tp24
Rp25
ssI2
(dp26
I4
g3
(g7
S'\xcc\x9da^l{\r@'
p27
tp28
Rp29
sI86
F2.275047313108157
sI6
g3
(g7
S'\xbf\xa2\xd15\xeb\xe6\xf3?'
p30
tp31
Rp32
sI13
g3
(g7
S'\x84\xe77\x8e\x82\xcd\xd8?'
p33
tp34
Rp35
sI21
F2.061251035332099
sI54
g3
(g7
S'\xe5BgH7\xa0\x03@'
p36
tp37
Rp38
sI100
F1.65748760882831
sI26
g3
(g7
S'X\xe7\xfa\x85~\x9a\x05@'
p39
tp40
Rp41
sI94
F0.6405726265104019
ssI3
(dp42
I64
g3
(g7
S'\xc7\xe7\x1a\x13_\x85\xf0?'
p43
tp44
Rp45
sI83
F0.0
sI99
F1.5468490137939155
sI4
F0.5173509891440635
sI72
g3
(g7
S'\x94\xd1\x89\xc3\x01\xb1\x03@'
p46
tp47
Rp48
sI77
F2.699511265274729
sI50
F1.0381632005696997
sI51
F0.3316185957949923
sI23
F3.629823032484327
sI56
g3
(g7
S'\x9e\x95\\;R7\x0b@'
p49
tp50
Rp51
sI60
F0.0
sI61
F1.3675543393750824
sI94
F2.9986266465923355
ssI4
(dp52
I69
g3
(g7
S'\xd4\xc3\xd6\xe9\xad\xf3\xd7?'
p53
tp54
Rp55
sI41
F1.3344190672147627
sI76
F1.1138266431585797
sI16
g3
(g7
S'\xc7\x1a\xa9\xf5Yo\xe3?'
p56
tp57
Rp58
sI49
g3
(g7
S'T\x9cvCs\x85\xf0?'
p59
tp60
Rp61
sI53
F0.7956926509709147
sI54
F0.0
sI59
g3
(g7
S'X\xe7\xbc7iL\xc5?'
p62
tp63
Rp64
sI60
g3
(g7
S'C\xd1\xd0\xc6\xb8J\xf7?'
p65
tp66
Rp67
ssI5
(dp68
I26
F0.0
sI6
g3
(g7
S'^hB\xe6As\xd0?'
p69
tp70
Rp71
sI13
g3
(g7
S'\xc6\x84\xe5\xa3l\x1e\x11@'
p72
tp73
Rp74
sI54
g3
(g7
S'S\xf5\x90\xb5\x07\xff\xfe?'
p75
tp76
Rp77
sI21
F0.0
sssI14
(dp78
I0
(dp79
I8
F1.133096773219568
sI48
F0.0
sI52
F0.0
sI88
g12
sI57
F0.37730214266685147
sI27
F0.12921479602641256
sI60
g15
sI63
F0.0
ssI1
(dp80
I32
F0.0
sI33
F0.0
sI34
F1.1845845887296176
sI16
g19
sI71
g22
sI88
g25
ssI2
(dp81
I4
g29
sI54
g38
sI6
g32
sI13
g35
sI21
F2.061251035332099
sI86
F2.275047313108157
sI100
F1.65748760882831
sI26
g41
sI94
F0.6405726265104019
ssI3
(dp82
I64
g45
sI51
F0.3316185957949923
sI99
F1.5468490137939155
sI4
F0.5173509891440635
sI72
g48
sI77
F2.699511265274729
sI50
F1.0381632005696997
sI83
F0.0
sI23
F3.629823032484327
sI56
g51
sI60
F0.0
sI61
F1.3675543393750824
sI94
F2.9986266465923355
ssI4
(dp83
I69
g55
sI41
F1.3344190672147627
sI76
F1.1138266431585797
sI16
g58
sI49
g61
sI53
F0.7956926509709147
sI54
F0.0
sI59
g64
sI60
g67
ssI5
(dp84
I26
F0.0
sI54
g77
sI13
g74
sI6
g71
sI21
F0.0
ssI6
(dp85
I67
g3
(g7
S'\xa0\x91\xff\xe2\x15\x98\xd8?'
p86
tp87
Rp88
sI66
g3
(g7
S'\x8f\x86\xa9\x82\xa0\xed\xe7?'
p89
tp90
Rp91
sI35
g3
(g7
S'\xd0F\x90\xd3z\xaf\xbb?'
p92
tp93
Rp94
sssI15
(dp95
I0
(dp96
I8
F1.133096773219568
sI48
F0.0
sI52
F0.0
sI88
g12
sI57
F0.37730214266685147
sI27
F0.12921479602641256
sI60
g15
sI63
F0.0
ssI1
(dp97
I32
F0.0
sI33
F0.0
sI34
F1.1845845887296176
sI16
g19
sI71
g22
sI88
g25
ssI2
(dp98
I4
g29
sI86
F2.275047313108157
sI6
g32
sI13
g35
sI21
F2.061251035332099
sI54
g38
sI100
F1.65748760882831
sI26
g41
sI94
F0.6405726265104019
ssI3
(dp99
I64
g45
sI83
F0.0
sI99
F1.5468490137939155
sI4
F0.5173509891440635
sI72
g48
sI77
F2.699511265274729
sI50
F1.0381632005696997
sI51
F0.3316185957949923
sI23
F3.629823032484327
sI56
g51
sI60
F0.0
sI61
F1.3675543393750824
sI94
F2.9986266465923355
ssI4
(dp100
I69
g55
sI41
F1.3344190672147627
sI76
F1.1138266431585797
sI16
g58
sI49
g61
sI53
F0.7956926509709147
sI54
F0.0
sI59
g64
sI60
g67
ssI5
(dp101
I26
F0.0
sI6
g71
sI13
g74
sI54
g77
sI21
F0.0
ssI6
(dp102
I35
g94
sI66
g91
sI67
g88
ssI7
(dp103
I69
g55
sI41
F1.3344190672147627
sI76
F1.1138266431585797
sI16
g58
sI49
g61
sI53
F0.7956926509709147
sI54
F0.0
sI59
g64
sI60
g67
sssI16
(dp104
I0
(dp105
I8
F1.133096773219568
sI48
F0.0
sI52
F0.0
sI88
g12
sI57
F0.37730214266685147
sI27
F0.12921479602641256
sI60
g15
sI63
F0.0
ssI1
(dp106
I32
F0.0
sI33
F0.0
sI34
F1.1845845887296176
sI16
g19
sI71
g22
sI88
g25
ssI2
(dp107
I3
F0.14930694669582056
sI4
g3
(g7
S'R\xdc\xbe\xbe\x08L\x03@'
p108
tp109
Rp110
sI86
F1.350448998131605
sI6
g3
(g7
S'\xe2\xbe\xd1{\xe41\x05@'
p111
tp112
Rp113
sI13
F0.0
sI21
F2.4255785361148043
sI54
g3
(g7
S'\xbb\xd7\xcd\x16G\x91\r@'
p114
tp115
Rp116
sI100
F1.775508111232713
sI26
F0.0
sI94
F1.6171756604692513
ssI3
(dp117
I64
g45
sI83
F0.0
sI99
F1.5468490137939155
sI4
F0.5173509891440635
sI72
g48
sI77
F2.699511265274729
sI50
F1.0381632005696997
sI51
F0.3316185957949923
sI23
F3.629823032484327
sI56
g51
sI60
F0.0
sI61
F1.3675543393750824
sI94
F2.9986266465923355
ssI4
(dp118
I69
g55
sI41
F1.3344190672147627
sI76
F1.1138266431585797
sI16
g58
sI49
g61
sI53
F0.7956926509709147
sI54
F0.0
sI59
g64
sI60
g67
ssI5
(dp119
I26
F0.0
sI6
g71
sI13
g74
sI54
g77
sI21
F0.0
ssI6
(dp120
I35
g94
sI66
g91
sI67
g88
ssI7
(dp121
I69
g55
sI41
F1.3344190672147627
sI76
F1.1138266431585797
sI16
g58
sI49
g61
sI53
F0.7956926509709147
sI54
F0.0
sI59
g64
sI60
g67
sssI17
(dp122
I0
(dp123
I8
F1.133096773219568
sI48
F0.0
sI52
F0.0
sI88
g12
sI57
F0.37730214266685147
sI27
F0.12921479602641256
sI60
g15
sI63
F0.0
ssI1
(dp124
I32
F0.0
sI33
F0.0
sI34
F1.1845845887296176
sI16
g19
sI71
g22
sI88
g25
ssI2
(dp125
I4
g29
sI86
F2.275047313108157
sI6
g32
sI13
g35
sI21
F2.061251035332099
sI54
g38
sI100
F1.65748760882831
sI26
g41
sI94
F0.6405726265104019
ssI3
(dp126
I64
g45
sI83
F0.0
sI99
F1.5468490137939155
sI4
F0.5173509891440635
sI72
g48
sI77
F2.699511265274729
sI50
F1.0381632005696997
sI51
F0.3316185957949923
sI23
F3.629823032484327
sI56
g51
sI60
F0.0
sI61
F1.3675543393750824
sI94
F2.9986266465923355
ssI4
(dp127
I69
g55
sI41
F1.3344190672147627
sI76
F1.1138266431585797
sI16
g58
sI49
g61
sI53
F0.7956926509709147
sI54
F0.0
sI59
g64
sI60
g67
ssI5
(dp128
I26
F0.0
sI6
g71
sI13
g74
sI54
g77
sI21
F0.0
ssI6
(dp129
I35
g94
sI66
g91
sI67
g88
ssI7
(dp130
I35
g3
(g7
S't\xccX>\x9ei\xc4?'
p131
tp132
Rp133
sI11
g3
(g7
S'\xc0U\xb5Y&\x0f\xcf?'
p134
tp135
Rp136
sI13
g3
(g7
S'\x80\xd6\xe1\xf7+\x1e\x9b?'
p137
tp138
Rp139
sI78
g3
(g7
S'\x8e>CM/\x12\xda?'
p140
tp141
Rp142
sI80
g3
(g7
S'\xb8\xceN\xd9\x8aZ\xe8?'
p143
tp144
Rp145
sI23
g3
(g7
S'Ki\x85@\x11\xc3\xe0?'
p146
tp147
Rp148
sI24
g3
(g7
S'1\xb1w\xcd\x03\x81\xea?'
p149
tp150
Rp151
sI58
g3
(g7
S'\xfe\xc6\xd2E\x9d\xe2\xda?'
p152
tp153
Rp154
sI30
g3
(g7
S'\xa0\xf1\x13\xfc\xa27\xce?'
p155
tp156
Rp157
sssI18
(dp158
I0
(dp159
I8
F1.133096773219568
sI48
F0.0
sI52
F0.0
sI88
g12
sI57
F0.37730214266685147
sI27
F0.12921479602641256
sI60
g15
sI63
F0.0
ssI1
(dp160
I32
F0.0
sI33
F0.0
sI34
F1.1845845887296176
sI16
g19
sI71
g22
sI88
g25
ssI2
(dp161
I4
g29
sI54
g38
sI6
g32
sI13
g35
sI21
F2.061251035332099
sI86
F2.275047313108157
sI100
F1.65748760882831
sI26
g41
sI94
F0.6405726265104019
ssI3
(dp162
I64
g45
sI51
F0.3316185957949923
sI99
F1.5468490137939155
sI4
F0.5173509891440635
sI72
g48
sI77
F2.699511265274729
sI50
F1.0381632005696997
sI83
F0.0
sI23
F3.629823032484327
sI56
g51
sI60
F0.0
sI61
F1.3675543393750824
sI94
F2.9986266465923355
ssI4
(dp163
I69
g3
(g7
S'C\xaag\xa7\xee\xa0\xfc?'
p164
tp165
Rp166
sI41
F1.723528371686585
sI76
F0.0
sI16
F0.0
sI49
g3
(g7
S'\x1a\xcc\x14N?\xfe\xdf?'
p167
tp168
Rp169
sI53
F0.4787389539679983
sI54
F0.0
sI59
g3
(g7
S's\xe7\xe3\x804K\xfc?'
p170
tp171
Rp172
sI60
g3
(g7
S'"\xf9\xc3T\xc4\xc0\xf2?'
p173
tp174
Rp175
ssI5
(dp176
I26
F0.0
sI54
g77
sI13
g74
sI6
g71
sI21
F0.0
ssI6
(dp177
I67
g88
sI66
g91
sI35
g94
ssI7
(dp178
I35
g133
sI11
g136
sI13
g139
sI78
g142
sI80
g145
sI23
g148
sI24
g151
sI58
g154
sI30
g157
sssI19
(dp179
I0
(dp180
I88
g3
(g7
S'\x82\xae\x13\x99\xca\x10\r@'
p181
tp182
Rp183
sI52
F0.0
sI8
F1.1041214065715836
sI57
F0.85723340308599
sI27
F0.9361951189128443
sI60
g3
(g7
S'\x92\xa8\xcc\x0b\xfe(\xd4?'
p184
tp185
Rp186
sI63
F0.0
ssI1
(dp187
I32
F0.0
sI16
g3
(g7
S'\xd3\xedM\x92@\xc2\x05@'
p188
tp189
Rp190
sI34
F1.4537930302458042
sI88
g3
(g7
S'F\x99\x88\x87\xe2\x86\x00@'
p191
tp192
Rp193
sI71
g3
(g7
S'(\xdaj}p\x9a\xfa?'
p194
tp195
Rp196
ssI2
(dp197
I4
g3
(g7
S'T\xc7\xab\x016\x8f\x0e@'
p198
tp199
Rp200
sI86
F1.920290173678635
sI6
g3
(g7
S'\xe3\xe5\xaa\xe8\x0e\xe3\xef?'
p201
tp202
Rp203
sI13
g3
(g7
S'^\x1az\x9e"\xa4\xe0?'
p204
tp205
Rp206
sI21
F3.437161386645525
sI54
g3
(g7
S'x\xc2\x89f\xce\x00\x05@'
p207
tp208
Rp209
sI100
F2.6217073425321504
sI94
F0.7787648255999167
ssI3
(dp210
I64
g3
(g7
S'#\xf3\x13\xeb\t\xe7\xfe?'
p211
tp212
Rp213
sI83
F0.0
sI99
F1.1676013420225795
sI4
F0.3028228915027348
sI72
g3
(g7
S'\x01\xef)H\x95\xa5\x0b@'
p214
tp215
Rp216
sI77
F3.1558442629541386
sI50
F0.9854843539058932
sI51
F2.1502713408244842
sI23
F4.756721625384815
sI56
g3
(g7
S'\x99q\xe6F\xe6\xf1\x10@'
p217
tp218
Rp219
sI60
F0.0
sI61
F1.0450918333449062
ssI4
(dp220
I69
g3
(g7
S'\x95{\x8d7\x7f\x04\xe6?'
p221
tp222
Rp223
sI41
F1.2663410862704096
sI76
F0.0
sI16
g3
(g7
S'\x93\x9d\xef\xee\x01\xbc\xe8?'
p224
tp225
Rp226
sI49
g3
(g7
S'\xc4\x8f#."1\xf5?'
p227
tp228
Rp229
sI53
F1.8785266455922662
sI54
F0.0
sI59
g3
(g7
S'X\xfc\xb1\x8f%\x82\xe0?'
p230
tp231
Rp232
sI60
g3
(g7
S'\x80N\t\xc0\x05\x8c\xcc?'
p233
tp234
Rp235
ssI5
(dp236
I26
F0.0
sI6
F0.0
sI13
g3
(g7
S'24 =Tx\x15@'
p237
tp238
Rp239
sI54
g3
(g7
S'w\x00\x7f\xa9\xb5\x94\x07@'
p240
tp241
Rp242
ssI6
(dp243
I35
g3
(g7
S'R\xef7\x1aU\xb2\x00@'
p244
tp245
Rp246
sI66
g3
(g7
S'\xbf@\xb7e1\x82\x04@'
p247
tp248
Rp249
sI67
g3
(g7
S'\xd9[\xea\x1cc?\xeb?'
p250
tp251
Rp252
sI29
F0.8499570896760459
sssI20
(dp253
I0
(dp254
I8
F1.1041214065715836
sI52
F0.0
sI88
g183
sI57
F0.85723340308599
sI27
F0.9361951189128443
sI60
g186
sI63
F0.0
ssI1
(dp255
I32
F0.0
sI16
g190
sI34
F1.4537930302458042
sI88
g193
sI71
g196
ssI2
(dp256
I4
g200
sI54
g209
sI6
g203
sI13
g206
sI21
F3.437161386645525
sI86
F1.920290173678635
sI100
F2.6217073425321504
sI94
F0.7787648255999167
ssI3
(dp257
I64
g213
sI51
F2.1502713408244842
sI99
F1.1676013420225795
sI4
F0.3028228915027348
sI72
g216
sI77
F3.1558442629541386
sI50
F0.9854843539058932
sI83
F0.0
sI23
F4.756721625384815
sI56
g219
sI60
F0.0
sI61
F1.0450918333449062
ssI4
(dp258
I69
g223
sI41
F1.2663410862704096
sI76
F0.0
sI16
g226
sI49
g229
sI53
F1.8785266455922662
sI54
F0.0
sI59
g232
sI60
g235
ssI5
(dp259
I26
F0.0
sI54
g242
sI13
g239
sI6
F0.0
ssI6
(dp260
I67
g252
sI66
g249
sI35
g246
sI29
F0.8499570896760459
ssI7
(dp261
I17
g3
(g7
S'V\x1b\xe7\xf7\x0e\x06\xdd?'
p262
tp263
Rp264
sI3
g3
(g7
S'@\xefb\xe07\x05\xd3?'
p265
tp266
Rp267
sI47
g3
(g7
S'\xce\x94M\xf8\xd0\xea\xdf?'
p268
tp269
Rp270
sssI21
(dp271
I0
(dp272
I88
g183
sI52
F0.0
sI8
F1.1041214065715836
sI57
F0.85723340308599
sI27
F0.9361951189128443
sI60
g186
sI63
F0.0
ssI1
(dp273
I32
F0.0
sI16
g190
sI34
F1.4537930302458042
sI88
g193
sI71
g196
ssI2
(dp274
I4
g200
sI86
F1.920290173678635
sI6
g203
sI13
g206
sI21
F3.437161386645525
sI54
g209
sI100
F2.6217073425321504
sI94
F0.7787648255999167
ssI3
(dp275
I64
g213
sI83
F0.0
sI99
F1.1676013420225795
sI4
F0.3028228915027348
sI72
g216
sI77
F3.1558442629541386
sI50
F0.9854843539058932
sI51
F2.1502713408244842
sI23
F4.756721625384815
sI56
g219
sI60
F0.0
sI61
F1.0450918333449062
ssI4
(dp276
I69
g223
sI41
F1.2663410862704096
sI76
F0.0
sI16
g226
sI49
g229
sI53
F1.8785266455922662
sI54
F0.0
sI59
g232
sI60
g235
ssI5
(dp277
I26
F0.0
sI6
F0.0
sI13
g239
sI54
g242
ssI6
(dp278
I35
g246
sI66
g249
sI67
g252
sI29
F0.8499570896760459
ssI7
(dp279
I17
g264
sI3
g267
sI47
g270
ssI8
(dp280
I96
g3
(g7
S'\xb0\xdd\xd2\x17S\xac\xd6?'
p281
tp282
Rp283
sI6
g3
(g7
S'\x90\xbf\x90\xc9\x07Q\xd0?'
p284
tp285
Rp286
sI8
g3
(g7
S'|\xb3S4\x8e(\xeb?'
p287
tp288
Rp289
sI77
g3
(g7
S'\x80\x07W+z\xf5\xa4?'
p290
tp291
Rp292
sI72
g3
(g7
S'\x10\x17\x9cr\xf4\x0b\xef?'
p293
tp294
Rp295
sI58
g3
(g7
S'"\x7f\xb5\xeb\x8c\x1d\xe0?'
p296
tp297
Rp298
sI60
g3
(g7
S'h\x1c\xc5\xa1s\xc8\xc8?'
p299
tp300
Rp301
sI94
g3
(g7
S'$\x1c\xef)kx\xd1?'
p302
tp303
Rp304
sssI22
(dp305
I0
(dp306
I8
F2.168221539486197
sI48
F0.5565336524364033
sI52
F0.0
sI88
g3
(g7
S'\x04a\xad\x01(\xe7\x11@'
p307
tp308
Rp309
sI57
F0.0
sI27
F0.0
sI60
F0.0
sI63
F0.1405495040642015
ssI1
(dp310
I32
F0.0
sI33
F1.0944074519367797
sI34
F1.8649161770076486
sI16
g3
(g7
S'\x1ew\x10\x1c\x95\xfd\xec?'
p311
tp312
Rp313
sI71
g3
(g7
S'F\xc1\xe4\x01w\t\x04@'
p314
tp315
Rp316
sI88
g3
(g7
S'\x82\xa8C\xb1<\xdf\xf9?'
p317
tp318
Rp319
ssI2
(dp320
I98
F0.8214314606634343
sI4
g3
(g7
S'k\xf8\x0f7\x84Q\x10@'
p321
tp322
Rp323
sI54
g3
(g7
S'HC\xe2\xe5D\x19\xe7?'
p324
tp325
Rp326
sI6
g3
(g7
S'\x9f\xecRj\xeao\xe4?'
p327
tp328
Rp329
sI13
g3
(g7
S'\xeazq\x9e\xec\xca\xf5?'
p330
tp331
Rp332
sI21
F3.169143709946843
sI86
F1.5476002010680905
sI100
F1.3040405115715767
sI26
g3
(g7
S'\xb6>!\xa1\xe1\xf3\x02@'
p333
tp334
Rp335
sI94
F0.0
ssI3
(dp336
I64
g3
(g7
S'L\xa5F\xcf\xac\xaa\xf2?'
p337
tp338
Rp339
sI51
F1.4411228825745521
sI99
F1.9650256609583252
sI4
F0.08305615661580729
sI72
g3
(g7
S'\x12\xd4\xd1\xa1\x80\xfc\x03@'
p340
tp341
Rp342
sI77
F2.855836095648599
sI50
F2.345418499749627
sI83
F0.5951136768416596
sI23
F4.213136335425576
sI56
g3
(g7
S'D\xc2\xbc\\M)\x12@'
p343
tp344
Rp345
sI100
F0.17055432690099703
sI60
F0.0
sI61
F1.2225565153532512
sI94
F2.69485269514706
ssI4
(dp346
I69
g3
(g7
S'\xe4\x01\xc7Oz\x7f\xfc?'
p347
tp348
Rp349
sI41
F1.3340325102932244
sI76
F0.4391097493956705
sI14
F0.48618012729256477
sI16
g3
(g7
S'p\x86\x8d60^\xfd?'
p350
tp351
Rp352
sI49
g3
(g7
S'\x83\xe8\x8d\x9f\x96\x0c\xf0?'
p353
tp354
Rp355
sI53
F2.7192888255316587
sI54
F0.0
sI59
g3
(g7
S'D%\xd8\x08\xbc>\xfa?'
p356
tp357
Rp358
sI60
g3
(g7
S'\x1e\x04\x83L\x8b\x06\xf0?'
p359
tp360
Rp361
ssI5
(dp362
I50
F0.8324809691096915
sI21
F1.0268017867628256
sI6
g3
(g7
S'\xc5\xf5o\xfen|\xe9?'
p363
tp364
Rp365
sI26
F0.6990093998073917
sI54
g3
(g7
S'\xd2v\x82\xf3\xack\x07@'
p366
tp367
Rp368
sI13
g3
(g7
S'D\xf8\x92\x11L\x99\x12@'
p369
tp370
Rp371
ssI6
(dp372
I67
g3
(g7
S'b}D\xb1]\x10\xd5?'
p373
tp374
Rp375
sI66
g3
(g7
S"'Q3g\x15\x82\xe6?"
p376
tp377
Rp378
sI35
g3
(g7
S'Z\xd1/Y~\xc0\xf2?'
p379
tp380
Rp381
sI100
F0.8648679917373153
ssI7
(dp382
I69
F0.0
sI41
F0.3670424131833606
sI76
F0.21332647025867257
sI16
g3
(g7
S'R@\xcf\xb1\x9dc\xfe?'
p383
tp384
Rp385
sI49
g3
(g7
S'\xca\xdd>/(C\xfa?'
p386
tp387
Rp388
sI53
F1.162321545536106
sI54
F0.0
sI59
g3
(g7
S"W\xc5L'\xa4\xa5\xed?"
p389
tp390
Rp391
sI60
g3
(g7
S'\xc0J@\xb7\xf6\x07\x98?'
p392
tp393
Rp394
sssI23
(dp395
I0
(dp396
I8
F1.1041214065715836
sI52
F0.0
sI88
g183
sI57
F0.85723340308599
sI27
F0.9361951189128443
sI60
g186
sI63
F0.0
ssI1
(dp397
I32
F0.0
sI16
g190
sI34
F1.4537930302458042
sI88
g193
sI71
g196
ssI2
(dp398
I4
g200
sI54
g209
sI6
g203
sI13
g206
sI21
F3.437161386645525
sI86
F1.920290173678635
sI100
F2.6217073425321504
sI94
F0.7787648255999167
ssI3
(dp399
I64
g213
sI51
F2.1502713408244842
sI99
F1.1676013420225795
sI4
F0.3028228915027348
sI72
g216
sI77
F3.1558442629541386
sI50
F0.9854843539058932
sI83
F0.0
sI23
F4.756721625384815
sI56
g219
sI60
F0.0
sI61
F1.0450918333449062
ssI4
(dp400
I69
g223
sI41
F1.2663410862704096
sI76
F0.0
sI16
g226
sI49
g229
sI53
F1.8785266455922662
sI54
F0.0
sI59
g232
sI60
g235
ssI5
(dp401
I26
F0.0
sI54
g242
sI13
g239
sI6
F0.0
ssI6
(dp402
I67
g252
sI66
g249
sI35
g246
sI29
F0.8499570896760459
ssI7
(dp403
I17
g264
sI3
g267
sI47
g270
ssI8
(dp404
I96
g283
sI6
g286
sI8
g289
sI77
g292
sI72
g295
sI58
g298
sI60
g301
sI94
g304
ssI9
(dp405
I67
g252
sI66
g249
sI35
g246
sI29
F0.8499570896760459
sssI24
(dp406
I0
(dp407
I8
F1.1413995442276084
sI48
F1.1447789988716572
sI52
F0.30573254375863773
sI88
g3
(g7
S'\xba\x01\xe3\x1dm\x0e\x06@'
p408
tp409
Rp410
sI57
F0.0
sI27
F0.12652675303458905
sI60
g3
(g7
S'\x90d+\x00\x93\xff\xf0?'
p411
tp412
Rp413
sI63
F0.0
ssI1
(dp414
I32
F0.39461119796939587
sI33
F1.0851751983192208
sI34
F1.3753256908292202
sI3
F0.3841497635912524
sI16
g3
(g7
S"\xdc\xd6`\xda'\xca\x01@"
p415
tp416
Rp417
sI71
g3
(g7
S'\x1e\xbcqV\x85v\x01@'
p418
tp419
Rp420
sI88
g3
(g7
S'p:\x1e\xff\x1c\xca\xec?'
p421
tp422
Rp423
ssI2
(dp424
I4
g3
(g7
S'\xe0\x83\x83L\xd9\xad\x10@'
p425
tp426
Rp427
sI54
g3
(g7
S'q3\xe1\x19\xd5y\n@'
p428
tp429
Rp430
sI6
g3
(g7
S'R\x93r2(\xdc\xeb?'
p431
tp432
Rp433
sI13
g3
(g7
S'0W\xc0\x7f\xbd\x88\xe7?'
p434
tp435
Rp436
sI77
F0.3575772845075865
sI21
F1.4510654339814921
sI86
F2.1151872558839764
sI100
F2.7944403616054263
sI26
g3
(g7
S'\xc0*)_\x92z\xea?'
p437
tp438
Rp439
sI94
F3.3243777712545115
ssI3
(dp440
I64
g3
(g7
S'[p\x18m\x01e\xef?'
p441
tp442
Rp443
sI51
F0.02430627780926775
sI99
F2.7716208265840097
sI4
F0.14279604228069892
sI72
g3
(g7
S'G0\xbc\xaeKP\x0b@'
p444
tp445
Rp446
sI77
F2.726086622027218
sI50
F0.16216888555557607
sI83
F0.0
sI23
F3.4791911303405603
sI56
g3
(g7
S'=\x86\xe0\xc3\xcfA\x05@'
p447
tp448
Rp449
sI60
F0.0
sI61
F1.701602300648499
sI94
F3.647200189985159
ssI4
(dp450
I69
g3
(g7
S'Nct\x06\xff\xed\xe3?'
p451
tp452
Rp453
sI41
F1.8362078013913925
sI76
F0.12579969989187526
sI16
F0.0
sI53
F0.7501686067298691
sI54
F0.31202379775528555
sI59
g3
(g7
S'\n\x8eY\x8b\xf9\xa3\x04@'
p454
tp455
Rp456
sI60
g3
(g7
S'\xc5\xa1\x12G4\xd4\xf2?'
p457
tp458
Rp459
ssI5
(dp460
I51
F0.005279066976664248
sI21
F0.6146981216694846
sI6
g3
(g7
S'\x96\xd9x\x87\x91\x16\xe7?'
p461
tp462
Rp463
sI26
F0.0
sI54
g3
(g7
S'g\x9f\x82\x8a!l\xf7?'
p464
tp465
Rp466
sI13
g3
(g7
S'\x02\x95\xe1I\x83\xe0\x11@'
p467
tp468
Rp469
ssI6
(dp470
I67
g3
(g7
S'M\x80\x11\xc4\xa9\x18\xe5?'
p471
tp472
Rp473
sI66
g3
(g7
S'\x0c\xc9\x1b\xd6Y\xd4\xfd?'
p474
tp475
Rp476
sI35
g3
(g7
S'F\xc7,.\xd7d\xdd?'
p477
tp478
Rp479
sI46
F0.10320971159464432
ssI7
(dp480
I35
g3
(g7
S'_q\xc9\r\x1fj\xe1?'
p481
tp482
Rp483
sI11
g3
(g7
S'p\x16\xb1\x1e\xd35\xf0?'
p484
tp485
Rp486
sI13
F0.0
sI78
F0.0
sI79
F0.9490276897537238
sI80
g3
(g7
S'\xfe\x92[X\xf2a\xf4?'
p487
tp488
Rp489
sI23
g3
(g7
S"\xd0\xb3\xe5\xae'\xae\xd2?"
p490
tp491
Rp492
sI24
F0.0
sI58
F0.0
sI30
g3
(g7
S'x\xba[\xe9\xa0\xff\x92?'
p493
tp494
Rp495
sssI25
(dp496
I0
(dp497
I48
F0.965994755053061
sI8
F0.0023513326350734776
sI52
F2.3893053957192474
sI88
g3
(g7
S'V\n\x11$\x8d`\xfc?'
p498
tp499
Rp500
sI57
F0.0
sI27
F0.0
sI60
F0.0
ssI1
(dp501
I32
F0.0
sI33
F0.0
sI34
F2.2984111326096714
sI99
F0.1699913028507335
sI16
g3
(g7
S'\x9ef?\x91\xb4c\x08@'
p502
tp503
Rp504
sI71
g3
(g7
S'\x02\xac\xbc\xf7\x97\x1e\xf3?'
p505
tp506
Rp507
sI88
g3
(g7
S'\xa8W\xf2\\J\x12\xf2?'
p508
tp509
Rp510
ssI2
(dp511
I4
g3
(g7
S'\xaeI\xf8\x06\x89F\x15@'
p512
tp513
Rp514
sI54
g3
(g7
S'\x83\xd5~\xb8Y\xa7\x01@'
p515
tp516
Rp517
sI6
g3
(g7
S'\x8c\x19"\x87\n\r\xf8?'
p518
tp519
Rp520
sI21
F2.840036935437387
sI86
F3.070263113946779
sI100
F3.319796422691829
sI26
g3
(g7
S'F<\x12\x0f{\xb7\xfb?'
p521
tp522
Rp523
sI94
F0.0
ssI3
(dp524
I64
g3
(g7
S'\xda\x88\xfa>b\xbe\xd8?'
p525
tp526
Rp527
sI51
F0.0
sI99
F1.2675228758874513
sI72
g3
(g7
S'\xb1Z\xec\x16]#\r@'
p528
tp529
Rp530
sI77
F1.888144331471369
sI50
F3.0043017534353202
sI83
F0.0
sI23
F2.897307914632964
sI56
g3
(g7
S'\xe7U\xdd\x90\xfc\xb6\n@'
p531
tp532
Rp533
sI60
F0.0
sI61
F1.0295821830981997
sI94
F3.674642834881131
ssI4
(dp534
I69
g3
(g7
S'\x14\xc1ZK\xe2`\xf9?'
p535
tp536
Rp537
sI41
F1.1153435848288673
sI76
F0.24030341896971757
sI16
F0.0
sI49
g3
(g7
S'\xb3]\xccr\xabn\xe6?'
p538
tp539
Rp540
sI53
F0.8659429098222133
sI54
F0.21249977723025995
sI59
g3
(g7
S'\x8e\xef`\rS$\t@'
p541
tp542
Rp543
sI60
g3
(g7
S"\xff)r1{'\xe2?"
p544
tp545
Rp546
ssI5
(dp547
I26
F0.0
sI54
g3
(g7
S'X\x8b!\xc0\x00%\xeb?'
p548
tp549
Rp550
sI13
g3
(g7
S'>\x9d-\xd0\xb0z\x10@'
p551
tp552
Rp553
sI6
F0.0
sI21
F0.0
ssI6
(dp554
I67
g3
(g7
S'\x04+\x1a\x8a\x9d\xd2\xc2?'
p555
tp556
Rp557
sI66
g3
(g7
S'D\x19@\x97\xe8\xcc\xf4?'
p558
tp559
Rp560
sI35
g3
(g7
S'\x86z\xb2\xe8\x1f\x06\xe5?'
p561
tp562
Rp563
ssI7
(dp564
I35
g3
(g7
S'h:\xd45sb\xdc?'
p565
tp566
Rp567
sI11
g3
(g7
S'B\xbb\xac\xb56\xf6\xf1?'
p568
tp569
Rp570
sI13
F0.0
sI78
g3
(g7
S'*z\xe1g\xd1y\xf4?'
p571
tp572
Rp573
sI80
g3
(g7
S'\xb4Z\x0e\xe3\xb6\x01\xfe?'
p574
tp575
Rp576
sI23
g3
(g7
S'\x82T\xf9\x94~\xa0\xfc?'
p577
tp578
Rp579
sI24
F0.0
sI58
F0.0
sI30
F0.0
sssI26
(dp580
I0
(dp581
I48
F1.2452661897334054
sI8
F0.03731270911846875
sI52
F2.1417157959805926
sI88
g3
(g7
S'\xc0dj|\x1b*\n@'
p582
tp583
Rp584
sI57
F0.0
sI74
F0.7714813229425729
sI27
F0.0
sI60
F0.5183139402407753
ssI1
(dp585
I32
F0.0
sI33
F0.0
sI34
F2.2984111326096714
sI99
F0.1699913028507335
sI16
g504
sI71
g507
sI88
g510
ssI2
(dp586
I4
g514
sI54
g517
sI6
g520
sI21
F2.840036935437387
sI86
F3.070263113946779
sI100
F3.319796422691829
sI26
g523
sI94
F0.0
ssI3
(dp587
I64
g527
sI51
F0.0
sI99
F1.2675228758874513
sI72
g530
sI77
F1.888144331471369
sI50
F3.0043017534353202
sI83
F0.0
sI23
F2.897307914632964
sI56
g533
sI60
F0.0
sI61
F1.0295821830981997
sI94
F3.674642834881131
ssI4
(dp588
I69
g537
sI41
F1.1153435848288673
sI76
F0.24030341896971757
sI16
F0.0
sI49
g540
sI53
F0.8659429098222133
sI54
F0.21249977723025995
sI59
g543
sI60
g546
ssI5
(dp589
I26
F0.0
sI54
g550
sI13
g553
sI6
F0.0
sI21
F0.0
ssI6
(dp590
I67
g557
sI66
g560
sI35
g563
ssI7
(dp591
I35
g567
sI11
g570
sI13
F0.0
sI78
g573
sI80
g576
sI23
g579
sI24
F0.0
sI58
F0.0
sI30
F0.0
sssI27
(dp592
I0
(dp593
I48
F1.400984046852141
sI88
g3
(g7
S'\xcb\xcb<\xb1\x18\xb8\n@'
p594
tp595
Rp596
sI52
F0.0
sI8
F1.824105815755933
sI57
F0.3651147300272849
sI27
F0.0
sI60
g3
(g7
S'\x87a<\xb5\xb3\x15\xf1?'
p597
tp598
Rp599
ssI1
(dp600
I32
F1.0625185245723503
sI16
g3
(g7
S'J\xc3\xec}\x1b\xe5\x04@'
p601
tp602
Rp603
sI34
F1.3192401098326683
sI88
g3
(g7
S"\xc2\xa6'\xabk\x14\xf0?"
p604
tp605
Rp606
sI71
g3
(g7
S'N\x8b\xeb\x0c\xce0\x0f@'
p607
tp608
Rp609
ssI2
(dp610
I98
F0.577583781584789
sI4
g3
(g7
S'R\xb6[&k\xa7\x10@'
p611
tp612
Rp613
sI86
F2.3825759678869805
sI6
g3
(g7
S'^\xc2\x81\x8c\xae\xb4\xfa?'
p614
tp615
Rp616
sI13
g3
(g7
S'\x14\xd0\xa3.\xceE\x02@'
p617
tp618
Rp619
sI21
F2.447163496381844
sI54
g3
(g7
S'\x06\xfe\x07\xc3H\xa5\x0c@'
p620
tp621
Rp622
sI100
F0.5154489683390058
sI26
g3
(g7
S'|\xad\xd2\xcez\xe5\t@'
p623
tp624
Rp625
sI94
F1.6964891059266662
ssI3
(dp626
I64
g3
(g7
S'\xb1=\xd0\xfe\x1f\xfd\xf9?'
p627
tp628
Rp629
sI1
F0.9303398773843352
sI83
F0.0
sI99
F1.5591066585524938
sI4
F0.1873172899688758
sI72
g3
(g7
S'\x10\x7f\x7f >\xac\x11@'
p630
tp631
Rp632
sI77
F0.879952559246437
sI50
F1.3152412787912073
sI51
F1.7412356271611569
sI23
F2.721772956908539
sI56
g3
(g7
S'\x18\x9d\xd8\xdd\xa7\xfb\x14@'
p633
tp634
Rp635
sI60
F0.27637510675504456
sI61
F1.2910948434149352
sI94
F1.493073684697975
ssI4
(dp636
I69
g3
(g7
S'\xf1\x98\xc8\xf1Cy\xfd?'
p637
tp638
Rp639
sI41
F1.8289523896299795
sI76
F0.0
sI16
F1.411356953345254
sI49
g3
(g7
S'\xa6\xc1H\xcb\xe3\x04\xc2?'
p640
tp641
Rp642
sI53
F0.8042270080598234
sI54
F1.0260866190511355
sI59
g3
(g7
S'\x1e\xf0\xaf\xbc\xe1\xab\x03@'
p643
tp644
Rp645
sI60
g3
(g7
S'\x06\xcfX\xaf8\r\x03@'
p646
tp647
Rp648
ssI5
(dp649
I26
F0.0
sI6
g3
(g7
S'>\x94\xb5\xd5\xc2\xcc\xf8?'
p650
tp651
Rp652
sI13
g3
(g7
S'\x14`G\xbe\x07\xaf\x14@'
p653
tp654
Rp655
sI54
g3
(g7
S'\x14\xf3:\xc2W\n\x04@'
p656
tp657
Rp658
sI21
F0.602050954804249
ssI6
(dp659
I35
F0.0
sI66
g3
(g7
S'\xca|o4a\x01\xe3?'
p660
tp661
Rp662
sI67
g3
(g7
S'mM\xdbu\xe8\xe4\xcc?'
p663
tp664
Rp665
ssI7
(dp666
I35
g3
(g7
S'l\xf7\x1b1\xff^\xe0?'
p667
tp668
Rp669
sI11
g3
(g7
S'\x89\xf4\xeb\xda)\xa9\x02@'
p670
tp671
Rp672
sI13
g3
(g7
S'\x93\x860vVM\xee?'
p673
tp674
Rp675
sI78
F0.0
sI80
g3
(g7
S'\xbdp\x9bz\x8cQ\xfd?'
p676
tp677
Rp678
sI82
F0.19987941195825054
sI23
g3
(g7
S'\xe8\na\x12\xf4\x12\xa9?'
p679
tp680
Rp681
sI24
g3
(g7
S'\xad\xc2\xe6\x15\xb5\x1f\xf2?'
p682
tp683
Rp684
sI58
F0.0
sI30
F0.0
sssI28
(dp685
I0
(dp686
I48
F0.965994755053061
sI88
g500
sI52
F2.3893053957192474
sI8
F0.0023513326350734776
sI57
F0.0
sI27
F0.0
sI60
F0.0
ssI1
(dp687
I32
F0.0
sI33
F0.0
sI34
F2.2984111326096714
sI99
F0.1699913028507335
sI16
g504
sI71
g507
sI88
g510
ssI2
(dp688
I4
g514
sI86
F3.070263113946779
sI6
g520
sI21
F2.840036935437387
sI54
g517
sI100
F3.319796422691829
sI26
g523
sI94
F0.0
ssI3
(dp689
I64
g527
sI83
F0.0
sI99
F1.2675228758874513
sI72
g530
sI77
F1.888144331471369
sI50
F3.0043017534353202
sI51
F0.0
sI23
F2.897307914632964
sI56
g533
sI60
F0.0
sI61
F1.0295821830981997
sI94
F3.674642834881131
ssI4
(dp690
I69
g537
sI41
F1.1153435848288673
sI76
F0.24030341896971757
sI16
F0.0
sI49
g540
sI53
F0.8659429098222133
sI54
F0.21249977723025995
sI59
g543
sI60
g546
ssI5
(dp691
I26
F0.0
sI6
F0.0
sI13
g553
sI54
g550
sI21
F0.0
ssI6
(dp692
I35
g563
sI66
g560
sI67
g557
ssI7
(dp693
I35
g567
sI11
g570
sI13
F0.0
sI78
g573
sI80
g576
sI23
g579
sI24
F0.0
sI58
F0.0
sI30
F0.0
ssI8
(dp694
I36
g3
(g7
S'#\x1fEu\x15\xe4\xe7?'
p695
tp696
Rp697
sI6
g3
(g7
S'\xb0\xea\xa6\x98\r\x8f\xe6?'
p698
tp699
Rp700
sI9
g3
(g7
S'\xec#\xe7.\x0e\xa8\xd4?'
p701
tp702
Rp703
sI46
g3
(g7
S'\xa41l}y\x83\xea?'
p704
tp705
Rp706
sI17
g3
(g7
S'\xb8\xfb\x8f\x17\xab\xbe\xd6?'
p707
tp708
Rp709
sI84
g3
(g7
S'"\xb5(\x86\xe9\xa2\xe6?'
p710
tp711
Rp712
sI53
g3
(g7
S'\xf8\x9a\x1a\xd1Z\xd9\xee?'
p713
tp714
Rp715
sI26
g3
(g7
S'\xc8^uJ\t\x10\xb9?'
p716
tp717
Rp718
sI31
g3
(g7
S'|\xb5Q\x0c\xb32\xc9?'
p719
tp720
Rp721
sssI29
(dp722
I0
(dp723
I48
F0.965994755053061
sI88
g500
sI52
F2.3893053957192474
sI8
F0.0023513326350734776
sI57
F0.0
sI27
F0.0
sI60
F0.0
ssI1
(dp724
I32
F0.0
sI33
F0.0
sI34
F2.2984111326096714
sI99
F0.1699913028507335
sI16
g504
sI71
g507
sI88
g510
ssI2
(dp725
I4
g514
sI86
F3.070263113946779
sI6
g520
sI21
F2.840036935437387
sI54
g517
sI100
F3.319796422691829
sI26
g523
sI94
F0.0
ssI3
(dp726
I64
g527
sI83
F0.0
sI99
F1.2675228758874513
sI72
g530
sI77
F1.888144331471369
sI50
F3.0043017534353202
sI51
F0.0
sI23
F2.897307914632964
sI56
g533
sI60
F0.0
sI61
F1.0295821830981997
sI94
F3.674642834881131
ssI4
(dp727
I69
g537
sI41
F1.1153435848288673
sI76
F0.24030341896971757
sI16
F0.0
sI49
g540
sI53
F0.8659429098222133
sI54
F0.21249977723025995
sI59
g543
sI60
g546
ssI5
(dp728
I26
F0.0
sI6
F0.0
sI13
g553
sI54
g550
sI21
F0.0
ssI6
(dp729
I35
g563
sI66
g560
sI67
g557
ssI7
(dp730
I35
g567
sI11
g570
sI13
F0.0
sI78
g573
sI80
g576
sI23
g579
sI24
F0.0
sI58
F0.0
sI30
F0.0
ssI8
(dp731
I36
g3
(g7
S'^K\xea]\x19\x1f\xf6?'
p732
tp733
Rp734
sI6
F0.0
sI9
g3
(g7
S'U\x8e*fq\x0e\xfa?'
p735
tp736
Rp737
sI46
F0.0
sI16
F0.048124306363281466
sI17
g3
(g7
S'`\xef\xf2\x9d!g\x86?'
p738
tp739
Rp740
sI84
g3
(g7
S'\x00\xc8R\xfc\x97\xe3\xfb?'
p741
tp742
Rp743
sI53
g3
(g7
S'-\xa0V\xdf\xfch\xe6?'
p744
tp745
Rp746
sI26
g3
(g7
S'D\x90E[\xb4\xe2\xd5?'
p747
tp748
Rp749
sI31
g3
(g7
S'\xf7\xa0A\xbc\x16v\xb3?'
p750
tp751
Rp752
sssI30
(dp753
I0
(dp754
I48
F0.965994755053061
sI8
F0.0023513326350734776
sI52
F2.3893053957192474
sI88
g500
sI57
F0.0
sI27
F0.0
sI60
F0.0
ssI1
(dp755
I32
F0.0
sI33
F0.0
sI34
F2.2984111326096714
sI99
F0.1699913028507335
sI16
g504
sI71
g507
sI88
g510
ssI2
(dp756
I4
g514
sI54
g517
sI6
g520
sI21
F2.840036935437387
sI86
F3.070263113946779
sI100
F3.319796422691829
sI26
g523
sI94
F0.0
ssI3
(dp757
I64
g527
sI51
F0.0
sI99
F1.2675228758874513
sI72
g530
sI77
F1.888144331471369
sI50
F3.0043017534353202
sI83
F0.0
sI23
F2.897307914632964
sI56
g533
sI60
F0.0
sI61
F1.0295821830981997
sI94
F3.674642834881131
ssI4
(dp758
I69
g537
sI41
F1.1153435848288673
sI76
F0.24030341896971757
sI16
F0.0
sI49
g540
sI53
F0.8659429098222133
sI54
F0.21249977723025995
sI59
g543
sI60
g546
ssI5
(dp759
I26
F0.0
sI54
g550
sI13
g553
sI6
F0.0
sI21
F0.0
ssI6
(dp760
I67
g557
sI66
g560
sI35
g563
ssI7
(dp761
I35
g567
sI11
g570
sI13
F0.0
sI78
g573
sI80
g576
sI23
g579
sI24
F0.0
sI58
F0.0
sI30
F0.0
ssI8
(dp762
I36
g734
sI6
F0.0
sI9
g737
sI46
F0.0
sI16
F0.048124306363281466
sI17
g740
sI84
g743
sI53
g746
sI26
g749
sI31
g752
ssI9
(dp763
I48
F0.965994755053061
sI8
F0.0023513326350734776
sI52
F2.3893053957192474
sI88
g500
sI57
F0.0
sI27
F0.0
sI60
F0.0
sssI31
(dp764
I0
(dp765
I48
F0.965994755053061
sI8
F0.0023513326350734776
sI52
F2.3893053957192474
sI88
g500
sI57
F0.0
sI27
F0.0
sI60
F0.0
ssI1
(dp766
I32
F0.0
sI33
F0.32810553569173956
sI34
F1.167558138816908
sI99
F0.3746137141323362
sI16
g3
(g7
S'\r\xd0\xbc\xf0\xcaD\x0b@'
p767
tp768
Rp769
sI71
g3
(g7
S'\x14\xab\x8di\xfc\xbb\xed?'
p770
tp771
Rp772
sI88
g3
(g7
S'_\xd2a\xc6Vt\xf8?'
p773
tp774
Rp775
sI87
F0.5447703329079604
ssI2
(dp776
I4
g514
sI54
g517
sI6
g520
sI21
F2.840036935437387
sI86
F3.070263113946779
sI100
F3.319796422691829
sI26
g523
sI94
F0.0
ssI3
(dp777
I64
g527
sI51
F0.0
sI99
F1.2675228758874513
sI72
g530
sI77
F1.888144331471369
sI50
F3.0043017534353202
sI83
F0.0
sI23
F2.897307914632964
sI56
g533
sI60
F0.0
sI61
F1.0295821830981997
sI94
F3.674642834881131
ssI4
(dp778
I69
g537
sI41
F1.1153435848288673
sI76
F0.24030341896971757
sI16
F0.0
sI49
g540
sI53
F0.8659429098222133
sI54
F0.21249977723025995
sI59
g543
sI60
g546
ssI5
(dp779
I26
F0.0
sI54
g550
sI13
g553
sI6
F0.0
sI21
F0.0
ssI6
(dp780
I67
g557
sI66
g560
sI35
g563
ssI7
(dp781
I35
g567
sI11
g570
sI13
F0.0
sI78
g573
sI80
g576
sI23
g579
sI24
F0.0
sI58
F0.0
sI30
F0.0
ssI8
(dp782
I36
g734
sI6
F0.0
sI9
g737
sI46
F0.0
sI16
F0.048124306363281466
sI17
g740
sI84
g743
sI53
g746
sI26
g749
sI31
g752
ssI9
(dp783
I48
F0.965994755053061
sI8
F0.0023513326350734776
sI52
F2.3893053957192474
sI88
g500
sI57
F0.0
sI27
F0.0
sI60
F0.0
sssI32
(dp784
I0
(dp785
I48
F0.965994755053061
sI88
g500
sI52
F2.3893053957192474
sI8
F0.0023513326350734776
sI57
F0.0
sI27
F0.0
sI60
F0.0
ssI1
(dp786
I32
F0.0
sI33
F0.0
sI34
F2.2984111326096714
sI99
F0.1699913028507335
sI16
g504
sI71
g507
sI88
g510
ssI2
(dp787
I4
g514
sI86
F3.070263113946779
sI6
g520
sI21
F2.840036935437387
sI54
g517
sI100
F3.319796422691829
sI26
g523
sI94
F0.0
ssI3
(dp788
I64
F0.0
sI83
F0.8469824513685635
sI99
F1.384276141632998
sI72
g3
(g7
S'Q\xf1no6\xc1\x12@'
p789
tp790
Rp791
sI87
F0.5198113428432706
sI77
F2.285308164632846
sI50
F2.9381809426575383
sI51
F0.0
sI23
F4.8450107889917815
sI56
g3
(g7
S'&\xdc\x14\x92\xc5\x1d\x03@'
p792
tp793
Rp794
sI60
F0.0
sI61
F0.0
sI94
F3.714747298349403
ssI4
(dp795
I69
g537
sI41
F1.1153435848288673
sI76
F0.24030341896971757
sI16
F0.0
sI49
g540
sI53
F0.8659429098222133
sI54
F0.21249977723025995
sI59
g543
sI60
g546
ssI5
(dp796
I26
F0.0
sI6
F0.0
sI13
g553
sI54
g550
sI21
F0.0
ssI6
(dp797
I35
g563
sI66
g560
sI67
g557
ssI7
(dp798
I35
g567
sI11
g570
sI13
F0.0
sI78
g573
sI80
g576
sI23
g579
sI24
F0.0
sI58
F0.0
sI30
F0.0
ssI8
(dp799
I36
g734
sI6
F0.0
sI9
g737
sI46
F0.0
sI16
F0.048124306363281466
sI17
g740
sI84
g743
sI53
g746
sI26
g749
sI31
g752
sssI33
(dp800
I0
(dp801
I48
F0.965994755053061
sI8
F0.0023513326350734776
sI52
F2.3893053957192474
sI88
g500
sI57
F0.0
sI27
F0.0
sI60
F0.0
ssI1
(dp802
I32
F0.0
sI33
F0.0
sI34
F2.2984111326096714
sI99
F0.1699913028507335
sI16
g504
sI71
g507
sI88
g510
ssI2
(dp803
I4
g514
sI54
g517
sI6
g520
sI21
F2.840036935437387
sI86
F3.070263113946779
sI100
F3.319796422691829
sI26
g523
sI94
F0.0
ssI3
(dp804
I64
g527
sI51
F0.0
sI99
F1.2675228758874513
sI72
g530
sI77
F1.888144331471369
sI50
F3.0043017534353202
sI83
F0.0
sI23
F2.897307914632964
sI56
g533
sI60
F0.0
sI61
F1.0295821830981997
sI94
F3.674642834881131
ssI4
(dp805
I69
g537
sI41
F1.1153435848288673
sI76
F0.24030341896971757
sI16
F0.0
sI49
g540
sI53
F0.8659429098222133
sI54
F0.21249977723025995
sI59
g543
sI60
g546
ssI5
(dp806
I26
F0.0
sI54
g550
sI13
g553
sI6
F0.0
sI21
F0.0
ssI6
(dp807
I67
g557
sI66
g560
sI35
g563
ssI7
(dp808
I35
g567
sI11
g570
sI13
F0.0
sI78
g573
sI80
g576
sI23
g579
sI24
F0.0
sI58
F0.0
sI30
F0.0
ssI8
(dp809
I36
g3
(g7
S'$\xd8\x9e\xf6\x14\x98\xd0?'
p810
tp811
Rp812
sI6
F0.0
sI9
g3
(g7
S"\x1c\xeb'S\x93\x11\x06@"
p813
tp814
Rp815
sI46
F1.034757775081956
sI16
F1.5616348254989911
sI17
g3
(g7
S'e\x9d\x13\x94\x86\xb7\xf3?'
p816
tp817
Rp818
sI84
g3
(g7
S'\x80^\xc2b_\xd1\xe5?'
p819
tp820
Rp821
sI53
g3
(g7
S'D\x19uv\xd5\xe6\x08@'
p822
tp823
Rp824
sI26
g3
(g7
S'\xcb\x90*\x7f\xf6\x19\x01@'
p825
tp826
Rp827
sI61
F0.012782368926434251
sI31
g3
(g7
S'\x0eB\x817\xb2T\xbd?'
p828
tp829
Rp830
ssI9
(dp831
I48
F0.965994755053061
sI8
F0.0023513326350734776
sI52
F2.3893053957192474
sI88
g500
sI57
F0.0
sI27
F0.0
sI60
F0.0
sssI34
(dp832
I0
(dp833
I48
F3.200674615019729
sI8
F2.2980277635943
sI52
F0.0
sI88
g3
(g7
S'\xc4\xbb\x81\xd1\x98I\x07@'
p834
tp835
Rp836
sI57
F0.6247410431152085
sI27
F0.11802009509325286
sI60
F0.0
ssI1
(dp837
I32
F2.057549574731914
sI16
g3
(g7
S'x&\xd5\x068\xf4\x06@'
p838
tp839
Rp840
sI34
F1.1862874296574617
sI71
g3
(g7
S'^bm\x94\xa7,\x08@'
p841
tp842
Rp843
sI88
g3
(g7
S'\x92l3\xea\xe0~\xe4?'
p844
tp845
Rp846
sI79
F0.9062439627068599
ssI2
(dp847
I98
F3.074915298420609
sI4
g3
(g7
S'\x8c\x96\x8f\x9a\xdf\xc3\n@'
p848
tp849
Rp850
sI54
g3
(g7
S't\xbf\xd5\xcf\xeb\x8d\x11@'
p851
tp852
Rp853
sI6
g3
(g7
S'\xc6\x9a\xfd:\xf1C\x0e@'
p854
tp855
Rp856
sI13
g3
(g7
S'\x1c\xef2W\xa8\xae\xd4?'
p857
tp858
Rp859
sI21
F3.480965031016348
sI86
F2.096540124492726
sI100
F0.42806307201613397
sI26
g3
(g7
S'~\xf4\xd4\xe7Z"\x04@'
p860
tp861
Rp862
ssI3
(dp863
I64
g3
(g7
S'\x06ZOk\xacU\x00@'
p864
tp865
Rp866
sI1
F0.5390396526052059
sI99
F0.5485337652057585
sI4
F0.0
sI51
F1.8768248742053442
sI72
g3
(g7
S'\xf6\x8fjN\x9c\xdc\x10@'
p867
tp868
Rp869
sI77
F1.904501997499704
sI46
F0.5121642232957849
sI50
F1.8363590591356314
sI83
F0.0
sI23
F2.652531512768217
sI56
g3
(g7
S'\xca\xebW\x16w\x01\x1a@'
p870
tp871
Rp872
sI60
F1.6390128252872838
sI61
F0.0
sI94
F0.8486977504505393
ssI4
(dp873
I69
g3
(g7
S'^\xc5|\x0f\xab\x9b\xfb?'
p874
tp875
Rp876
sI41
F2.249918682285815
sI76
F0.0
sI16
F1.8958339753446032
sI49
g3
(g7
S'\x17a]h\x1e#\xc0?'
p877
tp878
Rp879
sI53
F0.6681290748065465
sI54
F1.5299792845047613
sI87
F0.15252416851673511
sI59
g3
(g7
S'\xa4\x0b\x97I}\xeb\x05@'
p880
tp881
Rp882
sI60
g3
(g7
S'\xc5\x13\xe7\xf0\x8f\xf3\n@'
p883
tp884
Rp885
ssI5
(dp886
I26
F1.4078374064924073
sI13
g3
(g7
S'\xab\xe2\xdf`\xc9-\x13@'
p887
tp888
Rp889
sI6
g3
(g7
S'\x8cN\xb0#\x9b_\xee?'
p890
tp891
Rp892
sI21
F0.11191084806758311
ssI6
(dp893
I67
g3
(g7
S'\x8e\x0c\x94\xb8B.\xe1?'
p894
tp895
Rp896
sI66
g3
(g7
S'\xa6x\xd5\xf0\x9e\xd2\xc9?'
p897
tp898
Rp899
sI35
F2.172190287070542
sI37
F0.8958658907385182
ssI7
(dp900
I11
g3
(g7
S'\x92^\x18\x1c\xf9\xa3\x03@'
p901
tp902
Rp903
sI13
F0.0
sI78
F0.8355371776415721
sI80
g3
(g7
S'\x93\x87dU\xa7\x87\xfc?'
p904
tp905
Rp906
sI82
F0.0
sI23
g3
(g7
S'\xd1\x10[\xe3\xd1\xfe\xde?'
p907
tp908
Rp909
sI24
g3
(g7
S'\xb9?\xc3\x1cLo\x01@'
p910
tp911
Rp912
sI58
F0.4175638855399111
sI30
F0.0
sssI35
(dp913
I0
(dp914
I48
F3.200674615019729
sI88
g836
sI52
F0.0
sI8
F2.2980277635943
sI57
F0.6247410431152085
sI27
F0.11802009509325286
sI60
F0.0
ssI1
(dp915
I32
F2.057549574731914
sI16
g840
sI34
F1.1862874296574617
sI71
g843
sI88
g846
sI79
F0.9062439627068599
ssI2
(dp916
I98
F3.074915298420609
sI4
g850
sI86
F2.096540124492726
sI6
g856
sI13
g859
sI21
F3.480965031016348
sI54
g853
sI100
F0.42806307201613397
sI26
g862
ssI3
(dp917
I64
g866
sI1
F0.5390396526052059
sI83
F0.0
sI99
F0.5485337652057585
sI4
F0.0
sI72
g869
sI77
F1.904501997499704
sI46
F0.5121642232957849
sI50
F1.8363590591356314
sI51
F1.8768248742053442
sI23
F2.652531512768217
sI56
g872
sI60
F1.6390128252872838
sI61
F0.0
sI94
F0.8486977504505393
ssI4
(dp918
I69
g876
sI41
F2.249918682285815
sI76
F0.0
sI16
F1.8958339753446032
sI49
g879
sI53
F0.6681290748065465
sI54
F1.5299792845047613
sI87
F0.15252416851673511
sI59
g882
sI60
g885
ssI5
(dp919
I26
F1.4078374064924073
sI13
g889
sI6
g892
sI21
F0.11191084806758311
ssI6
(dp920
I35
F2.172190287070542
sI66
g899
sI67
g896
sI37
F0.8958658907385182
ssI7
(dp921
I11
g903
sI13
F0.0
sI78
F0.8355371776415721
sI80
g906
sI82
F0.0
sI23
g909
sI24
g912
sI58
F0.4175638855399111
sI30
F0.0
ssI8
(dp922
I69
g876
sI41
F2.249918682285815
sI76
F0.0
sI16
F1.8958339753446032
sI49
g879
sI53
F0.6681290748065465
sI54
F1.5299792845047613
sI87
F0.15252416851673511
sI59
g882
sI60
g885
sssI36
(dp923
I0
(dp924
I48
F3.200674615019729
sI8
F2.2980277635943
sI52
F0.0
sI88
g836
sI57
F0.6247410431152085
sI27
F0.11802009509325286
sI60
F0.0
ssI1
(dp925
I32
F2.057549574731914
sI16
g840
sI34
F1.1862874296574617
sI71
g843
sI88
g846
sI79
F0.9062439627068599
ssI2
(dp926
I98
F3.074915298420609
sI4
g850
sI54
g853
sI6
g856
sI13
g859
sI21
F3.480965031016348
sI86
F2.096540124492726
sI100
F0.42806307201613397
sI26
g862
ssI3
(dp927
I64
g866
sI1
F0.5390396526052059
sI99
F0.5485337652057585
sI4
F0.0
sI51
F1.8768248742053442
sI72
g869
sI77
F1.904501997499704
sI46
F0.5121642232957849
sI50
F1.8363590591356314
sI83
F0.0
sI23
F2.652531512768217
sI56
g872
sI60
F1.6390128252872838
sI61
F0.0
sI94
F0.8486977504505393
ssI4
(dp928
I69
g876
sI41
F2.249918682285815
sI76
F0.0
sI16
F1.8958339753446032
sI49
g879
sI53
F0.6681290748065465
sI54
F1.5299792845047613
sI87
F0.15252416851673511
sI59
g882
sI60
g885
ssI5
(dp929
I26
F1.4078374064924073
sI13
g889
sI6
g892
sI21
F0.11191084806758311
ssI6
(dp930
I67
g896
sI66
g899
sI35
F2.172190287070542
sI37
F0.8958658907385182
ssI7
(dp931
I11
g903
sI13
F0.0
sI78
F0.8355371776415721
sI80
g906
sI82
F0.0
sI23
g909
sI24
g912
sI58
F0.4175638855399111
sI30
F0.0
ssI8
(dp932
I69
g876
sI41
F2.249918682285815
sI76
F0.0
sI16
F1.8958339753446032
sI49
g879
sI53
F0.6681290748065465
sI54
F1.5299792845047613
sI87
F0.15252416851673511
sI59
g882
sI60
g885
ssI9
(dp933
I69
g876
sI41
F2.249918682285815
sI76
F0.0
sI16
F1.8958339753446032
sI49
g879
sI53
F0.6681290748065465
sI54
F1.5299792845047613
sI87
F0.15252416851673511
sI59
g882
sI60
g885
sssI37
(dp934
I0
(dp935
I48
F3.200674615019729
sI88
g836
sI52
F0.0
sI8
F2.2980277635943
sI57
F0.6247410431152085
sI27
F0.11802009509325286
sI60
F0.0
ssI1
(dp936
I32
F2.057549574731914
sI16
g840
sI34
F1.1862874296574617
sI71
g843
sI88
g846
sI79
F0.9062439627068599
ssI2
(dp937
I98
F3.074915298420609
sI4
g850
sI86
F2.096540124492726
sI6
g856
sI13
g859
sI21
F3.480965031016348
sI54
g853
sI100
F0.42806307201613397
sI26
g862
ssI3
(dp938
I64
g3
(g7
S'B\xc6\x1bh\xc0n\x13@'
p939
tp940
Rp941
sI1
F1.5945152189244869
sI83
F1.6119791057607118
sI99
F0.6591279550368156
sI4
F0.0
sI72
g3
(g7
S'1"\xdcT\x90\xc3\x11@'
p942
tp943
Rp944
sI77
F3.5991675284991205
sI46
F0.504284962661031
sI50
F0.6407428708976555
sI51
F1.1149535759852325
sI23
F4.519972150093613
sI56
g3
(g7
S' \x94?v\x16G\x1b@'
p945
tp946
Rp947
sI60
F2.33522958056428
sI61
F1.6533099371620474
sI94
F0.5493592833408149
ssI4
(dp948
I69
g876
sI41
F2.249918682285815
sI76
F0.0
sI16
F1.8958339753446032
sI49
g879
sI53
F0.6681290748065465
sI54
F1.5299792845047613
sI87
F0.15252416851673511
sI59
g882
sI60
g885
ssI5
(dp949
I26
F1.4078374064924073
sI13
g889
sI6
g892
sI21
F0.11191084806758311
ssI6
(dp950
I35
F2.172190287070542
sI66
g899
sI67
g896
sI37
F0.8958658907385182
ssI7
(dp951
I11
g903
sI13
F0.0
sI78
F0.8355371776415721
sI80
g906
sI82
F0.0
sI23
g909
sI24
g912
sI58
F0.4175638855399111
sI30
F0.0
ssI8
(dp952
I69
g876
sI41
F2.249918682285815
sI76
F0.0
sI16
F1.8958339753446032
sI49
g879
sI53
F0.6681290748065465
sI54
F1.5299792845047613
sI87
F0.15252416851673511
sI59
g882
sI60
g885
ssI9
(dp953
I69
g876
sI41
F2.249918682285815
sI76
F0.0
sI16
F1.8958339753446032
sI49
g879
sI53
F0.6681290748065465
sI54
F1.5299792845047613
sI87
F0.15252416851673511
sI59
g882
sI60
g885
sssI38
(dp954
I0
(dp955
I48
F3.200674615019729
sI88
g836
sI52
F0.0
sI8
F2.2980277635943
sI57
F0.6247410431152085
sI27
F0.11802009509325286
sI60
F0.0
ssI1
(dp956
I32
F2.057549574731914
sI16
g840
sI34
F1.1862874296574617
sI71
g843
sI88
g846
sI79
F0.9062439627068599
ssI2
(dp957
I98
F3.074915298420609
sI4
g850
sI86
F2.096540124492726
sI6
g856
sI13
g859
sI21
F3.480965031016348
sI54
g853
sI100
F0.42806307201613397
sI26
g862
ssI3
(dp958
I64
g941
sI1
F1.5945152189244869
sI83
F1.6119791057607118
sI99
F0.6591279550368156
sI4
F0.0
sI72
g944
sI77
F3.5991675284991205
sI46
F0.504284962661031
sI50
F0.6407428708976555
sI51
F1.1149535759852325
sI23
F4.519972150093613
sI56
g947
sI60
F2.33522958056428
sI61
F1.6533099371620474
sI94
F0.5493592833408149
ssI4
(dp959
I69
g3
(g7
S'2\xe4\x12\x13j\x1f\x07@'
p960
tp961
Rp962
sI41
F3.527673858084459
sI76
F0.31825466514750583
sI16
F1.050122877962786
sI53
F0.37369078696043073
sI54
F2.581732079731453
sI87
F1.5918443768790012
sI59
g3
(g7
S'y\x14\xe8\xfc\x875\xfa?'
p963
tp964
Rp965
sI60
g3
(g7
S'}(!&\x15\t\x05@'
p966
tp967
Rp968
ssI5
(dp969
I26
F1.4078374064924073
sI13
g889
sI6
g892
sI21
F0.11191084806758311
ssI6
(dp970
I35
F2.172190287070542
sI66
g899
sI67
g896
sI37
F0.8958658907385182
ssI7
(dp971
I11
g903
sI13
F0.0
sI78
F0.8355371776415721
sI80
g906
sI82
F0.0
sI23
g909
sI24
g912
sI58
F0.4175638855399111
sI30
F0.0
ssI8
(dp972
I69
g876
sI41
F2.249918682285815
sI76
F0.0
sI16
F1.8958339753446032
sI49
g879
sI53
F0.6681290748065465
sI54
F1.5299792845047613
sI87
F0.15252416851673511
sI59
g882
sI60
g885
ssI9
(dp973
I69
g876
sI41
F2.249918682285815
sI76
F0.0
sI16
F1.8958339753446032
sI49
g879
sI53
F0.6681290748065465
sI54
F1.5299792845047613
sI87
F0.15252416851673511
sI59
g882
sI60
g885
sssI39
(dp974
I0
(dp975
I48
F3.200674615019729
sI8
F2.2980277635943
sI52
F0.0
sI88
g836
sI57
F0.6247410431152085
sI27
F0.11802009509325286
sI60
F0.0
ssI1
(dp976
I32
F2.057549574731914
sI16
g840
sI34
F1.1862874296574617
sI71
g843
sI88
g846
sI79
F0.9062439627068599
ssI2
(dp977
I98
F3.074915298420609
sI4
g850
sI54
g853
sI6
g856
sI13
g859
sI21
F3.480965031016348
sI86
F2.096540124492726
sI100
F0.42806307201613397
sI26
g862
ssI3
(dp978
I64
g941
sI1
F1.5945152189244869
sI99
F0.6591279550368156
sI4
F0.0
sI51
F1.1149535759852325
sI72
g944
sI77
F3.5991675284991205
sI46
F0.504284962661031
sI50
F0.6407428708976555
sI83
F1.6119791057607118
sI23
F4.519972150093613
sI56
g947
sI60
F2.33522958056428
sI61
F1.6533099371620474
sI94
F0.5493592833408149
ssI4
(dp979
I69
g962
sI41
F3.527673858084459
sI76
F0.31825466514750583
sI16
F1.050122877962786
sI53
F0.37369078696043073
sI54
F2.581732079731453
sI87
F1.5918443768790012
sI59
g965
sI60
g968
ssI5
(dp980
I26
F1.4078374064924073
sI13
g889
sI6
g892
sI21
F0.11191084806758311
ssI6
(dp981
I67
g896
sI66
g899
sI35
F2.172190287070542
sI37
F0.8958658907385182
ssI7
(dp982
I11
g903
sI13
F0.0
sI78
F0.8355371776415721
sI80
g906
sI82
F0.0
sI23
g909
sI24
g912
sI58
F0.4175638855399111
sI30
F0.0
ssI8
(dp983
I69
g876
sI41
F2.249918682285815
sI76
F0.0
sI16
F1.8958339753446032
sI49
g879
sI53
F0.6681290748065465
sI54
F1.5299792845047613
sI87
F0.15252416851673511
sI59
g882
sI60
g885
ssI9
(dp984
I69
g876
sI41
F2.249918682285815
sI76
F0.0
sI16
F1.8958339753446032
sI49
g879
sI53
F0.6681290748065465
sI54
F1.5299792845047613
sI87
F0.15252416851673511
sI59
g882
sI60
g885
ssI10
(dp985
I67
g896
sI66
g899
sI35
F2.172190287070542
sI37
F0.8958658907385182
sssI40
(dp986
I0
(dp987
I48
F3.200674615019729
sI8
F2.2980277635943
sI52
F0.0
sI88
g836
sI57
F0.6247410431152085
sI27
F0.11802009509325286
sI60
F0.0
ssI1
(dp988
I32
F2.057549574731914
sI16
g840
sI34
F1.1862874296574617
sI71
g843
sI88
g846
sI79
F0.9062439627068599
ssI2
(dp989
I98
F3.074915298420609
sI4
g850
sI54
g853
sI6
g856
sI13
g859
sI21
F3.480965031016348
sI86
F2.096540124492726
sI100
F0.42806307201613397
sI26
g862
ssI3
(dp990
I64
g941
sI1
F1.5945152189244869
sI99
F0.6591279550368156
sI4
F0.0
sI51
F1.1149535759852325
sI72
g944
sI77
F3.5991675284991205
sI46
F0.504284962661031
sI50
F0.6407428708976555
sI83
F1.6119791057607118
sI23
F4.519972150093613
sI56
g947
sI60
F2.33522958056428
sI61
F1.6533099371620474
sI94
F0.5493592833408149
ssI4
(dp991
I69
g962
sI41
F3.527673858084459
sI76
F0.31825466514750583
sI16
F1.050122877962786
sI53
F0.37369078696043073
sI54
F2.581732079731453
sI87
F1.5918443768790012
sI59
g965
sI60
g968
ssI5
(dp992
I26
F1.4078374064924073
sI13
g889
sI6
g892
sI21
F0.11191084806758311
ssI6
(dp993
I67
g896
sI66
g899
sI35
F2.172190287070542
sI37
F0.8958658907385182
ssI7
(dp994
I11
g3
(g7
S'b\xd7\xed\xe4\x93\x01\x0c@'
p995
tp996
Rp997
sI13
F0.0
sI78
F1.887443489153039
sI80
g3
(g7
S'\xbepq\xc8\xe5\xe2\xf3?'
p998
tp999
Rp1000
sI82
F0.0
sI23
g3
(g7
S'\xc2\x10\xe0\xd7i@\xd2?'
p1001
tp1002
Rp1003
sI24
F0.0
sI58
F1.0253119372866522
sI30
F1.358801962776414
ssI8
(dp1004
I69
g876
sI41
F2.249918682285815
sI76
F0.0
sI16
F1.8958339753446032
sI49
g879
sI53
F0.6681290748065465
sI54
F1.5299792845047613
sI87
F0.15252416851673511
sI59
g882
sI60
g885
ssI9
(dp1005
I69
g876
sI41
F2.249918682285815
sI76
F0.0
sI16
F1.8958339753446032
sI49
g879
sI53
F0.6681290748065465
sI54
F1.5299792845047613
sI87
F0.15252416851673511
sI59
g882
sI60
g885
sssI41
(dp1006
I0
(dp1007
I48
F3.200674615019729
sI88
g836
sI52
F0.0
sI8
F2.2980277635943
sI57
F0.6247410431152085
sI27
F0.11802009509325286
sI60
F0.0
ssI1
(dp1008
I32
F2.057549574731914
sI16
g840
sI34
F1.1862874296574617
sI71
g843
sI88
g846
sI79
F0.9062439627068599
ssI2
(dp1009
I98
F3.074915298420609
sI4
g850
sI86
F2.096540124492726
sI6
g856
sI13
g859
sI21
F3.480965031016348
sI54
g853
sI100
F0.42806307201613397
sI26
g862
ssI3
(dp1010
I64
g941
sI1
F1.5945152189244869
sI83
F1.6119791057607118
sI99
F0.6591279550368156
sI4
F0.0
sI72
g944
sI77
F3.5991675284991205
sI46
F0.504284962661031
sI50
F0.6407428708976555
sI51
F1.1149535759852325
sI23
F4.519972150093613
sI56
g947
sI60
F2.33522958056428
sI61
F1.6533099371620474
sI94
F0.5493592833408149
ssI4
(dp1011
I69
g962
sI41
F3.527673858084459
sI76
F0.31825466514750583
sI16
F1.050122877962786
sI53
F0.37369078696043073
sI54
F2.581732079731453
sI87
F1.5918443768790012
sI59
g965
sI60
g968
ssI5
(dp1012
I26
F1.4078374064924073
sI13
g889
sI6
g892
sI21
F0.11191084806758311
ssI6
(dp1013
I35
F2.172190287070542
sI66
g899
sI67
g896
sI37
F0.8958658907385182
ssI7
(dp1014
I11
g903
sI13
F0.0
sI78
F0.8355371776415721
sI80
g906
sI82
F0.0
sI23
g909
sI24
g912
sI58
F0.4175638855399111
sI30
F0.0
ssI8
(dp1015
I69
g876
sI41
F2.249918682285815
sI76
F0.0
sI16
F1.8958339753446032
sI49
g879
sI53
F0.6681290748065465
sI54
F1.5299792845047613
sI87
F0.15252416851673511
sI59
g882
sI60
g885
ssI9
(dp1016
I69
g876
sI41
F2.249918682285815
sI76
F0.0
sI16
F1.8958339753446032
sI49
g879
sI53
F0.6681290748065465
sI54
F1.5299792845047613
sI87
F0.15252416851673511
sI59
g882
sI60
g885
ssI10
(dp1017
I35
F2.172190287070542
sI66
g899
sI67
g896
sI37
F0.8958658907385182
ssI11
(dp1018
I11
g903
sI13
F0.0
sI78
F0.8355371776415721
sI80
g906
sI82
F0.0
sI23
g909
sI24
g912
sI58
F0.4175638855399111
sI30
F0.0
sssI42
(dp1019
I0
(dp1020
I48
F3.200674615019729
sI8
F2.2980277635943
sI52
F0.0
sI88
g836
sI57
F0.6247410431152085
sI27
F0.11802009509325286
sI60
F0.0
ssI1
(dp1021
I32
F2.057549574731914
sI16
g840
sI34
F1.1862874296574617
sI71
g843
sI88
g846
sI79
F0.9062439627068599
ssI2
(dp1022
I98
F3.074915298420609
sI4
g850
sI54
g853
sI6
g856
sI13
g859
sI21
F3.480965031016348
sI86
F2.096540124492726
sI100
F0.42806307201613397
sI26
g862
ssI3
(dp1023
I64
g941
sI1
F1.5945152189244869
sI99
F0.6591279550368156
sI4
F0.0
sI51
F1.1149535759852325
sI72
g944
sI77
F3.5991675284991205
sI46
F0.504284962661031
sI50
F0.6407428708976555
sI83
F1.6119791057607118
sI23
F4.519972150093613
sI56
g947
sI60
F2.33522958056428
sI61
F1.6533099371620474
sI94
F0.5493592833408149
ssI4
(dp1024
I69
g962
sI41
F3.527673858084459
sI76
F0.31825466514750583
sI16
F1.050122877962786
sI53
F0.37369078696043073
sI54
F2.581732079731453
sI87
F1.5918443768790012
sI59
g965
sI60
g968
ssI5
(dp1025
I26
F1.4078374064924073
sI13
g889
sI6
g892
sI21
F0.11191084806758311
ssI6
(dp1026
I67
g896
sI66
g899
sI35
F2.172190287070542
sI37
F0.8958658907385182
ssI7
(dp1027
I11
g903
sI13
F0.0
sI78
F0.8355371776415721
sI80
g906
sI82
F0.0
sI23
g909
sI24
g912
sI58
F0.4175638855399111
sI30
F0.0
ssI8
(dp1028
I69
g876
sI41
F2.249918682285815
sI76
F0.0
sI16
F1.8958339753446032
sI49
g879
sI53
F0.6681290748065465
sI54
F1.5299792845047613
sI87
F0.15252416851673511
sI59
g882
sI60
g885
ssI9
(dp1029
I69
g3
(g7
S'\xc0+\x7fA\x91\xdb\x03@'
p1030
tp1031
Rp1032
sI41
F2.594465605786764
sI43
F0.9943162008116743
sI76
F0.8740691544642599
sI16
F0.14216670312018542
sI49
g3
(g7
S'\xa5\xcbRj\x05)\xf1?'
p1033
tp1034
Rp1035
sI53
F0.7022655248842194
sI54
F0.29901067669345105
sI87
F0.0
sI59
g3
(g7
S'x\x1e\xee\x02\x8e\xbb\n@'
p1036
tp1037
Rp1038
sI60
g3
(g7
S'\x14n\x8f\x0b\n\x1d\x02@'
p1039
tp1040
Rp1041
ssI10
(dp1042
I67
g896
sI66
g899
sI35
F2.172190287070542
sI37
F0.8958658907385182
sssI43
(dp1043
I0
(dp1044
I8
F3.0757540275101327
sI48
F4.511300190765874
sI52
F0.0
sI57
F1.3509211270329624
sI88
g3
(g7
S'x\x1f|\xd8\xec\xb1\x12@'
p1045
tp1046
Rp1047
sI89
F0.8148675397187043
sI27
F0.0
sI60
F0.0
ssI1
(dp1048
I32
F1.609637491856082
sI16
g3
(g7
S'\x1c\xcb\x803d0\xfb?'
p1049
tp1050
Rp1051
sI34
F1.131883473930656
sI71
g3
(g7
S'\xbf\x83N\xa0\x91\x18\x02@'
p1052
tp1053
Rp1054
sI88
g3
(g7
S'\x8b\x9c\xfb\xca\xd4\xa7\xfb?'
p1055
tp1056
Rp1057
sI79
F0.9927466677959359
ssI2
(dp1058
I98
F1.0526390476765308
sI3
F0.9043061102303057
sI4
g3
(g7
S'\xd1q\x98\x15\xbf\xd4\x03@'
p1059
tp1060
Rp1061
sI86
F2.482732480841545
sI6
g3
(g7
S':\x0c\x9a\x9c\xff\xa1\r@'
p1062
tp1063
Rp1064
sI13
g3
(g7
S'\xc5\xcd\xb9\xaaGS\xfe?'
p1065
tp1066
Rp1067
sI21
F3.608766487425311
sI54
g3
(g7
S'HTg\xfc\xbb\xe8\x07@'
p1068
tp1069
Rp1070
sI100
F0.0
sI26
g3
(g7
S'T\xb7k\x97J@\xe9?'
p1071
tp1072
Rp1073
ssI3
(dp1074
I64
g3
(g7
S'@Qo3s\xcb\xbd?'
p1075
tp1076
Rp1077
sI1
F0.0
sI83
F2.1977718608051515
sI99
F0.5745663769989726
sI4
F0.0
sI72
g3
(g7
S'\xec\xcf\x8d\xfe\x17\x01\x07@'
p1078
tp1079
Rp1080
sI77
F1.6653612455004638
sI46
F2.8344543469328016
sI50
F2.4491587507450467
sI51
F2.2249749681001925
sI23
F3.843317852254052
sI56
g3
(g7
S'\xaf\xb6\xc6\xabi\xbf!@'
p1081
tp1082
Rp1083
sI60
F2.962915294852939
sI61
F0.0
sI94
F0.6277236364587427
ssI4
(dp1084
I69
g3
(g7
S'\xd4L\x81\x12]\xdc\xde?'
p1085
tp1086
Rp1087
sI41
F2.394000744845984
sI76
F1.5423902104069085
sI78
F0.0414305953491001
sI16
F1.9354094425579262
sI49
F0.0
sI53
F0.0
sI54
F1.80639938300696
sI87
F2.094316869050239
sI59
g3
(g7
S'2\xf6\xc8\xb9\x98`\xfb?'
p1088
tp1089
Rp1090
sI60
g3
(g7
S'\x82\x0ckh\xce\xb4\x07@'
p1091
tp1092
Rp1093
ssI5
(dp1094
I26
F0.0728940490554868
sI13
g3
(g7
S"\xf2'\x85]\x95\xda\x15@"
p1095
tp1096
Rp1097
sI6
g3
(g7
S'\xcaI\x02\x94\x18\xe2\xe9?'
p1098
tp1099
Rp1100
sI21
F0.0
ssI6
(dp1101
I35
F1.5333542158522997
sI66
F0.0
sI67
g3
(g7
S'\xeeR5u|\xba\x00@'
p1102
tp1103
Rp1104
sI37
F0.3508822390909009
sI45
F0.6903117426687757
ssI7
(dp1105
I97
F0.7420565660994474
sI11
g3
(g7
S'\xd0\x9d~\xb83\x8c\x06@'
p1106
tp1107
Rp1108
sI13
F0.0
sI78
F1.563784798588792
sI80
g3
(g7
S'\x11q\xdc\xd9\xa9\xa0\xf6?'
p1109
tp1110
Rp1111
sI82
F0.0
sI23
g3
(g7
S'\xb1\xcf\xf7Kw"\xf0?'
p1112
tp1113
Rp1114
sI24
g3
(g7
S'\xc5\xc0\xf6\x91{l\x11@'
p1115
tp1116
Rp1117
sI58
F0.0
sI30
F0.0
ssI8
(dp1118
I69
g3
(g7
S'|\xc7Y\x8f\x0b~\xdb?'
p1119
tp1120
Rp1121
sI41
F2.6210954015629406
sI76
F0.0
sI45
F0.4059084322765464
sI16
F3.4009937750074406
sI49
g3
(g7
S'h\xdc,\x8c\xa4A\xc3?'
p1122
tp1123
Rp1124
sI53
F1.728204715135169
sI54
F3.551447438077388
sI87
F0.0
sI59
g3
(g7
S"\xe9\x84'\xd2Al\xfa?"
p1125
tp1126
Rp1127
sI60
g3
(g7
S"\x9d\x02\xe3\x14'\xaf\xfb?"
p1128
tp1129
Rp1130
ssI9
(dp1131
I100
F0.17965349314652623
sI69
g3
(g7
S'\xdc\x02\x9c\xd8\x9f\x87\xf7?'
p1132
tp1133
Rp1134
sI41
F1.0109822810451015
sI76
F0.5084872401405756
sI16
F2.446883785570141
sI49
g3
(g7
S'bLy\xa4\n}\xf2?'
p1135
tp1136
Rp1137
sI53
F0.0634012720156879
sI54
F2.431548693177164
sI87
F0.0
sI59
g3
(g7
S'\xb8\xe8\xa9U,\xf3\x06@'
p1138
tp1139
Rp1140
sI60
g3
(g7
S'\xff\xa5\xa1\xbe\xc1\x91\x03@'
p1141
tp1142
Rp1143
sssI44
(dp1144
I0
(dp1145
I48
F3.200674615019729
sI8
F2.2980277635943
sI52
F0.0
sI88
g836
sI57
F0.6247410431152085
sI27
F0.11802009509325286
sI60
F0.0
ssI1
(dp1146
I32
F2.057549574731914
sI16
g840
sI34
F1.1862874296574617
sI71
g843
sI88
g846
sI79
F0.9062439627068599
ssI2
(dp1147
I98
F3.074915298420609
sI4
g850
sI54
g853
sI6
g856
sI13
g859
sI21
F3.480965031016348
sI86
F2.096540124492726
sI100
F0.42806307201613397
sI26
g862
ssI3
(dp1148
I64
g941
sI1
F1.5945152189244869
sI99
F0.6591279550368156
sI4
F0.0
sI51
F1.1149535759852325
sI72
g944
sI77
F3.5991675284991205
sI46
F0.504284962661031
sI50
F0.6407428708976555
sI83
F1.6119791057607118
sI23
F4.519972150093613
sI56
g947
sI60
F2.33522958056428
sI61
F1.6533099371620474
sI94
F0.5493592833408149
ssI4
(dp1149
I69
g3
(g7
S']QE;\x1e\x7f\x00@'
p1150
tp1151
Rp1152
sI41
F3.347350073050004
sI76
F0.8852362150712461
sI16
F0.385931845106941
sI20
F0.7129328890848373
sI53
F0.9546415873255127
sI54
F3.861416626633895
sI87
F1.047023147458412
sI59
g3
(g7
S'\xc6\xef9aI\x8d\xff?'
p1153
tp1154
Rp1155
sI60
g3
(g7
S'[\xf5\xa3\x18JX\x04@'
p1156
tp1157
Rp1158
ssI5
(dp1159
I26
F1.4078374064924073
sI13
g889
sI6
g892
sI21
F0.11191084806758311
ssI6
(dp1160
I67
g896
sI66
g899
sI35
F2.172190287070542
sI37
F0.8958658907385182
ssI7
(dp1161
I11
g903
sI13
F0.0
sI78
F0.8355371776415721
sI80
g906
sI82
F0.0
sI23
g909
sI24
g912
sI58
F0.4175638855399111
sI30
F0.0
ssI8
(dp1162
I69
g876
sI41
F2.249918682285815
sI76
F0.0
sI16
F1.8958339753446032
sI49
g879
sI53
F0.6681290748065465
sI54
F1.5299792845047613
sI87
F0.15252416851673511
sI59
g882
sI60
g885
ssI9
(dp1163
I69
g1032
sI41
F2.594465605786764
sI43
F0.9943162008116743
sI76
F0.8740691544642599
sI16
F0.14216670312018542
sI49
g1035
sI53
F0.7022655248842194
sI54
F0.29901067669345105
sI87
F0.0
sI59
g1038
sI60
g1041
ssI10
(dp1164
I67
g896
sI66
g899
sI35
F2.172190287070542
sI37
F0.8958658907385182
sssI45
(dp1165
I0
(dp1166
I48
F3.200674615019729
sI88
g836
sI52
F0.0
sI8
F2.2980277635943
sI57
F0.6247410431152085
sI27
F0.11802009509325286
sI60
F0.0
ssI1
(dp1167
I32
F2.057549574731914
sI16
g840
sI34
F1.1862874296574617
sI71
g843
sI88
g846
sI79
F0.9062439627068599
ssI2
(dp1168
I98
F3.074915298420609
sI4
g850
sI86
F2.096540124492726
sI6
g856
sI13
g859
sI21
F3.480965031016348
sI54
g853
sI100
F0.42806307201613397
sI26
g862
ssI3
(dp1169
I64
g941
sI1
F1.5945152189244869
sI83
F1.6119791057607118
sI99
F0.6591279550368156
sI4
F0.0
sI72
g944
sI77
F3.5991675284991205
sI46
F0.504284962661031
sI50
F0.6407428708976555
sI51
F1.1149535759852325
sI23
F4.519972150093613
sI56
g947
sI60
F2.33522958056428
sI61
F1.6533099371620474
sI94
F0.5493592833408149
ssI4
(dp1170
I69
g1152
sI41
F3.347350073050004
sI76
F0.8852362150712461
sI16
F0.385931845106941
sI20
F0.7129328890848373
sI53
F0.9546415873255127
sI54
F3.861416626633895
sI87
F1.047023147458412
sI59
g1155
sI60
g1158
ssI5
(dp1171
I26
F1.4078374064924073
sI13
g889
sI6
g892
sI21
F0.11191084806758311
ssI6
(dp1172
I35
F2.172190287070542
sI66
g899
sI67
g896
sI37
F0.8958658907385182
ssI7
(dp1173
I11
g903
sI13
F0.0
sI78
F0.8355371776415721
sI80
g906
sI82
F0.0
sI23
g909
sI24
g912
sI58
F0.4175638855399111
sI30
F0.0
ssI8
(dp1174
I69
g876
sI41
F2.249918682285815
sI76
F0.0
sI16
F1.8958339753446032
sI49
g879
sI53
F0.6681290748065465
sI54
F1.5299792845047613
sI87
F0.15252416851673511
sI59
g882
sI60
g885
ssI9
(dp1175
I69
g1032
sI41
F2.594465605786764
sI43
F0.9943162008116743
sI76
F0.8740691544642599
sI16
F0.14216670312018542
sI49
g1035
sI53
F0.7022655248842194
sI54
F0.29901067669345105
sI87
F0.0
sI59
g1038
sI60
g1041
ssI10
(dp1176
I35
F2.172190287070542
sI66
g899
sI67
g896
sI37
F0.8958658907385182
ssI11
(dp1177
I33
g3
(g7
S'Y>\x11\xff\x89\xfd\xea?'
p1178
tp1179
Rp1180
sI7
g3
(g7
S"\x9f\x93\xd3\xca\xcb'\xea?"
p1181
tp1182
Rp1183
sI46
g3
(g7
S'0-\xd2m\xcdu\xc8?'
p1184
tp1185
Rp1186
sI49
g3
(g7
S'H\xb1\xc0\x80\x15\xff\xbc?'
p1187
tp1188
Rp1189
sI84
g3
(g7
S'\xc8\x8f\xb4\x80\x00\xbd\xd5?'
p1190
tp1191
Rp1192
sI63
g3
(g7
S'0\xc2=~^l\xbc?'
p1193
tp1194
Rp1195
sssI46
(dp1196
I0
(dp1197
I48
F3.200674615019729
sI8
F2.2980277635943
sI52
F0.0
sI88
g836
sI57
F0.6247410431152085
sI27
F0.11802009509325286
sI60
F0.0
ssI1
(dp1198
I32
F2.057549574731914
sI16
g840
sI34
F1.1862874296574617
sI71
g843
sI88
g846
sI79
F0.9062439627068599
ssI2
(dp1199
I98
F3.074915298420609
sI4
g850
sI54
g853
sI6
g856
sI13
g859
sI21
F3.480965031016348
sI86
F2.096540124492726
sI100
F0.42806307201613397
sI26
g862
ssI3
(dp1200
I64
g941
sI1
F1.5945152189244869
sI99
F0.6591279550368156
sI4
F0.0
sI51
F1.1149535759852325
sI72
g944
sI77
F3.5991675284991205
sI46
F0.504284962661031
sI50
F0.6407428708976555
sI83
F1.6119791057607118
sI23
F4.519972150093613
sI56
g947
sI60
F2.33522958056428
sI61
F1.6533099371620474
sI94
F0.5493592833408149
ssI4
(dp1201
I69
g1152
sI41
F3.347350073050004
sI76
F0.8852362150712461
sI16
F0.385931845106941
sI20
F0.7129328890848373
sI53
F0.9546415873255127
sI54
F3.861416626633895
sI87
F1.047023147458412
sI59
g1155
sI60
g1158
ssI5
(dp1202
I26
F1.4078374064924073
sI13
g889
sI6
g892
sI21
F0.11191084806758311
ssI6
(dp1203
I67
g896
sI66
g899
sI35
F2.172190287070542
sI37
F0.8958658907385182
ssI7
(dp1204
I11
g903
sI13
F0.0
sI78
F0.8355371776415721
sI80
g906
sI82
F0.0
sI23
g909
sI24
g912
sI58
F0.4175638855399111
sI30
F0.0
ssI8
(dp1205
I69
g876
sI41
F2.249918682285815
sI76
F0.0
sI16
F1.8958339753446032
sI49
g879
sI53
F0.6681290748065465
sI54
F1.5299792845047613
sI87
F0.15252416851673511
sI59
g882
sI60
g885
ssI9
(dp1206
I69
g1032
sI41
F2.594465605786764
sI43
F0.9943162008116743
sI76
F0.8740691544642599
sI16
F0.14216670312018542
sI49
g1035
sI53
F0.7022655248842194
sI54
F0.29901067669345105
sI87
F0.0
sI59
g1038
sI60
g1041
ssI10
(dp1207
I67
g896
sI66
g899
sI35
F2.172190287070542
sI37
F0.8958658907385182
ssI11
(dp1208
I33
g1180
sI84
g1192
sI49
g1189
sI7
g1183
sI46
g1186
sI63
g1195
ssI12
(dp1209
I32
F2.057549574731914
sI16
g840
sI34
F1.1862874296574617
sI71
g843
sI88
g846
sI79
F0.9062439627068599
sssI47
(dp1210
I0
(dp1211
I48
F3.200674615019729
sI8
F2.2980277635943
sI52
F0.0
sI88
g836
sI57
F0.6247410431152085
sI27
F0.11802009509325286
sI60
F0.0
ssI1
(dp1212
I32
F2.057549574731914
sI16
g840
sI34
F1.1862874296574617
sI71
g843
sI88
g846
sI79
F0.9062439627068599
ssI2
(dp1213
I98
F3.074915298420609
sI4
g850
sI54
g853
sI6
g856
sI13
g859
sI21
F3.480965031016348
sI86
F2.096540124492726
sI100
F0.42806307201613397
sI26
g862
ssI3
(dp1214
I64
g941
sI1
F1.5945152189244869
sI99
F0.6591279550368156
sI4
F0.0
sI51
F1.1149535759852325
sI72
g944
sI77
F3.5991675284991205
sI46
F0.504284962661031
sI50
F0.6407428708976555
sI83
F1.6119791057607118
sI23
F4.519972150093613
sI56
g947
sI60
F2.33522958056428
sI61
F1.6533099371620474
sI94
F0.5493592833408149
ssI4
(dp1215
I69
g1152
sI41
F3.347350073050004
sI76
F0.8852362150712461
sI16
F0.385931845106941
sI20
F0.7129328890848373
sI53
F0.9546415873255127
sI54
F3.861416626633895
sI87
F1.047023147458412
sI59
g1155
sI60
g1158
ssI5
(dp1216
I26
F1.4078374064924073
sI13
g889
sI6
g892
sI21
F0.11191084806758311
ssI6
(dp1217
I67
g896
sI66
g899
sI35
F2.172190287070542
sI37
F0.8958658907385182
ssI7
(dp1218
I11
g3
(g7
S'\xd6\xcef\xc9vA\x05@'
p1219
tp1220
Rp1221
sI13
F0.0
sI78
F0.45930400463218657
sI80
g3
(g7
S'\xcc*\xb9\xb9\x8f \x0f@'
p1222
tp1223
Rp1224
sI82
F0.12311389920144858
sI23
g3
(g7
S'\xd9e\xf4e\x08\xad\xe1?'
p1225
tp1226
Rp1227
sI24
g3
(g7
S'<\xc1\xdf%M\xfc\r@'
p1228
tp1229
Rp1230
sI58
F0.0
sI29
F0.939397253464875
sI30
F0.12283864451413164
ssI8
(dp1231
I69
g876
sI41
F2.249918682285815
sI76
F0.0
sI16
F1.8958339753446032
sI49
g879
sI53
F0.6681290748065465
sI54
F1.5299792845047613
sI87
F0.15252416851673511
sI59
g882
sI60
g885
ssI9
(dp1232
I69
g1032
sI41
F2.594465605786764
sI43
F0.9943162008116743
sI76
F0.8740691544642599
sI16
F0.14216670312018542
sI49
g1035
sI53
F0.7022655248842194
sI54
F0.29901067669345105
sI87
F0.0
sI59
g1038
sI60
g1041
ssI10
(dp1233
I67
g896
sI66
g899
sI35
F2.172190287070542
sI37
F0.8958658907385182
sssI48
(dp1234
I0
(dp1235
I48
F3.200674615019729
sI8
F2.2980277635943
sI52
F0.0
sI88
g836
sI57
F0.6247410431152085
sI27
F0.11802009509325286
sI60
F0.0
ssI1
(dp1236
I32
F2.057549574731914
sI16
g840
sI34
F1.1862874296574617
sI71
g843
sI88
g846
sI79
F0.9062439627068599
ssI2
(dp1237
I98
F3.074915298420609
sI4
g850
sI54
g853
sI6
g856
sI13
g859
sI21
F3.480965031016348
sI86
F2.096540124492726
sI100
F0.42806307201613397
sI26
g862
ssI3
(dp1238
I64
g941
sI1
F1.5945152189244869
sI99
F0.6591279550368156
sI4
F0.0
sI51
F1.1149535759852325
sI72
g944
sI77
F3.5991675284991205
sI46
F0.504284962661031
sI50
F0.6407428708976555
sI83
F1.6119791057607118
sI23
F4.519972150093613
sI56
g947
sI60
F2.33522958056428
sI61
F1.6533099371620474
sI94
F0.5493592833408149
ssI4
(dp1239
I69
g1152
sI41
F3.347350073050004
sI76
F0.8852362150712461
sI16
F0.385931845106941
sI20
F0.7129328890848373
sI53
F0.9546415873255127
sI54
F3.861416626633895
sI87
F1.047023147458412
sI59
g1155
sI60
g1158
ssI5
(dp1240
I26
F1.4078374064924073
sI13
g889
sI6
g892
sI21
F0.11191084806758311
ssI6
(dp1241
I67
g896
sI66
g899
sI35
F2.172190287070542
sI37
F0.8958658907385182
ssI7
(dp1242
I11
g903
sI13
F0.0
sI78
F0.8355371776415721
sI80
g906
sI82
F0.0
sI23
g909
sI24
g912
sI58
F0.4175638855399111
sI30
F0.0
ssI8
(dp1243
I69
g876
sI41
F2.249918682285815
sI76
F0.0
sI16
F1.8958339753446032
sI49
g879
sI53
F0.6681290748065465
sI54
F1.5299792845047613
sI87
F0.15252416851673511
sI59
g882
sI60
g885
ssI9
(dp1244
I69
g1032
sI41
F2.594465605786764
sI43
F0.9943162008116743
sI76
F0.8740691544642599
sI16
F0.14216670312018542
sI49
g1035
sI53
F0.7022655248842194
sI54
F0.29901067669345105
sI87
F0.0
sI59
g1038
sI60
g1041
ssI10
(dp1245
I67
g896
sI66
g899
sI35
F2.172190287070542
sI37
F0.8958658907385182
ssI11
(dp1246
I33
g1180
sI84
g1192
sI49
g1189
sI7
g1183
sI46
g1186
sI63
g1195
ssI12
(dp1247
I97
g3
(g7
S'\xf8\xb6\x1f\xef\x08-\xd8?'
p1248
tp1249
Rp1250
sI35
g3
(g7
S'\x98\xbfjW\xa2\n\xee?'
p1251
tp1252
Rp1253
sI40
g3
(g7
S"\xd0\xc1\xc0\xb3M'\xc1?"
p1254
tp1255
Rp1256
sI46
g3
(g7
S'\xc0\x94m\xb6\xac\xa3\xba?'
p1257
tp1258
Rp1259
sI16
g3
(g7
S'\x90,\x87E\xd0\x83\xe7?'
p1260
tp1261
Rp1262
sI20
g3
(g7
S'\x00\x01\x85\x98xk\xb6?'
p1263
tp1264
Rp1265
sI87
g3
(g7
S'\xc0\xe3\x84\xb6`\xe5\x86?'
p1266
tp1267
Rp1268
sI91
g3
(g7
S'\x10\xde\x8d\xc5\x90V\xb8?'
p1269
tp1270
Rp1271
sI60
g3
(g7
S'F\xb0\xed\x16\x0b\r\xeb?'
p1272
tp1273
Rp1274
sssI49
(dp1275
I0
(dp1276
I48
F3.200674615019729
sI88
g836
sI52
F0.0
sI8
F2.2980277635943
sI57
F0.6247410431152085
sI27
F0.11802009509325286
sI60
F0.0
ssI1
(dp1277
I32
F2.057549574731914
sI16
g840
sI34
F1.1862874296574617
sI71
g843
sI88
g846
sI79
F0.9062439627068599
ssI2
(dp1278
I98
F3.074915298420609
sI4
g850
sI86
F2.096540124492726
sI6
g856
sI13
g859
sI21
F3.480965031016348
sI54
g853
sI100
F0.42806307201613397
sI26
g862
ssI3
(dp1279
I64
g941
sI1
F1.5945152189244869
sI83
F1.6119791057607118
sI99
F0.6591279550368156
sI4
F0.0
sI72
g944
sI77
F3.5991675284991205
sI46
F0.504284962661031
sI50
F0.6407428708976555
sI51
F1.1149535759852325
sI23
F4.519972150093613
sI56
g947
sI60
F2.33522958056428
sI61
F1.6533099371620474
sI94
F0.5493592833408149
ssI4
(dp1280
I69
g1152
sI41
F3.347350073050004
sI76
F0.8852362150712461
sI16
F0.385931845106941
sI20
F0.7129328890848373
sI53
F0.9546415873255127
sI54
F3.861416626633895
sI87
F1.047023147458412
sI59
g1155
sI60
g1158
ssI5
(dp1281
I26
F1.4078374064924073
sI13
g889
sI6
g892
sI21
F0.11191084806758311
ssI6
(dp1282
I35
F2.172190287070542
sI66
g899
sI67
g896
sI37
F0.8958658907385182
ssI7
(dp1283
I11
g3
(g7
S'\x8cW\xf8\xc10\x80\xfc?'
p1284
tp1285
Rp1286
sI13
F0.2763139395964836
sI78
F1.3016303423971474
sI80
g3
(g7
S'\xe3A\xe6\xf2D\x9d\x00@'
p1287
tp1288
Rp1289
sI82
F1.155817421198493
sI23
F0.0
sI24
g3
(g7
S'\xd2N\xd1\x9e)\xfe\x07@'
p1290
tp1291
Rp1292
sI58
F0.0
sI30
F0.6508994316475163
ssI8
(dp1293
I69
g876
sI41
F2.249918682285815
sI76
F0.0
sI16
F1.8958339753446032
sI49
g879
sI53
F0.6681290748065465
sI54
F1.5299792845047613
sI87
F0.15252416851673511
sI59
g882
sI60
g885
ssI9
(dp1294
I69
g1032
sI41
F2.594465605786764
sI43
F0.9943162008116743
sI76
F0.8740691544642599
sI16
F0.14216670312018542
sI49
g1035
sI53
F0.7022655248842194
sI54
F0.29901067669345105
sI87
F0.0
sI59
g1038
sI60
g1041
ssI10
(dp1295
I35
F2.172190287070542
sI66
g899
sI67
g896
sI37
F0.8958658907385182
ssI11
(dp1296
I33
g1180
sI84
g1192
sI49
g1189
sI7
g1183
sI46
g1186
sI63
g1195
ssI12
(dp1297
I97
g1250
sI35
g1253
sI40
g1256
sI46
g1259
sI16
g1262
sI20
g1265
sI87
g1268
sI91
g1271
sI60
g1274
sssI50
(dp1298
I0
(dp1299
I48
F3.200674615019729
sI88
g836
sI52
F0.0
sI8
F2.2980277635943
sI57
F0.6247410431152085
sI27
F0.11802009509325286
sI60
F0.0
ssI1
(dp1300
I32
F2.057549574731914
sI16
g840
sI34
F1.1862874296574617
sI71
g843
sI88
g846
sI79
F0.9062439627068599
ssI2
(dp1301
I98
F3.074915298420609
sI4
g850
sI86
F2.096540124492726
sI6
g856
sI13
g859
sI21
F3.480965031016348
sI54
g853
sI100
F0.42806307201613397
sI26
g862
ssI3
(dp1302
I64
g941
sI1
F1.5945152189244869
sI83
F1.6119791057607118
sI99
F0.6591279550368156
sI4
F0.0
sI72
g944
sI77
F3.5991675284991205
sI46
F0.504284962661031
sI50
F0.6407428708976555
sI51
F1.1149535759852325
sI23
F4.519972150093613
sI56
g947
sI60
F2.33522958056428
sI61
F1.6533099371620474
sI94
F0.5493592833408149
ssI4
(dp1303
I69
g1152
sI41
F3.347350073050004
sI76
F0.8852362150712461
sI16
F0.385931845106941
sI20
F0.7129328890848373
sI53
F0.9546415873255127
sI54
F3.861416626633895
sI87
F1.047023147458412
sI59
g1155
sI60
g1158
ssI5
(dp1304
I26
F1.4078374064924073
sI13
g889
sI6
g892
sI21
F0.11191084806758311
ssI6
(dp1305
I35
F2.172190287070542
sI66
g899
sI67
g896
sI37
F0.8958658907385182
ssI7
(dp1306
I11
g903
sI13
F0.0
sI78
F0.8355371776415721
sI80
g906
sI82
F0.0
sI23
g909
sI24
g912
sI58
F0.4175638855399111
sI30
F0.0
ssI8
(dp1307
I69
g876
sI41
F2.249918682285815
sI76
F0.0
sI16
F1.8958339753446032
sI49
g879
sI53
F0.6681290748065465
sI54
F1.5299792845047613
sI87
F0.15252416851673511
sI59
g882
sI60
g885
ssI9
(dp1308
I69
g1032
sI41
F2.594465605786764
sI43
F0.9943162008116743
sI76
F0.8740691544642599
sI16
F0.14216670312018542
sI49
g1035
sI53
F0.7022655248842194
sI54
F0.29901067669345105
sI87
F0.0
sI59
g1038
sI60
g1041
ssI10
(dp1309
I35
F2.172190287070542
sI66
g899
sI67
g896
sI37
F0.8958658907385182
ssI11
(dp1310
I33
g1180
sI84
g1192
sI49
g1189
sI7
g1183
sI46
g1186
sI63
g1195
ssI12
(dp1311
I97
g1250
sI35
g1253
sI40
g1256
sI46
g1259
sI16
g1262
sI20
g1265
sI87
g1268
sI91
g1271
sI60
g1274
ssI13
(dp1312
I69
g1152
sI41
F3.347350073050004
sI76
F0.8852362150712461
sI16
F0.385931845106941
sI20
F0.7129328890848373
sI53
F0.9546415873255127
sI54
F3.861416626633895
sI87
F1.047023147458412
sI59
g1155
sI60
g1158
sssI51
(dp1313
I0
(dp1314
I48
F3.200674615019729
sI88
g836
sI52
F0.0
sI8
F2.2980277635943
sI57
F0.6247410431152085
sI27
F0.11802009509325286
sI60
F0.0
ssI1
(dp1315
I32
F2.057549574731914
sI16
g840
sI34
F1.1862874296574617
sI71
g843
sI88
g846
sI79
F0.9062439627068599
ssI2
(dp1316
I98
F3.074915298420609
sI4
g850
sI86
F2.096540124492726
sI6
g856
sI13
g859
sI21
F3.480965031016348
sI54
g853
sI100
F0.42806307201613397
sI26
g862
ssI3
(dp1317
I64
g941
sI1
F1.5945152189244869
sI83
F1.6119791057607118
sI99
F0.6591279550368156
sI4
F0.0
sI72
g944
sI77
F3.5991675284991205
sI46
F0.504284962661031
sI50
F0.6407428708976555
sI51
F1.1149535759852325
sI23
F4.519972150093613
sI56
g947
sI60
F2.33522958056428
sI61
F1.6533099371620474
sI94
F0.5493592833408149
ssI4
(dp1318
I69
g1152
sI41
F3.347350073050004
sI76
F0.8852362150712461
sI16
F0.385931845106941
sI20
F0.7129328890848373
sI53
F0.9546415873255127
sI54
F3.861416626633895
sI87
F1.047023147458412
sI59
g1155
sI60
g1158
ssI5
(dp1319
I26
F1.4078374064924073
sI13
g889
sI6
g892
sI21
F0.11191084806758311
ssI6
(dp1320
I35
F2.172190287070542
sI66
g899
sI67
g896
sI37
F0.8958658907385182
ssI7
(dp1321
I11
g1221
sI13
F0.0
sI78
F0.45930400463218657
sI80
g1224
sI82
F0.12311389920144858
sI23
g1227
sI24
g1230
sI58
F0.0
sI29
F0.939397253464875
sI30
F0.12283864451413164
ssI8
(dp1322
I69
g876
sI41
F2.249918682285815
sI76
F0.0
sI16
F1.8958339753446032
sI49
g879
sI53
F0.6681290748065465
sI54
F1.5299792845047613
sI87
F0.15252416851673511
sI59
g882
sI60
g885
ssI9
(dp1323
I69
g1032
sI41
F2.594465605786764
sI43
F0.9943162008116743
sI76
F0.8740691544642599
sI16
F0.14216670312018542
sI49
g1035
sI53
F0.7022655248842194
sI54
F0.29901067669345105
sI87
F0.0
sI59
g1038
sI60
g1041
ssI10
(dp1324
I35
F2.172190287070542
sI66
g899
sI67
g896
sI37
F0.8958658907385182
ssI11
(dp1325
I1
g3
(g7
S'\x16\x86\xe9\x17\n\x05\xe5?'
p1326
tp1327
Rp1328
sI45
g3
(g7
S'.IM\xd1\xbb\xe3\xdf?'
p1329
tp1330
Rp1331
sssI52
(dp1332
I0
(dp1333
I48
F3.200674615019729
sI8
F2.2980277635943
sI52
F0.0
sI88
g836
sI57
F0.6247410431152085
sI27
F0.11802009509325286
sI60
F0.0
ssI1
(dp1334
I32
F2.057549574731914
sI16
g840
sI34
F1.1862874296574617
sI71
g843
sI88
g846
sI79
F0.9062439627068599
ssI2
(dp1335
I98
F3.074915298420609
sI4
g850
sI54
g853
sI6
g856
sI13
g859
sI21
F3.480965031016348
sI86
F2.096540124492726
sI100
F0.42806307201613397
sI26
g862
ssI3
(dp1336
I64
g941
sI1
F1.5945152189244869
sI99
F0.6591279550368156
sI4
F0.0
sI51
F1.1149535759852325
sI72
g944
sI77
F3.5991675284991205
sI46
F0.504284962661031
sI50
F0.6407428708976555
sI83
F1.6119791057607118
sI23
F4.519972150093613
sI56
g947
sI60
F2.33522958056428
sI61
F1.6533099371620474
sI94
F0.5493592833408149
ssI4
(dp1337
I69
g1152
sI41
F3.347350073050004
sI76
F0.8852362150712461
sI16
F0.385931845106941
sI20
F0.7129328890848373
sI53
F0.9546415873255127
sI54
F3.861416626633895
sI87
F1.047023147458412
sI59
g1155
sI60
g1158
ssI5
(dp1338
I26
F1.4078374064924073
sI13
g889
sI6
g892
sI21
F0.11191084806758311
ssI6
(dp1339
I67
g896
sI66
g899
sI35
F2.172190287070542
sI37
F0.8958658907385182
ssI7
(dp1340
I11
g1286
sI13
F0.2763139395964836
sI78
F1.3016303423971474
sI80
g1289
sI82
F1.155817421198493
sI23
F0.0
sI24
g1292
sI58
F0.0
sI30
F0.6508994316475163
ssI8
(dp1341
I69
g876
sI41
F2.249918682285815
sI76
F0.0
sI16
F1.8958339753446032
sI49
g879
sI53
F0.6681290748065465
sI54
F1.5299792845047613
sI87
F0.15252416851673511
sI59
g882
sI60
g885
ssI9
(dp1342
I69
g1032
sI41
F2.594465605786764
sI43
F0.9943162008116743
sI76
F0.8740691544642599
sI16
F0.14216670312018542
sI49
g1035
sI53
F0.7022655248842194
sI54
F0.29901067669345105
sI87
F0.0
sI59
g1038
sI60
g1041
ssI10
(dp1343
I67
g896
sI66
g899
sI35
F2.172190287070542
sI37
F0.8958658907385182
ssI11
(dp1344
I33
g1180
sI84
g1192
sI49
g1189
sI7
g1183
sI46
g1186
sI63
g1195
ssI12
(dp1345
I97
g1250
sI35
g1253
sI40
g1256
sI46
g1259
sI16
g1262
sI20
g1265
sI87
g1268
sI91
g1271
sI60
g1274
ssI13
(dp1346
I69
g1152
sI41
F3.347350073050004
sI76
F0.8852362150712461
sI16
F0.385931845106941
sI20
F0.7129328890848373
sI53
F0.9546415873255127
sI54
F3.861416626633895
sI87
F1.047023147458412
sI59
g1155
sI60
g1158
sssI53
(dp1347
I0
(dp1348
I48
F3.200674615019729
sI8
F2.2980277635943
sI52
F0.0
sI88
g836
sI57
F0.6247410431152085
sI27
F0.11802009509325286
sI60
F0.0
ssI1
(dp1349
I32
F2.057549574731914
sI16
g840
sI34
F1.1862874296574617
sI71
g843
sI88
g846
sI79
F0.9062439627068599
ssI2
(dp1350
I98
F3.074915298420609
sI4
g850
sI54
g853
sI6
g856
sI13
g859
sI21
F3.480965031016348
sI86
F2.096540124492726
sI100
F0.42806307201613397
sI26
g862
ssI3
(dp1351
I64
g941
sI1
F1.5945152189244869
sI99
F0.6591279550368156
sI4
F0.0
sI51
F1.1149535759852325
sI72
g944
sI77
F3.5991675284991205
sI46
F0.504284962661031
sI50
F0.6407428708976555
sI83
F1.6119791057607118
sI23
F4.519972150093613
sI56
g947
sI60
F2.33522958056428
sI61
F1.6533099371620474
sI94
F0.5493592833408149
ssI4
(dp1352
I69
g1152
sI41
F3.347350073050004
sI76
F0.8852362150712461
sI16
F0.385931845106941
sI20
F0.7129328890848373
sI53
F0.9546415873255127
sI54
F3.861416626633895
sI87
F1.047023147458412
sI59
g1155
sI60
g1158
ssI5
(dp1353
I26
F1.4078374064924073
sI13
g889
sI6
g892
sI21
F0.11191084806758311
ssI6
(dp1354
I67
g896
sI66
g899
sI35
F2.172190287070542
sI37
F0.8958658907385182
ssI7
(dp1355
I11
g903
sI13
F0.0
sI78
F0.8355371776415721
sI80
g906
sI82
F0.0
sI23
g909
sI24
g912
sI58
F0.4175638855399111
sI30
F0.0
ssI8
(dp1356
I69
g876
sI41
F2.249918682285815
sI76
F0.0
sI16
F1.8958339753446032
sI49
g879
sI53
F0.6681290748065465
sI54
F1.5299792845047613
sI87
F0.15252416851673511
sI59
g882
sI60
g885
ssI9
(dp1357
I69
g1032
sI41
F2.594465605786764
sI43
F0.9943162008116743
sI76
F0.8740691544642599
sI16
F0.14216670312018542
sI49
g1035
sI53
F0.7022655248842194
sI54
F0.29901067669345105
sI87
F0.0
sI59
g1038
sI60
g1041
ssI10
(dp1358
I67
g896
sI66
g899
sI35
F2.172190287070542
sI37
F0.8958658907385182
ssI11
(dp1359
I33
g1180
sI84
g1192
sI49
g1189
sI7
g1183
sI46
g1186
sI63
g1195
ssI12
(dp1360
I97
g1250
sI35
g1253
sI40
g1256
sI46
g1259
sI16
g1262
sI20
g1265
sI87
g1268
sI91
g1271
sI60
g1274
ssI13
(dp1361
I69
g1152
sI41
F3.347350073050004
sI76
F0.8852362150712461
sI16
F0.385931845106941
sI20
F0.7129328890848373
sI53
F0.9546415873255127
sI54
F3.861416626633895
sI87
F1.047023147458412
sI59
g1155
sI60
g1158
ssI14
(dp1362
I97
g3
(g7
S'\x8a=j\xe9\xc3\xc9\xe7?'
p1363
tp1364
Rp1365
sI3
g3
(g7
S'0x(<\xe4\xf0\xd7?'
p1366
tp1367
Rp1368
sI36
g3
(g7
S'v\x03\xc0\x99\x98\xc4\xe2?'
p1369
tp1370
Rp1371
sI73
g3
(g7
S'L$[\xc8[\xd1\xde?'
p1372
tp1373
Rp1374
sI42
g3
(g7
S'\xa9\xb1#H<\xcb\xe4?'
p1375
tp1376
Rp1377
sI46
g3
(g7
S'\xa7\xd1\xf9/]r\xee?'
p1378
tp1379
Rp1380
sI91
g3
(g7
S'\xeep\xb3\xa4Bn\xed?'
p1381
tp1382
Rp1383
sI51
g3
(g7
S'\\Z\xe2V"\x88\xdc?'
p1384
tp1385
Rp1386
sI59
g3
(g7
S'x\x00`\x05\xd4\x03\xb9?'
p1387
tp1388
Rp1389
sssI54
(dp1390
I0
(dp1391
I48
F3.200674615019729
sI88
g836
sI52
F0.0
sI8
F2.2980277635943
sI57
F0.6247410431152085
sI27
F0.11802009509325286
sI60
F0.0
ssI1
(dp1392
I32
F2.057549574731914
sI16
g840
sI34
F1.1862874296574617
sI71
g843
sI88
g846
sI79
F0.9062439627068599
ssI2
(dp1393
I98
F3.67838307450392
sI4
g3
(g7
S'n0\x05\x8f!\xa0\x07@'
p1394
tp1395
Rp1396
sI86
F2.361405182978381
sI6
g3
(g7
S'\x94b\xd1%\xa0\x0e\x05@'
p1397
tp1398
Rp1399
sI13
F0.0
sI21
F1.0772254993678216
sI54
g3
(g7
S'\xeb\x03Wj\xfes\x0b@'
p1400
tp1401
Rp1402
sI100
F0.15658766488107162
sI26
g3
(g7
S'U\xf9}\xcd\x9d%\x00@'
p1403
tp1404
Rp1405
ssI3
(dp1406
I64
g941
sI1
F1.5945152189244869
sI83
F1.6119791057607118
sI99
F0.6591279550368156
sI4
F0.0
sI72
g944
sI77
F3.5991675284991205
sI46
F0.504284962661031
sI50
F0.6407428708976555
sI51
F1.1149535759852325
sI23
F4.519972150093613
sI56
g947
sI60
F2.33522958056428
sI61
F1.6533099371620474
sI94
F0.5493592833408149
ssI4
(dp1407
I69
g1152
sI41
F3.347350073050004
sI76
F0.8852362150712461
sI16
F0.385931845106941
sI20
F0.7129328890848373
sI53
F0.9546415873255127
sI54
F3.861416626633895
sI87
F1.047023147458412
sI59
g1155
sI60
g1158
ssI5
(dp1408
I26
F1.4078374064924073
sI13
g889
sI6
g892
sI21
F0.11191084806758311
ssI6
(dp1409
I35
F2.172190287070542
sI66
g899
sI67
g896
sI37
F0.8958658907385182
ssI7
(dp1410
I11
g3
(g7
S'\xe4\x04\x1bE\xe6`\x05@'
p1411
tp1412
Rp1413
sI13
F0.17374204752140496
sI78
F2.0923681274450976
sI80
g3
(g7
S'r\x11\x96|\xdfF\xff?'
p1414
tp1415
Rp1416
sI23
g3
(g7
S'\x9b\x8f\xc6\xa3\xac\xfb\xec?'
p1417
tp1418
Rp1419
sI24
g3
(g7
S'>K\x82b\x08\r\x04@'
p1420
tp1421
Rp1422
sI58
F0.0
sI30
F0.13607224903195134
ssI8
(dp1423
I69
g876
sI41
F2.249918682285815
sI76
F0.0
sI16
F1.8958339753446032
sI49
g879
sI53
F0.6681290748065465
sI54
F1.5299792845047613
sI87
F0.15252416851673511
sI59
g882
sI60
g885
ssI9
(dp1424
I69
g1032
sI41
F2.594465605786764
sI43
F0.9943162008116743
sI76
F0.8740691544642599
sI16
F0.14216670312018542
sI49
g1035
sI53
F0.7022655248842194
sI54
F0.29901067669345105
sI87
F0.0
sI59
g1038
sI60
g1041
ssI10
(dp1425
I35
F2.172190287070542
sI66
g899
sI67
g896
sI37
F0.8958658907385182
ssI11
(dp1426
I33
g1180
sI84
g1192
sI49
g1189
sI7
g1183
sI46
g1186
sI63
g1195
ssI12
(dp1427
I97
g1250
sI35
g1253
sI40
g1256
sI46
g1259
sI16
g1262
sI20
g1265
sI87
g1268
sI91
g1271
sI60
g1274
ssI13
(dp1428
I69
g1152
sI41
F3.347350073050004
sI76
F0.8852362150712461
sI16
F0.385931845106941
sI20
F0.7129328890848373
sI53
F0.9546415873255127
sI54
F3.861416626633895
sI87
F1.047023147458412
sI59
g1155
sI60
g1158
ssI14
(dp1429
I97
g1365
sI3
g1368
sI36
g1371
sI73
g1374
sI42
g1377
sI46
g1380
sI59
g1389
sI51
g1386
sI91
g1383
sssI55
(dp1430
I0
(dp1431
I48
F3.200674615019729
sI8
F2.2980277635943
sI52
F0.0
sI88
g836
sI57
F0.6247410431152085
sI27
F0.11802009509325286
sI60
F0.0
ssI1
(dp1432
I32
F2.057549574731914
sI16
g840
sI34
F1.1862874296574617
sI71
g843
sI88
g846
sI79
F0.9062439627068599
ssI2
(dp1433
I98
F3.074915298420609
sI4
g850
sI54
g853
sI6
g856
sI13
g859
sI21
F3.480965031016348
sI86
F2.096540124492726
sI100
F0.42806307201613397
sI26
g862
ssI3
(dp1434
I64
g941
sI1
F1.5945152189244869
sI99
F0.6591279550368156
sI4
F0.0
sI51
F1.1149535759852325
sI72
g944
sI77
F3.5991675284991205
sI46
F0.504284962661031
sI50
F0.6407428708976555
sI83
F1.6119791057607118
sI23
F4.519972150093613
sI56
g947
sI60
F2.33522958056428
sI61
F1.6533099371620474
sI94
F0.5493592833408149
ssI4
(dp1435
I69
g1152
sI41
F3.347350073050004
sI76
F0.8852362150712461
sI16
F0.385931845106941
sI20
F0.7129328890848373
sI53
F0.9546415873255127
sI54
F3.861416626633895
sI87
F1.047023147458412
sI59
g1155
sI60
g1158
ssI5
(dp1436
I26
F1.4078374064924073
sI13
g889
sI6
g892
sI21
F0.11191084806758311
ssI6
(dp1437
I67
g896
sI66
g899
sI35
F2.172190287070542
sI37
F0.8958658907385182
ssI7
(dp1438
I11
g903
sI13
F0.0
sI78
F0.8355371776415721
sI80
g906
sI82
F0.0
sI23
g909
sI24
g912
sI58
F0.4175638855399111
sI30
F0.0
ssI8
(dp1439
I69
g876
sI41
F2.249918682285815
sI76
F0.0
sI16
F1.8958339753446032
sI49
g879
sI53
F0.6681290748065465
sI54
F1.5299792845047613
sI87
F0.15252416851673511
sI59
g882
sI60
g885
ssI9
(dp1440
I69
g1032
sI41
F2.594465605786764
sI43
F0.9943162008116743
sI76
F0.8740691544642599
sI16
F0.14216670312018542
sI49
g1035
sI53
F0.7022655248842194
sI54
F0.29901067669345105
sI87
F0.0
sI59
g1038
sI60
g1041
ssI10
(dp1441
I67
g896
sI66
g899
sI35
F2.172190287070542
sI37
F0.8958658907385182
ssI11
(dp1442
I33
F0.0
sI84
g3
(g7
S'\xf9~Z5\xe0\x08\x03@'
p1443
tp1444
Rp1445
sI49
F0.0
sI7
g3
(g7
S'z\x1a`\xa2\xf3w\xf0?'
p1446
tp1447
Rp1448
sI60
F0.4506432807864664
sI46
F0.0
sI63
g3
(g7
S'\x9f\xc1\t\xad\xc1\xff\xe6?'
p1449
tp1450
Rp1451
ssI12
(dp1452
I97
g1250
sI35
g1253
sI40
g1256
sI46
g1259
sI16
g1262
sI20
g1265
sI87
g1268
sI91
g1271
sI60
g1274
ssI13
(dp1453
I69
g1152
sI41
F3.347350073050004
sI76
F0.8852362150712461
sI16
F0.385931845106941
sI20
F0.7129328890848373
sI53
F0.9546415873255127
sI54
F3.861416626633895
sI87
F1.047023147458412
sI59
g1155
sI60
g1158
ssI14
(dp1454
I97
g1365
sI3
g1368
sI36
g1371
sI73
g1374
sI42
g1377
sI46
g1380
sI91
g1383
sI51
g1386
sI59
g1389
sssI56
(dp1455
I0
(dp1456
I48
F3.200674615019729
sI8
F2.2980277635943
sI52
F0.0
sI88
g836
sI57
F0.6247410431152085
sI27
F0.11802009509325286
sI60
F0.0
ssI1
(dp1457
I32
F2.057549574731914
sI16
g840
sI34
F1.1862874296574617
sI71
g843
sI88
g846
sI79
F0.9062439627068599
ssI2
(dp1458
I98
F3.074915298420609
sI4
g850
sI54
g853
sI6
g856
sI13
g859
sI21
F3.480965031016348
sI86
F2.096540124492726
sI100
F0.42806307201613397
sI26
g862
ssI3
(dp1459
I64
g3
(g7
S'\xa4\xbc\xeawY\x9e\x13@'
p1460
tp1461
Rp1462
sI1
F2.0957191445919094
sI99
F0.4585096316875875
sI4
F0.5188822388380744
sI51
F1.5652811053786337
sI72
g3
(g7
S'\x1ccHI\x8f\x1a\x08@'
p1463
tp1464
Rp1465
sI77
F3.8661449891036916
sI46
F1.3848374521496032
sI29
F0.8406922866569263
sI50
F0.6757112223440034
sI83
F1.5516376836679338
sI23
F3.8600642043066857
sI56
g3
(g7
S' D\x8df\xe5\x18\x1c@'
p1466
tp1467
Rp1468
sI60
F3.1331261631146696
sI61
F0.0
sI94
F0.6993842431683217
ssI4
(dp1469
I69
g1152
sI41
F3.347350073050004
sI76
F0.8852362150712461
sI16
F0.385931845106941
sI20
F0.7129328890848373
sI53
F0.9546415873255127
sI54
F3.861416626633895
sI87
F1.047023147458412
sI59
g1155
sI60
g1158
ssI5
(dp1470
I26
F1.4078374064924073
sI13
g889
sI6
g892
sI21
F0.11191084806758311
ssI6
(dp1471
I67
g896
sI66
g899
sI35
F2.172190287070542
sI37
F0.8958658907385182
ssI7
(dp1472
I11
g903
sI13
F0.0
sI78
F0.8355371776415721
sI80
g906
sI82
F0.0
sI23
g909
sI24
g912
sI58
F0.4175638855399111
sI30
F0.0
ssI8
(dp1473
I69
g876
sI41
F2.249918682285815
sI76
F0.0
sI16
F1.8958339753446032
sI49
g879
sI53
F0.6681290748065465
sI54
F1.5299792845047613
sI87
F0.15252416851673511
sI59
g882
sI60
g885
ssI9
(dp1474
I69
g1032
sI41
F2.594465605786764
sI43
F0.9943162008116743
sI76
F0.8740691544642599
sI16
F0.14216670312018542
sI49
g1035
sI53
F0.7022655248842194
sI54
F0.29901067669345105
sI87
F0.0
sI59
g1038
sI60
g1041
ssI10
(dp1475
I67
g896
sI66
g899
sI35
F2.172190287070542
sI37
F0.8958658907385182
ssI11
(dp1476
I33
g1180
sI84
g1192
sI49
g1189
sI7
g1183
sI46
g1186
sI63
g1195
ssI12
(dp1477
I97
g1250
sI35
g1253
sI40
g1256
sI46
g1259
sI16
g1262
sI20
g1265
sI87
g1268
sI91
g1271
sI60
g1274
ssI13
(dp1478
I69
g1152
sI41
F3.347350073050004
sI76
F0.8852362150712461
sI16
F0.385931845106941
sI20
F0.7129328890848373
sI53
F0.9546415873255127
sI54
F3.861416626633895
sI87
F1.047023147458412
sI59
g1155
sI60
g1158
ssI14
(dp1479
I97
g1365
sI3
g1368
sI36
g1371
sI73
g1374
sI42
g1377
sI46
g1380
sI91
g1383
sI51
g1386
sI59
g1389
sssI57
(dp1480
I0
(dp1481
I48
F3.200674615019729
sI8
F2.2980277635943
sI52
F0.0
sI88
g836
sI57
F0.6247410431152085
sI27
F0.11802009509325286
sI60
F0.0
ssI1
(dp1482
I32
F2.057549574731914
sI16
g840
sI34
F1.1862874296574617
sI71
g843
sI88
g846
sI79
F0.9062439627068599
ssI2
(dp1483
I98
F3.074915298420609
sI4
g850
sI54
g853
sI6
g856
sI13
g859
sI21
F3.480965031016348
sI86
F2.096540124492726
sI100
F0.42806307201613397
sI26
g862
ssI3
(dp1484
I64
g1462
sI1
F2.0957191445919094
sI4
F0.5188822388380744
sI72
g1465
sI77
F3.8661449891036916
sI83
F1.5516376836679338
sI23
F3.8600642043066857
sI29
F0.8406922866569263
sI94
F0.6993842431683217
sI99
F0.4585096316875875
sI46
F1.3848374521496032
sI50
F0.6757112223440034
sI51
F1.5652811053786337
sI56
g1468
sI60
F3.1331261631146696
sI61
F0.0
ssI4
(dp1485
I69
g1152
sI41
F3.347350073050004
sI76
F0.8852362150712461
sI16
F0.385931845106941
sI20
F0.7129328890848373
sI53
F0.9546415873255127
sI54
F3.861416626633895
sI87
F1.047023147458412
sI59
g1155
sI60
g1158
ssI5
(dp1486
I26
F1.4078374064924073
sI13
g889
sI6
g892
sI21
F0.11191084806758311
ssI6
(dp1487
I67
g896
sI66
g899
sI35
F2.172190287070542
sI37
F0.8958658907385182
ssI7
(dp1488
I7
F0.2044676832211917
sI11
g3
(g7
S'\xbfs\x07\xad\xaf\xf5\x03@'
p1489
tp1490
Rp1491
sI13
F0.4841318500093802
sI78
F1.928284314679477
sI80
g3
(g7
S'\xd4\xf5\xfd\x00\xc5t\x06@'
p1492
tp1493
Rp1494
sI82
F0.0
sI23
g3
(g7
S'\x9cJ\xd2q\xae\x1e\xb7?'
p1495
tp1496
Rp1497
sI24
g3
(g7
S'\xfe\xc7\xa2*i\xb5\xf9?'
p1498
tp1499
Rp1500
sI58
F0.0
sI30
F0.9505394259943136
ssI8
(dp1501
I69
g876
sI41
F2.249918682285815
sI76
F0.0
sI16
F1.8958339753446032
sI49
g879
sI53
F0.6681290748065465
sI54
F1.5299792845047613
sI87
F0.15252416851673511
sI59
g882
sI60
g885
ssI9
(dp1502
I69
g1032
sI41
F2.594465605786764
sI43
F0.9943162008116743
sI76
F0.8740691544642599
sI16
F0.14216670312018542
sI49
g1035
sI53
F0.7022655248842194
sI54
F0.29901067669345105
sI87
F0.0
sI59
g1038
sI60
g1041
ssI10
(dp1503
I67
g896
sI66
g899
sI35
F2.172190287070542
sI37
F0.8958658907385182
ssI11
(dp1504
I33
g1180
sI84
g1192
sI49
g1189
sI7
g1183
sI46
g1186
sI63
g1195
ssI12
(dp1505
I97
g1250
sI35
g1253
sI40
g1256
sI46
g1259
sI16
g1262
sI20
g1265
sI87
g1268
sI91
g1271
sI60
g1274
ssI13
(dp1506
I69
g1152
sI41
F3.347350073050004
sI76
F0.8852362150712461
sI16
F0.385931845106941
sI20
F0.7129328890848373
sI53
F0.9546415873255127
sI54
F3.861416626633895
sI87
F1.047023147458412
sI59
g1155
sI60
g1158
ssI14
(dp1507
I97
g1365
sI3
g1368
sI36
g1371
sI73
g1374
sI42
g1377
sI46
g1380
sI91
g1383
sI51
g1386
sI59
g1389
sssI58
(dp1508
I0
(dp1509
I48
F2.101626071106737
sI8
F3.2272398483452016
sI52
F0.9927508174858604
sI88
g3
(g7
S'\xacY\xbe\x1b\x99_\x12@'
p1510
tp1511
Rp1512
sI57
F1.1831804111011441
sI27
F0.0
sI60
F1.7437523683431302
ssI1
(dp1513
I32
F1.2201753820637675
sI16
g3
(g7
S'.\n\xaf\xf3\xdd\xac\x02@'
p1514
tp1515
Rp1516
sI34
F1.1697754648754906
sI71
g3
(g7
S'\x86z\xe3\xadEx\t@'
p1517
tp1518
Rp1519
sI88
g3
(g7
S'\x0cB\x06T\x18\x9d\xda?'
p1520
tp1521
Rp1522
sI79
F2.635108744186918
ssI2
(dp1523
I98
F2.6036484193286893
sI4
g3
(g7
S'\x11\r\xea\x07^\xb6\x04@'
p1524
tp1525
Rp1526
sI54
g3
(g7
S'v\xe95p\xfal\x08@'
p1527
tp1528
Rp1529
sI6
g3
(g7
S'\x9f\xc1\xee]\x95_\x0f@'
p1530
tp1531
Rp1532
sI13
F0.0
sI21
F3.509887628623879
sI86
F1.5254584590661742
sI100
F0.21894191151485806
ssI3
(dp1533
I64
g3
(g7
S'\x89\xf2\x8e\xf4\x83m\x16@'
p1534
tp1535
Rp1536
sI1
F2.051097018582753
sI99
F1.3468789809048662
sI4
F1.3112630336887472
sI51
F1.521601590206599
sI72
g3
(g7
S'2\xf6y\xd8e\xb8\x05@'
p1537
tp1538
Rp1539
sI77
F2.407460396561864
sI46
F0.0
sI50
F0.0
sI83
F2.2095581789598477
sI23
F4.7651425380301475
sI56
g3
(g7
S'T\r\xa9\xec\x0c\xd0\x1d@'
p1540
tp1541
Rp1542
sI60
F1.0847988782654425
sI61
F3.2956807456946056
sI94
F1.4507938487397571
ssI4
(dp1543
I69
g3
(g7
S'\xff-\x9a5\xef1\x06@'
p1544
tp1545
Rp1546
sI41
F2.6940669004684805
sI76
F1.7708651928344725
sI16
F0.3365040940313817
sI20
F0.4821415129901811
sI53
F0.0
sI54
F4.65221095310884
sI87
F1.4732159899677275
sI59
g3
(g7
S'@\xa6c\x16\xb0\x9d\x03@'
p1547
tp1548
Rp1549
sI60
g3
(g7
S'\xed|\x15\x95{\xf8\x0f@'
p1550
tp1551
Rp1552
ssI5
(dp1553
I13
g3
(g7
S',\x15\x90\t\xaf\xe4\x13@'
p1554
tp1555
Rp1556
sI6
g3
(g7
S'\xb2uO4\x1d\xf6\xf4?'
p1557
tp1558
Rp1559
sI21
F0.5971161970146859
ssI6
(dp1560
I66
g3
(g7
S'\x92g\x7f\x04\xba\x17\xe1?'
p1561
tp1562
Rp1563
sI67
g3
(g7
S'(\xdf\xe0*|\x1b\xf5?'
p1564
tp1565
Rp1566
sI37
F3.7469471732003234
ssI7
(dp1567
I11
g3
(g7
S'T|}\x1b\xef\xe6\x0c@'
p1568
tp1569
Rp1570
sI13
F0.0
sI78
F0.7804872912287281
sI80
g3
(g7
S'\xa3\xd6\x1e\xb6\x0b8\xf5?'
p1571
tp1572
Rp1573
sI82
F3.341948151140233
sI23
F0.0
sI24
g3
(g7
S'J\xd1\x90\xaaQ=\x0b@'
p1574
tp1575
Rp1576
sI58
F0.0
sI30
F1.7288936760209814
ssI8
(dp1577
I69
g3
(g7
S'z8\xb7>-\x85\xf2?'
p1578
tp1579
Rp1580
sI76
F0.551895053334939
sI16
F0.7924300393463448
sI49
g3
(g7
S'c>\xfb\x8dZ\xc5\xe5?'
p1581
tp1582
Rp1583
sI53
F0.3631009258434822
sI54
F0.0
sI87
F0.10746325058451932
sI59
g3
(g7
S'\x9d\xfa\x1e\x8e\xfd\xb5\x11@'
p1584
tp1585
Rp1586
sI60
g3
(g7
S'9\xfc\x96\xea"C\x11@'
p1587
tp1588
Rp1589
ssI9
(dp1590
I69
g3
(g7
S'{\x8a}8\xf1\xa5\x02@'
p1591
tp1592
Rp1593
sI41
F0.8143045418437733
sI43
F0.8788458179813794
sI76
F0.23477930232711597
sI16
F0.0
sI49
g3
(g7
S'\xb9\xd4\xacy\x1f\xa1\xf7?'
p1594
tp1595
Rp1596
sI53
F0.22885636531194753
sI54
F0.0
sI87
F0.0
sI59
g3
(g7
S'\xcdmD\x80db\xfe?'
p1597
tp1598
Rp1599
sI60
g3
(g7
S'\x06|H]\xe2\xe4\x03@'
p1600
tp1601
Rp1602
ssI10
(dp1603
I67
g3
(g7
S'\xdf;\xe6%\x89\x13\xe5?'
p1604
tp1605
Rp1606
sI35
F1.5322119915123436
sI37
F2.1443704899312133
ssI11
(dp1607
I33
g3
(g7
S'(4\xe0\xe4\x9f\x9b\x0b@'
p1608
tp1609
Rp1610
sI63
g3
(g7
S'\xca\x93\x89\xd9)\x10\xb5?'
p1611
tp1612
Rp1613
sI84
g3
(g7
S'\n\xa0\xdft\xa8\xbe\x02@'
p1614
tp1615
Rp1616
sI49
F0.0
sI7
g3
(g7
S'\xf0\xd2\xb5\xac\xbc\t\xfe?'
p1617
tp1618
Rp1619
ssI12
(dp1620
I97
g3
(g7
S'@\x05C\xd0\xfc\xd4\xf5?'
p1621
tp1622
Rp1623
sI34
F0.05648079876885337
sI35
g3
(g7
S'\xe6\xc6T3\x93\x04\x07@'
p1624
tp1625
Rp1626
sI40
F0.0
sI46
F0.0
sI16
g3
(g7
S'\xae\xaa\x87f\xb8l\xf4?'
p1627
tp1628
Rp1629
sI20
g3
(g7
S'\xd4\xa9B\xed\x8d\x0c\xe5?'
p1630
tp1631
Rp1632
sI87
g3
(g7
S'\x10\x11\x10\xf0\xb1\xda\xcd?'
p1633
tp1634
Rp1635
sI91
F0.0
sI60
g3
(g7
S'\xd0\xde\x14@\x1d\x14\xa1?'
p1636
tp1637
Rp1638
ssI13
(dp1639
I69
g3
(g7
S'\xa2@)l6\x81\x02@'
p1640
tp1641
Rp1642
sI41
F1.585051353709713
sI76
F0.8334395474775967
sI45
F0.9708509768206148
sI16
F0.004638239025463287
sI20
F0.4049646118442455
sI53
F1.9029472563911796
sI54
F2.355922315142867
sI87
F0.0
sI59
g3
(g7
S'\x00\x92\x90\xfb\xfa{\x03@'
p1643
tp1644
Rp1645
sI60
g3
(g7
S'\x93^\xf5\xd8)u\x00@'
p1646
tp1647
Rp1648
sssI59
(dp1649
I0
(dp1650
I48
F2.101626071106737
sI88
g1512
sI52
F0.9927508174858604
sI8
F3.2272398483452016
sI57
F1.1831804111011441
sI27
F0.0
sI60
F1.7437523683431302
ssI1
(dp1651
I32
F1.2201753820637675
sI16
g1516
sI34
F1.1697754648754906
sI71
g1519
sI88
g1522
sI79
F2.635108744186918
ssI2
(dp1652
I98
F2.6036484193286893
sI4
g1526
sI86
F1.5254584590661742
sI6
g1532
sI13
F0.0
sI21
F3.509887628623879
sI54
g1529
sI100
F0.21894191151485806
ssI3
(dp1653
I64
g1536
sI1
F2.051097018582753
sI83
F2.2095581789598477
sI99
F1.3468789809048662
sI4
F1.3112630336887472
sI72
g1539
sI77
F2.407460396561864
sI46
F0.0
sI50
F0.0
sI51
F1.521601590206599
sI23
F4.7651425380301475
sI56
g1542
sI60
F1.0847988782654425
sI61
F3.2956807456946056
sI94
F1.4507938487397571
ssI4
(dp1654
I69
g1546
sI41
F2.6940669004684805
sI76
F1.7708651928344725
sI16
F0.3365040940313817
sI20
F0.4821415129901811
sI53
F0.0
sI54
F4.65221095310884
sI87
F1.4732159899677275
sI59
g1549
sI60
g1552
ssI5
(dp1655
I13
g1556
sI6
g1559
sI21
F0.5971161970146859
ssI6
(dp1656
I66
g1563
sI67
g1566
sI37
F3.7469471732003234
ssI7
(dp1657
I11
g1570
sI13
F0.0
sI78
F0.7804872912287281
sI80
g1573
sI82
F3.341948151140233
sI23
F0.0
sI24
g1576
sI58
F0.0
sI30
F1.7288936760209814
ssI8
(dp1658
I69
g1580
sI76
F0.551895053334939
sI16
F0.7924300393463448
sI49
g1583
sI53
F0.3631009258434822
sI54
F0.0
sI87
F0.10746325058451932
sI59
g1586
sI60
g1589
ssI9
(dp1659
I69
g1593
sI41
F0.8143045418437733
sI43
F0.8788458179813794
sI76
F0.23477930232711597
sI16
F0.0
sI49
g1596
sI53
F0.22885636531194753
sI54
F0.0
sI87
F0.0
sI59
g1599
sI60
g1602
ssI10
(dp1660
I35
F1.5322119915123436
sI67
g1606
sI37
F2.1443704899312133
ssI11
(dp1661
I33
g1610
sI7
g1619
sI84
g1616
sI49
F0.0
sI63
g1613
ssI12
(dp1662
I97
g1623
sI34
F0.05648079876885337
sI35
g1626
sI40
F0.0
sI46
F0.0
sI16
g1629
sI20
g1632
sI87
g1635
sI91
F0.0
sI60
g1638
ssI13
(dp1663
I69
g1642
sI41
F1.585051353709713
sI76
F0.8334395474775967
sI45
F0.9708509768206148
sI16
F0.004638239025463287
sI20
F0.4049646118442455
sI53
F1.9029472563911796
sI54
F2.355922315142867
sI87
F0.0
sI59
g1645
sI60
g1648
ssI14
(dp1664
I3
g3
(g7
S'\xe6\xb9#\xe5\xe8x\xd0?'
p1665
tp1666
Rp1667
sI14
g3
(g7
S'_\xb9\xec\xa7\xbaE\xe2?'
p1668
tp1669
Rp1670
sssI60
(dp1671
I0
(dp1672
I48
F2.101626071106737
sI8
F3.2272398483452016
sI52
F0.9927508174858604
sI88
g1512
sI57
F1.1831804111011441
sI27
F0.0
sI60
F1.7437523683431302
ssI1
(dp1673
I32
F1.2201753820637675
sI16
g1516
sI34
F1.1697754648754906
sI71
g1519
sI88
g1522
sI79
F2.635108744186918
ssI2
(dp1674
I98
F2.6036484193286893
sI4
g1526
sI54
g1529
sI6
g1532
sI13
F0.0
sI21
F3.509887628623879
sI86
F1.5254584590661742
sI100
F0.21894191151485806
ssI3
(dp1675
I64
g1536
sI1
F2.051097018582753
sI99
F1.3468789809048662
sI4
F1.3112630336887472
sI51
F1.521601590206599
sI72
g1539
sI77
F2.407460396561864
sI46
F0.0
sI50
F0.0
sI83
F2.2095581789598477
sI23
F4.7651425380301475
sI56
g1542
sI60
F1.0847988782654425
sI61
F3.2956807456946056
sI94
F1.4507938487397571
ssI4
(dp1676
I69
g1546
sI41
F2.6940669004684805
sI76
F1.7708651928344725
sI16
F0.3365040940313817
sI20
F0.4821415129901811
sI53
F0.0
sI54
F4.65221095310884
sI87
F1.4732159899677275
sI59
g1549
sI60
g1552
ssI5
(dp1677
I13
g1556
sI6
g1559
sI21
F0.5971161970146859
ssI6
(dp1678
I66
g1563
sI67
g1566
sI37
F3.7469471732003234
ssI7
(dp1679
I11
g1570
sI13
F0.0
sI78
F0.7804872912287281
sI80
g1573
sI82
F3.341948151140233
sI23
F0.0
sI24
g1576
sI58
F0.0
sI30
F1.7288936760209814
ssI8
(dp1680
I69
g1580
sI76
F0.551895053334939
sI16
F0.7924300393463448
sI49
g1583
sI53
F0.3631009258434822
sI54
F0.0
sI87
F0.10746325058451932
sI59
g1586
sI60
g1589
ssI9
(dp1681
I69
g1593
sI41
F0.8143045418437733
sI43
F0.8788458179813794
sI76
F0.23477930232711597
sI16
F0.0
sI49
g1596
sI53
F0.22885636531194753
sI54
F0.0
sI87
F0.0
sI59
g1599
sI60
g1602
ssI10
(dp1682
I67
g1606
sI35
F1.5322119915123436
sI37
F2.1443704899312133
ssI11
(dp1683
I33
g1610
sI63
g1613
sI84
g1616
sI49
F0.0
sI7
g1619
ssI12
(dp1684
I97
g1623
sI34
F0.05648079876885337
sI35
g1626
sI40
F0.0
sI46
F0.0
sI16
g1629
sI20
g1632
sI87
g1635
sI91
F0.0
sI60
g1638
ssI13
(dp1685
I69
g1642
sI41
F1.585051353709713
sI76
F0.8334395474775967
sI45
F0.9708509768206148
sI16
F0.004638239025463287
sI20
F0.4049646118442455
sI53
F1.9029472563911796
sI54
F2.355922315142867
sI87
F0.0
sI59
g1645
sI60
g1648
ssI14
(dp1686
I3
g3
(g7
S'\x13!S\xd8\xc9y\xd1?'
p1687
tp1688
Rp1689
sI14
g3
(g7
S'\xd1\xcc_k~\xa5\xe2?'
p1690
tp1691
Rp1692
sssI61
(dp1693
I0
(dp1694
I48
F2.101626071106737
sI8
F3.2272398483452016
sI52
F0.9927508174858604
sI88
g1512
sI57
F1.1831804111011441
sI27
F0.0
sI60
F1.7437523683431302
ssI1
(dp1695
I32
F1.2201753820637675
sI16
g1516
sI34
F1.1697754648754906
sI71
g1519
sI88
g1522
sI79
F2.635108744186918
ssI2
(dp1696
I98
F2.6036484193286893
sI4
g1526
sI54
g1529
sI6
g1532
sI13
F0.0
sI21
F3.509887628623879
sI86
F1.5254584590661742
sI100
F0.21894191151485806
ssI3
(dp1697
I64
g1536
sI1
F2.051097018582753
sI99
F1.3468789809048662
sI4
F1.3112630336887472
sI51
F1.521601590206599
sI72
g1539
sI77
F2.407460396561864
sI46
F0.0
sI50
F0.0
sI83
F2.2095581789598477
sI23
F4.7651425380301475
sI56
g1542
sI60
F1.0847988782654425
sI61
F3.2956807456946056
sI94
F1.4507938487397571
ssI4
(dp1698
I69
g1546
sI41
F2.6940669004684805
sI76
F1.7708651928344725
sI16
F0.3365040940313817
sI20
F0.4821415129901811
sI53
F0.0
sI54
F4.65221095310884
sI87
F1.4732159899677275
sI59
g1549
sI60
g1552
ssI5
(dp1699
I13
g1556
sI6
g1559
sI21
F0.5971161970146859
ssI6
(dp1700
I66
g1563
sI67
g1566
sI37
F3.7469471732003234
ssI7
(dp1701
I11
g1570
sI13
F0.0
sI78
F0.7804872912287281
sI80
g1573
sI82
F3.341948151140233
sI23
F0.0
sI24
g1576
sI58
F0.0
sI30
F1.7288936760209814
ssI8
(dp1702
I69
g1580
sI76
F0.551895053334939
sI16
F0.7924300393463448
sI49
g1583
sI53
F0.3631009258434822
sI54
F0.0
sI87
F0.10746325058451932
sI59
g1586
sI60
g1589
ssI9
(dp1703
I69
g1593
sI41
F0.8143045418437733
sI43
F0.8788458179813794
sI76
F0.23477930232711597
sI16
F0.0
sI49
g1596
sI53
F0.22885636531194753
sI54
F0.0
sI87
F0.0
sI59
g1599
sI60
g1602
ssI10
(dp1704
I67
g1606
sI35
F1.5322119915123436
sI37
F2.1443704899312133
ssI11
(dp1705
I33
g1610
sI63
g1613
sI84
g1616
sI49
F0.0
sI7
g1619
ssI12
(dp1706
I97
g3
(g7
S'\x9f\xec\xa8\xcc\xda\x9e\xeb?'
p1707
tp1708
Rp1709
sI34
F1.5505168229322637
sI35
g3
(g7
S't\x11\xb2\xe1\xe5q\x11@'
p1710
tp1711
Rp1712
sI40
F0.16947805708307084
sI46
F0.5509150871063472
sI16
g3
(g7
S'E@\x14]_\x9f\xf5?'
p1713
tp1714
Rp1715
sI3
F0.8173037940004917
sI20
g3
(g7
S'\x0c*\x12\xa6\xe1\xb9\xda?'
p1716
tp1717
Rp1718
sI87
F0.0
sI91
F0.0
sI60
g3
(g7
S'\xdbk\x91\xdf\x05\x8e\xda?'
p1719
tp1720
Rp1721
ssI13
(dp1722
I69
g1642
sI41
F1.585051353709713
sI76
F0.8334395474775967
sI45
F0.9708509768206148
sI16
F0.004638239025463287
sI20
F0.4049646118442455
sI53
F1.9029472563911796
sI54
F2.355922315142867
sI87
F0.0
sI59
g1645
sI60
g1648
ssI14
(dp1723
I3
g1689
sI14
g1692
sssI62
(dp1724
I0
(dp1725
I48
F2.101626071106737
sI88
g1512
sI52
F0.9927508174858604
sI8
F3.2272398483452016
sI57
F1.1831804111011441
sI27
F0.0
sI60
F1.7437523683431302
ssI1
(dp1726
I32
F1.2201753820637675
sI16
g1516
sI34
F1.1697754648754906
sI71
g1519
sI88
g1522
sI79
F2.635108744186918
ssI2
(dp1727
I98
F2.6036484193286893
sI4
g1526
sI86
F1.5254584590661742
sI6
g1532
sI13
F0.0
sI21
F3.509887628623879
sI54
g1529
sI100
F0.21894191151485806
ssI3
(dp1728
I64
g1536
sI1
F2.051097018582753
sI83
F2.2095581789598477
sI99
F1.3468789809048662
sI4
F1.3112630336887472
sI72
g1539
sI77
F2.407460396561864
sI46
F0.0
sI50
F0.0
sI51
F1.521601590206599
sI23
F4.7651425380301475
sI56
g1542
sI60
F1.0847988782654425
sI61
F3.2956807456946056
sI94
F1.4507938487397571
ssI4
(dp1729
I69
g1546
sI41
F2.6940669004684805
sI76
F1.7708651928344725
sI16
F0.3365040940313817
sI20
F0.4821415129901811
sI53
F0.0
sI54
F4.65221095310884
sI87
F1.4732159899677275
sI59
g1549
sI60
g1552
ssI5
(dp1730
I13
g1556
sI6
g1559
sI21
F0.5971161970146859
ssI6
(dp1731
I66
g1563
sI67
g1566
sI37
F3.7469471732003234
ssI7
(dp1732
I11
g1570
sI13
F0.0
sI78
F0.7804872912287281
sI80
g1573
sI82
F3.341948151140233
sI23
F0.0
sI24
g1576
sI58
F0.0
sI30
F1.7288936760209814
ssI8
(dp1733
I69
g1580
sI76
F0.551895053334939
sI16
F0.7924300393463448
sI49
g1583
sI53
F0.3631009258434822
sI54
F0.0
sI87
F0.10746325058451932
sI59
g1586
sI60
g1589
ssI9
(dp1734
I69
g3
(g7
S'\xac\x88_B\xa8\xac\x00@'
p1735
tp1736
Rp1737
sI39
F0.49143401898119643
sI41
F0.0
sI43
F1.5168025395199518
sI76
F1.1776881862692439
sI16
F0.0
sI49
g3
(g7
S'Xk\xf6_K\x96\x0c@'
p1738
tp1739
Rp1740
sI53
F1.2658977245891596
sI54
F0.0
sI87
F0.9773090511782693
sI59
g3
(g7
S'\x98\xc3X\r\xb2w\x03@'
p1741
tp1742
Rp1743
sI60
g3
(g7
S"\xc8E'\x1a5L\xfc?"
p1744
tp1745
Rp1746
ssI10
(dp1747
I35
F1.5322119915123436
sI67
g1606
sI37
F2.1443704899312133
ssI11
(dp1748
I33
g1610
sI7
g1619
sI84
g1616
sI49
F0.0
sI63
g1613
ssI12
(dp1749
I97
g1623
sI34
F0.05648079876885337
sI35
g1626
sI40
F0.0
sI46
F0.0
sI16
g1629
sI20
g1632
sI87
g1635
sI91
F0.0
sI60
g1638
ssI13
(dp1750
I69
g1642
sI41
F1.585051353709713
sI76
F0.8334395474775967
sI45
F0.9708509768206148
sI16
F0.004638239025463287
sI20
F0.4049646118442455
sI53
F1.9029472563911796
sI54
F2.355922315142867
sI87
F0.0
sI59
g1645
sI60
g1648
ssI14
(dp1751
I3
g1667
sI14
g1670
sssI63
(dp1752
I0
(dp1753
I48
F2.101626071106737
sI8
F3.2272398483452016
sI52
F0.9927508174858604
sI88
g1512
sI57
F1.1831804111011441
sI27
F0.0
sI60
F1.7437523683431302
ssI1
(dp1754
I32
F1.2201753820637675
sI16
g1516
sI34
F1.1697754648754906
sI71
g1519
sI88
g1522
sI79
F2.635108744186918
ssI2
(dp1755
I98
F2.6036484193286893
sI4
g1526
sI54
g1529
sI6
g1532
sI13
F0.0
sI21
F3.509887628623879
sI86
F1.5254584590661742
sI100
F0.21894191151485806
ssI3
(dp1756
I64
g1536
sI1
F2.051097018582753
sI99
F1.3468789809048662
sI4
F1.3112630336887472
sI51
F1.521601590206599
sI72
g1539
sI77
F2.407460396561864
sI46
F0.0
sI50
F0.0
sI83
F2.2095581789598477
sI23
F4.7651425380301475
sI56
g1542
sI60
F1.0847988782654425
sI61
F3.2956807456946056
sI94
F1.4507938487397571
ssI4
(dp1757
I69
g1546
sI41
F2.6940669004684805
sI76
F1.7708651928344725
sI16
F0.3365040940313817
sI20
F0.4821415129901811
sI53
F0.0
sI54
F4.65221095310884
sI87
F1.4732159899677275
sI59
g1549
sI60
g1552
ssI5
(dp1758
I13
g1556
sI6
g1559
sI21
F0.5971161970146859
ssI6
(dp1759
I66
g1563
sI67
g1566
sI37
F3.7469471732003234
ssI7
(dp1760
I11
g3
(g7
S'\xbeQz}Ab\x01@'
p1761
tp1762
Rp1763
sI13
F0.0
sI78
F0.9746517190683208
sI80
g3
(g7
S'\x94\xe9!\xfa^\xbe\x06@'
p1764
tp1765
Rp1766
sI82
F2.236100662614903
sI23
F0.0
sI24
g3
(g7
S'#w\x8bA\xa7\x10\x0b@'
p1767
tp1768
Rp1769
sI58
F0.0
sI30
F4.683287026394648
ssI8
(dp1770
I69
g1580
sI76
F0.551895053334939
sI16
F0.7924300393463448
sI49
g1583
sI53
F0.3631009258434822
sI54
F0.0
sI87
F0.10746325058451932
sI59
g1586
sI60
g1589
ssI9
(dp1771
I69
g1737
sI39
F0.49143401898119643
sI41
F0.0
sI43
F1.5168025395199518
sI76
F1.1776881862692439
sI16
F0.0
sI49
g1740
sI53
F1.2658977245891596
sI54
F0.0
sI87
F0.9773090511782693
sI59
g1743
sI60
g1746
ssI10
(dp1772
I67
g1606
sI35
F1.5322119915123436
sI37
F2.1443704899312133
ssI11
(dp1773
I33
g1610
sI63
g1613
sI84
g1616
sI49
F0.0
sI7
g1619
ssI12
(dp1774
I97
g1623
sI34
F0.05648079876885337
sI35
g1626
sI40
F0.0
sI46
F0.0
sI16
g1629
sI20
g1632
sI87
g1635
sI91
F0.0
sI60
g1638
ssI13
(dp1775
I69
g1642
sI41
F1.585051353709713
sI76
F0.8334395474775967
sI45
F0.9708509768206148
sI16
F0.004638239025463287
sI20
F0.4049646118442455
sI53
F1.9029472563911796
sI54
F2.355922315142867
sI87
F0.0
sI59
g1645
sI60
g1648
ssI14
(dp1776
I3
g1667
sI14
g1670
sssI64
(dp1777
I0
(dp1778
I48
F2.101626071106737
sI88
g1512
sI52
F0.9927508174858604
sI8
F3.2272398483452016
sI57
F1.1831804111011441
sI27
F0.0
sI60
F1.7437523683431302
ssI1
(dp1779
I32
F1.2201753820637675
sI16
g1516
sI34
F1.1697754648754906
sI71
g1519
sI88
g1522
sI79
F2.635108744186918
ssI2
(dp1780
I98
F2.6036484193286893
sI4
g1526
sI86
F1.5254584590661742
sI6
g1532
sI13
F0.0
sI21
F3.509887628623879
sI54
g1529
sI100
F0.21894191151485806
ssI3
(dp1781
I64
g1536
sI1
F2.051097018582753
sI83
F2.2095581789598477
sI99
F1.3468789809048662
sI4
F1.3112630336887472
sI72
g1539
sI77
F2.407460396561864
sI46
F0.0
sI50
F0.0
sI51
F1.521601590206599
sI23
F4.7651425380301475
sI56
g1542
sI60
F1.0847988782654425
sI61
F3.2956807456946056
sI94
F1.4507938487397571
ssI4
(dp1782
I69
g1546
sI41
F2.6940669004684805
sI76
F1.7708651928344725
sI16
F0.3365040940313817
sI20
F0.4821415129901811
sI53
F0.0
sI54
F4.65221095310884
sI87
F1.4732159899677275
sI59
g1549
sI60
g1552
ssI5
(dp1783
I13
g1556
sI6
g1559
sI21
F0.5971161970146859
ssI6
(dp1784
I66
g1563
sI67
g1566
sI37
F3.7469471732003234
ssI7
(dp1785
I11
g1763
sI13
F0.0
sI78
F0.9746517190683208
sI80
g1766
sI82
F2.236100662614903
sI23
F0.0
sI24
g1769
sI58
F0.0
sI30
F4.683287026394648
ssI8
(dp1786
I69
g1580
sI76
F0.551895053334939
sI16
F0.7924300393463448
sI49
g1583
sI53
F0.3631009258434822
sI54
F0.0
sI87
F0.10746325058451932
sI59
g1586
sI60
g1589
ssI9
(dp1787
I69
g1737
sI39
F0.49143401898119643
sI41
F0.0
sI43
F1.5168025395199518
sI76
F1.1776881862692439
sI16
F0.0
sI49
g1740
sI53
F1.2658977245891596
sI54
F0.0
sI87
F0.9773090511782693
sI59
g1743
sI60
g1746
ssI10
(dp1788
I35
F1.5322119915123436
sI67
g1606
sI37
F2.1443704899312133
ssI11
(dp1789
I33
g1610
sI7
g1619
sI84
g1616
sI49
F0.0
sI63
g1613
ssI12
(dp1790
I97
g1623
sI34
F0.05648079876885337
sI35
g1626
sI40
F0.0
sI46
F0.0
sI16
g1629
sI20
g1632
sI87
g1635
sI91
F0.0
sI60
g1638
ssI13
(dp1791
I69
g1642
sI41
F1.585051353709713
sI76
F0.8334395474775967
sI45
F0.9708509768206148
sI16
F0.004638239025463287
sI20
F0.4049646118442455
sI53
F1.9029472563911796
sI54
F2.355922315142867
sI87
F0.0
sI59
g1645
sI60
g1648
ssI14
(dp1792
I3
g1667
sI14
g1670
ssI15
(dp1793
I69
g1642
sI41
F1.585051353709713
sI76
F0.8334395474775967
sI45
F0.9708509768206148
sI16
F0.004638239025463287
sI20
F0.4049646118442455
sI53
F1.9029472563911796
sI54
F2.355922315142867
sI87
F0.0
sI59
g1645
sI60
g1648
sssI65
(dp1794
I0
(dp1795
I48
F2.101626071106737
sI88
g1512
sI52
F0.9927508174858604
sI8
F3.2272398483452016
sI57
F1.1831804111011441
sI27
F0.0
sI60
F1.7437523683431302
ssI1
(dp1796
I32
F1.2201753820637675
sI16
g1516
sI34
F1.1697754648754906
sI71
g1519
sI88
g1522
sI79
F2.635108744186918
ssI2
(dp1797
I98
F2.6036484193286893
sI4
g1526
sI86
F1.5254584590661742
sI6
g1532
sI13
F0.0
sI21
F3.509887628623879
sI54
g1529
sI100
F0.21894191151485806
ssI3
(dp1798
I64
g1536
sI1
F2.051097018582753
sI83
F2.2095581789598477
sI99
F1.3468789809048662
sI4
F1.3112630336887472
sI72
g1539
sI77
F2.407460396561864
sI46
F0.0
sI50
F0.0
sI51
F1.521601590206599
sI23
F4.7651425380301475
sI56
g1542
sI60
F1.0847988782654425
sI61
F3.2956807456946056
sI94
F1.4507938487397571
ssI4
(dp1799
I69
g1546
sI41
F2.6940669004684805
sI76
F1.7708651928344725
sI16
F0.3365040940313817
sI20
F0.4821415129901811
sI53
F0.0
sI54
F4.65221095310884
sI87
F1.4732159899677275
sI59
g1549
sI60
g1552
ssI5
(dp1800
I13
g1556
sI6
g1559
sI21
F0.5971161970146859
ssI6
(dp1801
I66
g1563
sI67
g1566
sI37
F3.7469471732003234
ssI7
(dp1802
I11
g1763
sI13
F0.0
sI78
F0.9746517190683208
sI80
g1766
sI82
F2.236100662614903
sI23
F0.0
sI24
g1769
sI58
F0.0
sI30
F4.683287026394648
ssI8
(dp1803
I69
g1580
sI76
F0.551895053334939
sI16
F0.7924300393463448
sI49
g1583
sI53
F0.3631009258434822
sI54
F0.0
sI87
F0.10746325058451932
sI59
g1586
sI60
g1589
ssI9
(dp1804
I69
g1737
sI39
F0.49143401898119643
sI41
F0.0
sI43
F1.5168025395199518
sI76
F1.1776881862692439
sI16
F0.0
sI49
g1740
sI53
F1.2658977245891596
sI54
F0.0
sI87
F0.9773090511782693
sI59
g1743
sI60
g1746
ssI10
(dp1805
I35
F1.5322119915123436
sI67
g1606
sI37
F2.1443704899312133
ssI11
(dp1806
I33
g1610
sI7
g1619
sI84
g1616
sI49
F0.0
sI63
g1613
ssI12
(dp1807
I97
g1623
sI34
F0.05648079876885337
sI35
g1626
sI40
F0.0
sI46
F0.0
sI16
g1629
sI20
g1632
sI87
g1635
sI91
F0.0
sI60
g1638
ssI13
(dp1808
I69
g1642
sI41
F1.585051353709713
sI76
F0.8334395474775967
sI45
F0.9708509768206148
sI16
F0.004638239025463287
sI20
F0.4049646118442455
sI53
F1.9029472563911796
sI54
F2.355922315142867
sI87
F0.0
sI59
g1645
sI60
g1648
ssI14
(dp1809
I3
g1667
sI14
g1670
ssI15
(dp1810
I3
F0.08612894848503705
sI69
g3
(g7
S'h\xd6\xa9`\x173\x0c@'
p1811
tp1812
Rp1813
sI41
F1.2707982425326922
sI76
F0.3433461189370883
sI45
F1.2696498369591076
sI16
F0.9595975175548943
sI20
F0.0
sI53
F1.9913695576635022
sI54
F1.8397887104801178
sI87
F0.09187298186082608
sI59
g3
(g7
S'\xc1\x9c_FfI\x01@'
p1814
tp1815
Rp1816
sI60
g3
(g7
S'\x94\x91?3\xb9*\x0b@'
p1817
tp1818
Rp1819
sssI66
(dp1820
I0
(dp1821
I48
F2.101626071106737
sI88
g1512
sI52
F0.9927508174858604
sI8
F3.2272398483452016
sI57
F1.1831804111011441
sI27
F0.0
sI60
F1.7437523683431302
ssI1
(dp1822
I32
F1.2201753820637675
sI16
g1516
sI34
F1.1697754648754906
sI71
g1519
sI88
g1522
sI79
F2.635108744186918
ssI2
(dp1823
I98
F2.6036484193286893
sI4
g1526
sI86
F1.5254584590661742
sI6
g1532
sI13
F0.0
sI21
F3.509887628623879
sI54
g1529
sI100
F0.21894191151485806
ssI3
(dp1824
I64
g1536
sI1
F2.051097018582753
sI83
F2.2095581789598477
sI99
F1.3468789809048662
sI4
F1.3112630336887472
sI72
g1539
sI77
F2.407460396561864
sI46
F0.0
sI50
F0.0
sI51
F1.521601590206599
sI23
F4.7651425380301475
sI56
g1542
sI60
F1.0847988782654425
sI61
F3.2956807456946056
sI94
F1.4507938487397571
ssI4
(dp1825
I69
g1546
sI41
F2.6940669004684805
sI76
F1.7708651928344725
sI16
F0.3365040940313817
sI20
F0.4821415129901811
sI53
F0.0
sI54
F4.65221095310884
sI87
F1.4732159899677275
sI59
g1549
sI60
g1552
ssI5
(dp1826
I13
g1556
sI6
g1559
sI21
F0.5971161970146859
ssI6
(dp1827
I66
g1563
sI67
g1566
sI37
F3.7469471732003234
ssI7
(dp1828
I11
g1570
sI13
F0.0
sI78
F0.7804872912287281
sI80
g1573
sI82
F3.341948151140233
sI23
F0.0
sI24
g1576
sI58
F0.0
sI30
F1.7288936760209814
ssI8
(dp1829
I69
g1580
sI76
F0.551895053334939
sI16
F0.7924300393463448
sI49
g1583
sI53
F0.3631009258434822
sI54
F0.0
sI87
F0.10746325058451932
sI59
g1586
sI60
g1589
ssI9
(dp1830
I69
g1737
sI39
F0.49143401898119643
sI41
F0.0
sI43
F1.5168025395199518
sI76
F1.1776881862692439
sI16
F0.0
sI49
g1740
sI53
F1.2658977245891596
sI54
F0.0
sI87
F0.9773090511782693
sI59
g1743
sI60
g1746
ssI10
(dp1831
I35
F1.5322119915123436
sI67
g1606
sI37
F2.1443704899312133
ssI11
(dp1832
I33
g1610
sI7
g1619
sI84
g1616
sI49
F0.0
sI63
g1613
ssI12
(dp1833
I97
g1623
sI34
F0.05648079876885337
sI35
g1626
sI40
F0.0
sI46
F0.0
sI16
g1629
sI20
g1632
sI87
g1635
sI91
F0.0
sI60
g1638
ssI13
(dp1834
I69
g1642
sI41
F1.585051353709713
sI76
F0.8334395474775967
sI45
F0.9708509768206148
sI16
F0.004638239025463287
sI20
F0.4049646118442455
sI53
F1.9029472563911796
sI54
F2.355922315142867
sI87
F0.0
sI59
g1645
sI60
g1648
ssI14
(dp1835
I3
g3
(g7
S'\xd6\xe9\n\x08q\x7f\xe5?'
p1836
tp1837
Rp1838
sI20
F0.5140557581461964
sI14
g3
(g7
S'\x92\x9e1o?\xf2\xe7?'
p1839
tp1840
Rp1841
sssI67
(dp1842
I0
(dp1843
I48
F2.101626071106737
sI88
g1512
sI52
F0.9927508174858604
sI8
F3.2272398483452016
sI57
F1.1831804111011441
sI27
F0.0
sI60
F1.7437523683431302
ssI1
(dp1844
I32
F1.2201753820637675
sI16
g1516
sI34
F1.1697754648754906
sI71
g1519
sI88
g1522
sI79
F2.635108744186918
ssI2
(dp1845
I98
F2.6036484193286893
sI4
g1526
sI86
F1.5254584590661742
sI6
g1532
sI13
F0.0
sI21
F3.509887628623879
sI54
g1529
sI100
F0.21894191151485806
ssI3
(dp1846
I64
g1536
sI1
F2.051097018582753
sI83
F2.2095581789598477
sI99
F1.3468789809048662
sI4
F1.3112630336887472
sI72
g1539
sI77
F2.407460396561864
sI46
F0.0
sI50
F0.0
sI51
F1.521601590206599
sI23
F4.7651425380301475
sI56
g1542
sI60
F1.0847988782654425
sI61
F3.2956807456946056
sI94
F1.4507938487397571
ssI4
(dp1847
I69
g1546
sI41
F2.6940669004684805
sI76
F1.7708651928344725
sI16
F0.3365040940313817
sI20
F0.4821415129901811
sI53
F0.0
sI54
F4.65221095310884
sI87
F1.4732159899677275
sI59
g1549
sI60
g1552
ssI5
(dp1848
I13
g1556
sI6
g1559
sI21
F0.5971161970146859
ssI6
(dp1849
I66
g1563
sI67
g1566
sI37
F3.7469471732003234
ssI7
(dp1850
I11
g1570
sI13
F0.0
sI78
F0.7804872912287281
sI80
g1573
sI82
F3.341948151140233
sI23
F0.0
sI24
g1576
sI58
F0.0
sI30
F1.7288936760209814
ssI8
(dp1851
I69
g1580
sI76
F0.551895053334939
sI16
F0.7924300393463448
sI49
g1583
sI53
F0.3631009258434822
sI54
F0.0
sI87
F0.10746325058451932
sI59
g1586
sI60
g1589
ssI9
(dp1852
I98
F0.33480352288661286
sI69
g3
(g7
S'0K\x8d\x89M\xb9\x01@'
p1853
tp1854
Rp1855
sI39
F1.5320844231272637
sI41
F0.08592175733534657
sI43
F1.8271365493362426
sI76
F2.553710539880137
sI16
F1.5405422907866175
sI49
g3
(g7
S'\xc3\x8d|\x1a\x86i\x11@'
p1856
tp1857
Rp1858
sI53
F1.581623459916843
sI54
F0.8836783997509695
sI87
F0.43840613619897095
sI59
g3
(g7
S'\x82u{`\xdb\x94\x07@'
p1859
tp1860
Rp1861
sI60
g3
(g7
S'W\xd1}k\xbe"\x04@'
p1862
tp1863
Rp1864
ssI10
(dp1865
I35
F1.5322119915123436
sI67
g1606
sI37
F2.1443704899312133
ssI11
(dp1866
I33
g1610
sI7
g1619
sI84
g1616
sI49
F0.0
sI63
g1613
ssI12
(dp1867
I97
g1623
sI34
F0.05648079876885337
sI35
g1626
sI40
F0.0
sI46
F0.0
sI16
g1629
sI20
g1632
sI87
g1635
sI91
F0.0
sI60
g1638
ssI13
(dp1868
I69
g1642
sI41
F1.585051353709713
sI76
F0.8334395474775967
sI45
F0.9708509768206148
sI16
F0.004638239025463287
sI20
F0.4049646118442455
sI53
F1.9029472563911796
sI54
F2.355922315142867
sI87
F0.0
sI59
g1645
sI60
g1648
ssI14
(dp1869
I3
g1667
sI14
g1670
sssI68
(dp1870
I0
(dp1871
I48
F2.101626071106737
sI8
F3.2272398483452016
sI52
F0.9927508174858604
sI88
g1512
sI57
F1.1831804111011441
sI27
F0.0
sI60
F1.7437523683431302
ssI1
(dp1872
I32
F1.2201753820637675
sI16
g1516
sI34
F1.1697754648754906
sI71
g1519
sI88
g1522
sI79
F2.635108744186918
ssI2
(dp1873
I98
F2.6036484193286893
sI4
g1526
sI54
g1529
sI6
g1532
sI13
F0.0
sI21
F3.509887628623879
sI86
F1.5254584590661742
sI100
F0.21894191151485806
ssI3
(dp1874
I64
g1536
sI1
F2.051097018582753
sI99
F1.3468789809048662
sI4
F1.3112630336887472
sI51
F1.521601590206599
sI72
g1539
sI77
F2.407460396561864
sI46
F0.0
sI50
F0.0
sI83
F2.2095581789598477
sI23
F4.7651425380301475
sI56
g1542
sI60
F1.0847988782654425
sI61
F3.2956807456946056
sI94
F1.4507938487397571
ssI4
(dp1875
I69
g1546
sI41
F2.6940669004684805
sI76
F1.7708651928344725
sI16
F0.3365040940313817
sI20
F0.4821415129901811
sI53
F0.0
sI54
F4.65221095310884
sI87
F1.4732159899677275
sI59
g1549
sI60
g1552
ssI5
(dp1876
I13
g1556
sI6
g1559
sI21
F0.5971161970146859
ssI6
(dp1877
I66
g1563
sI67
g1566
sI37
F3.7469471732003234
ssI7
(dp1878
I11
g1763
sI13
F0.0
sI78
F0.9746517190683208
sI80
g1766
sI82
F2.236100662614903
sI23
F0.0
sI24
g1769
sI58
F0.0
sI30
F4.683287026394648
ssI8
(dp1879
I69
g1580
sI76
F0.551895053334939
sI16
F0.7924300393463448
sI49
g1583
sI53
F0.3631009258434822
sI54
F0.0
sI87
F0.10746325058451932
sI59
g1586
sI60
g1589
ssI9
(dp1880
I69
g1737
sI39
F0.49143401898119643
sI41
F0.0
sI43
F1.5168025395199518
sI76
F1.1776881862692439
sI16
F0.0
sI49
g1740
sI53
F1.2658977245891596
sI54
F0.0
sI87
F0.9773090511782693
sI59
g1743
sI60
g1746
ssI10
(dp1881
I67
g1606
sI35
F1.5322119915123436
sI37
F2.1443704899312133
ssI11
(dp1882
I33
g1610
sI63
g1613
sI84
g1616
sI49
F0.0
sI7
g1619
ssI12
(dp1883
I97
g1623
sI34
F0.05648079876885337
sI35
g1626
sI40
F0.0
sI46
F0.0
sI16
g1629
sI20
g1632
sI87
g1635
sI91
F0.0
sI60
g1638
ssI13
(dp1884
I69
g1642
sI41
F1.585051353709713
sI76
F0.8334395474775967
sI45
F0.9708509768206148
sI16
F0.004638239025463287
sI20
F0.4049646118442455
sI53
F1.9029472563911796
sI54
F2.355922315142867
sI87
F0.0
sI59
g1645
sI60
g1648
ssI14
(dp1885
I3
g3
(g7
S'\x0e\x90\x13\xda>\xc2\xfb?'
p1886
tp1887
Rp1888
sI69
F0.3609545327551571
sI14
g3
(g7
S'\xbd#{\x13GJ\xd8?'
p1889
tp1890
Rp1891
sssI69
(dp1892
I0
(dp1893
I48
F2.101626071106737
sI8
F3.2272398483452016
sI52
F0.9927508174858604
sI88
g1512
sI57
F1.1831804111011441
sI27
F0.0
sI60
F1.7437523683431302
ssI1
(dp1894
I32
F1.2201753820637675
sI16
g1516
sI34
F1.1697754648754906
sI71
g1519
sI88
g1522
sI79
F2.635108744186918
ssI2
(dp1895
I98
F2.6036484193286893
sI4
g1526
sI54
g1529
sI6
g1532
sI13
F0.0
sI21
F3.509887628623879
sI86
F1.5254584590661742
sI100
F0.21894191151485806
ssI3
(dp1896
I64
g1536
sI1
F2.051097018582753
sI99
F1.3468789809048662
sI4
F1.3112630336887472
sI51
F1.521601590206599
sI72
g1539
sI77
F2.407460396561864
sI46
F0.0
sI50
F0.0
sI83
F2.2095581789598477
sI23
F4.7651425380301475
sI56
g1542
sI60
F1.0847988782654425
sI61
F3.2956807456946056
sI94
F1.4507938487397571
ssI4
(dp1897
I69
g1546
sI41
F2.6940669004684805
sI76
F1.7708651928344725
sI16
F0.3365040940313817
sI20
F0.4821415129901811
sI53
F0.0
sI54
F4.65221095310884
sI87
F1.4732159899677275
sI59
g1549
sI60
g1552
ssI5
(dp1898
I13
g1556
sI6
g1559
sI21
F0.5971161970146859
ssI6
(dp1899
I66
g1563
sI67
g1566
sI37
F3.7469471732003234
ssI7
(dp1900
I11
g1570
sI13
F0.0
sI78
F0.7804872912287281
sI80
g1573
sI82
F3.341948151140233
sI23
F0.0
sI24
g1576
sI58
F0.0
sI30
F1.7288936760209814
ssI8
(dp1901
I69
g1580
sI76
F0.551895053334939
sI16
F0.7924300393463448
sI49
g1583
sI53
F0.3631009258434822
sI54
F0.0
sI87
F0.10746325058451932
sI59
g1586
sI60
g1589
ssI9
(dp1902
I98
F0.33480352288661286
sI69
g1855
sI39
F1.5320844231272637
sI41
F0.08592175733534657
sI43
F1.8271365493362426
sI76
F2.553710539880137
sI16
F1.5405422907866175
sI49
g1858
sI53
F1.581623459916843
sI54
F0.8836783997509695
sI87
F0.43840613619897095
sI59
g1861
sI60
g1864
ssI10
(dp1903
I67
g1606
sI35
F1.5322119915123436
sI37
F2.1443704899312133
ssI11
(dp1904
I33
g1610
sI63
g1613
sI84
g1616
sI49
F0.0
sI7
g1619
ssI12
(dp1905
I97
g1623
sI34
F0.05648079876885337
sI35
g1626
sI40
F0.0
sI46
F0.0
sI16
g1629
sI20
g1632
sI87
g1635
sI91
F0.0
sI60
g1638
ssI13
(dp1906
I69
g1642
sI41
F1.585051353709713
sI76
F0.8334395474775967
sI45
F0.9708509768206148
sI16
F0.004638239025463287
sI20
F0.4049646118442455
sI53
F1.9029472563911796
sI54
F2.355922315142867
sI87
F0.0
sI59
g1645
sI60
g1648
ssI14
(dp1907
I3
g1667
sI14
g1670
ssI15
(dp1908
I29
g3
(g7
S'\xde|}\xa1\xe1Y\xe8?'
p1909
tp1910
Rp1911
sI30
g3
(g7
S'*i\xe4\xba\xbbv\xd1?'
p1912
tp1913
Rp1914
sssI70
(dp1915
I0
(dp1916
I48
F2.101626071106737
sI88
g1512
sI52
F0.9927508174858604
sI8
F3.2272398483452016
sI57
F1.1831804111011441
sI27
F0.0
sI60
F1.7437523683431302
ssI1
(dp1917
I32
F1.2201753820637675
sI16
g1516
sI34
F1.1697754648754906
sI71
g1519
sI88
g1522
sI79
F2.635108744186918
ssI2
(dp1918
I98
F2.6036484193286893
sI4
g1526
sI86
F1.5254584590661742
sI6
g1532
sI13
F0.0
sI21
F3.509887628623879
sI54
g1529
sI100
F0.21894191151485806
ssI3
(dp1919
I64
g1536
sI1
F2.051097018582753
sI83
F2.2095581789598477
sI99
F1.3468789809048662
sI4
F1.3112630336887472
sI72
g1539
sI77
F2.407460396561864
sI46
F0.0
sI50
F0.0
sI51
F1.521601590206599
sI23
F4.7651425380301475
sI56
g1542
sI60
F1.0847988782654425
sI61
F3.2956807456946056
sI94
F1.4507938487397571
ssI4
(dp1920
I69
g1546
sI41
F2.6940669004684805
sI76
F1.7708651928344725
sI16
F0.3365040940313817
sI20
F0.4821415129901811
sI53
F0.0
sI54
F4.65221095310884
sI87
F1.4732159899677275
sI59
g1549
sI60
g1552
ssI5
(dp1921
I13
g1556
sI6
g1559
sI21
F0.5971161970146859
ssI6
(dp1922
I66
g1563
sI67
g1566
sI37
F3.7469471732003234
ssI7
(dp1923
I11
g1570
sI13
F0.0
sI78
F0.7804872912287281
sI80
g1573
sI82
F3.341948151140233
sI23
F0.0
sI24
g1576
sI58
F0.0
sI30
F1.7288936760209814
ssI8
(dp1924
I69
g1580
sI76
F0.551895053334939
sI16
F0.7924300393463448
sI49
g1583
sI53
F0.3631009258434822
sI54
F0.0
sI87
F0.10746325058451932
sI59
g1586
sI60
g1589
ssI9
(dp1925
I98
F0.33480352288661286
sI69
g1855
sI39
F1.5320844231272637
sI41
F0.08592175733534657
sI43
F1.8271365493362426
sI76
F2.553710539880137
sI16
F1.5405422907866175
sI49
g1858
sI53
F1.581623459916843
sI54
F0.8836783997509695
sI87
F0.43840613619897095
sI59
g1861
sI60
g1864
ssI10
(dp1926
I35
F1.5322119915123436
sI67
g1606
sI37
F2.1443704899312133
ssI11
(dp1927
I33
g1610
sI7
g1619
sI84
g1616
sI49
F0.0
sI63
g1613
ssI12
(dp1928
I97
g1623
sI34
F0.05648079876885337
sI35
g1626
sI40
F0.0
sI46
F0.0
sI16
g1629
sI20
g1632
sI87
g1635
sI91
F0.0
sI60
g1638
ssI13
(dp1929
I69
g1642
sI41
F1.585051353709713
sI76
F0.8334395474775967
sI45
F0.9708509768206148
sI16
F0.004638239025463287
sI20
F0.4049646118442455
sI53
F1.9029472563911796
sI54
F2.355922315142867
sI87
F0.0
sI59
g1645
sI60
g1648
ssI14
(dp1930
I3
g1667
sI14
g1670
ssI15
(dp1931
I29
g3
(g7
S'b\x8a\xb7\x08\x16\xc2\xfc?'
p1932
tp1933
Rp1934
sI30
g3
(g7
S'\xd2\xc6\x9f\xad\xfb\xb4\x00@'
p1935
tp1936
Rp1937
sssI71
(dp1938
I0
(dp1939
I48
F2.101626071106737
sI88
g1512
sI52
F0.9927508174858604
sI8
F3.2272398483452016
sI57
F1.1831804111011441
sI27
F0.0
sI60
F1.7437523683431302
ssI1
(dp1940
I32
F1.2201753820637675
sI16
g1516
sI34
F1.1697754648754906
sI71
g1519
sI88
g1522
sI79
F2.635108744186918
ssI2
(dp1941
I98
F2.6036484193286893
sI4
g1526
sI86
F1.5254584590661742
sI6
g1532
sI13
F0.0
sI21
F3.509887628623879
sI54
g1529
sI100
F0.21894191151485806
ssI3
(dp1942
I64
g1536
sI1
F2.051097018582753
sI83
F2.2095581789598477
sI99
F1.3468789809048662
sI4
F1.3112630336887472
sI72
g1539
sI77
F2.407460396561864
sI46
F0.0
sI50
F0.0
sI51
F1.521601590206599
sI23
F4.7651425380301475
sI56
g1542
sI60
F1.0847988782654425
sI61
F3.2956807456946056
sI94
F1.4507938487397571
ssI4
(dp1943
I69
g1546
sI41
F2.6940669004684805
sI76
F1.7708651928344725
sI16
F0.3365040940313817
sI20
F0.4821415129901811
sI53
F0.0
sI54
F4.65221095310884
sI87
F1.4732159899677275
sI59
g1549
sI60
g1552
ssI5
(dp1944
I13
g1556
sI6
g1559
sI21
F0.5971161970146859
ssI6
(dp1945
I66
g1563
sI67
g1566
sI37
F3.7469471732003234
ssI7
(dp1946
I11
g1570
sI13
F0.0
sI78
F0.7804872912287281
sI80
g1573
sI82
F3.341948151140233
sI23
F0.0
sI24
g1576
sI58
F0.0
sI30
F1.7288936760209814
ssI8
(dp1947
I69
g1580
sI76
F0.551895053334939
sI16
F0.7924300393463448
sI49
g1583
sI53
F0.3631009258434822
sI54
F0.0
sI87
F0.10746325058451932
sI59
g1586
sI60
g1589
ssI9
(dp1948
I98
F0.33480352288661286
sI69
g1855
sI39
F1.5320844231272637
sI41
F0.08592175733534657
sI43
F1.8271365493362426
sI76
F2.553710539880137
sI16
F1.5405422907866175
sI49
g1858
sI53
F1.581623459916843
sI54
F0.8836783997509695
sI87
F0.43840613619897095
sI59
g1861
sI60
g1864
ssI10
(dp1949
I35
F1.5322119915123436
sI67
g1606
sI37
F2.1443704899312133
ssI11
(dp1950
I33
g1610
sI7
g1619
sI84
g1616
sI49
F0.0
sI63
g1613
ssI12
(dp1951
I97
g1623
sI34
F0.05648079876885337
sI35
g1626
sI40
F0.0
sI46
F0.0
sI16
g1629
sI20
g1632
sI87
g1635
sI91
F0.0
sI60
g1638
ssI13
(dp1952
I69
g3
(g7
S'\xa4\xd9\xc9Q\xcd\xe4\xfa?'
p1953
tp1954
Rp1955
sI41
F2.5123434850124244
sI76
F1.3035793275698757
sI45
F2.589355760605052
sI16
F0.0
sI20
F0.10305649398353078
sI53
F2.1329194702228373
sI54
F2.2526716047751796
sI87
F0.2592369849733617
sI60
g3
(g7
S'\x15\xba5\xa1\x1e\xe7\x12@'
p1956
tp1957
Rp1958
ssI14
(dp1959
I3
g1667
sI14
g1670
ssI15
(dp1960
I29
g1934
sI30
g1937
sssI72
(dp1961
I0
(dp1962
I48
F2.2817762430127178
sI8
F1.461600376268341
sI52
F0.0
sI88
g3
(g7
S'\xd2k\xfe\x89@T\x12@'
p1963
tp1964
Rp1965
sI57
F2.2866466417698077
sI27
F0.0
ssI1
(dp1966
I16
g3
(g7
S'\xea\x8e\xbe\x8b\xc1\xea\n@'
p1967
tp1968
Rp1969
sI88
g3
(g7
S'\x14]\x11\xbazB\xe9?'
p1970
tp1971
Rp1972
sI34
F1.7550389644828606
sI79
F2.281584284390117
sI71
g3
(g7
S'4\x99w\x19\x01\x86\x03@'
p1973
tp1974
Rp1975
ssI2
(dp1976
I98
F1.73486937494691
sI100
F1.3144410481252287
sI6
g3
(g7
S'\xe0(CDg\x97\x0b@'
p1977
tp1978
Rp1979
sI86
F2.4049169122145324
sI54
g3
(g7
S'\xe9\xf8\xd7\x1ehf\x06@'
p1980
tp1981
Rp1982
sI13
F0.0
sI21
F3.718999164620141
ssI3
(dp1983
I64
g3
(g7
S':\x0c\xec\xe4\xf3.\x14@'
p1984
tp1985
Rp1986
sI1
F1.5624880234264995
sI3
F0.37379439004733384
sI4
F1.2417433218681326
sI72
g3
(g7
S'\xac\xfc\xe0\xd3\x82\xd9\xf7?'
p1987
tp1988
Rp1989
sI77
F3.7661223862872832
sI83
F2.1231275386008392
sI23
F4.761652238082796
sI94
F1.751645659000412
sI99
F2.0754657894851958
sI46
F0.0
sI50
F0.8098355640187977
sI51
F1.0826133192946514
sI56
g3
(g7
S"'\x03\x1fZn\x8d\x1a@"
p1990
tp1991
Rp1992
sI60
F1.584904045062074
sI61
F1.8926576526189232
ssI4
(dp1993
I69
g3
(g7
S'.p(dT\xca\x05@'
p1994
tp1995
Rp1996
sI41
F2.699862312620658
sI76
F0.0
sI16
F0.164454924864709
sI20
F0.2066556820502406
sI53
F0.0
sI54
F4.949996275366139
sI87
F1.366311587844605
sI59
g3
(g7
S'\x89\xdb\xccm\xd4\x05\x06@'
p1997
tp1998
Rp1999
sI60
g3
(g7
S'C\x03l\x17\xd8\xc7\x13@'
p2000
tp2001
Rp2002
ssI5
(dp2003
I21
F0.027014767031658393
sI6
F0.0
ssI6
(dp2004
I66
g3
(g7
S'\xb0\x1e\xd2\xe8U\xb5\xb9?'
p2005
tp2006
Rp2007
sI67
g3
(g7
S'\x9c4\xc0\x8e9\xce\xdb?'
p2008
tp2009
Rp2010
sI37
F4.704298184449185
ssI7
(dp2011
I11
g3
(g7
S'6\xea\x0b\\@Z\x08@'
p2012
tp2013
Rp2014
sI13
F0.0
sI78
F1.3676898748650193
sI80
g3
(g7
S"X\x06\xee\xe5'\xaf\xf4?"
p2015
tp2016
Rp2017
sI82
F3.783227638249802
sI23
F1.1799900119680387
sI24
g3
(g7
S'\xa7\xd6\xffC\xb1A\x0b@'
p2018
tp2019
Rp2020
sI58
F0.0
sI30
F1.3044845059246168
ssI8
(dp2021
I69
g3
(g7
S"P\xf0'\x8aQ+\xdc?"
p2022
tp2023
Rp2024
sI42
F0.6937700379325732
sI76
F1.2546320071093375
sI16
F0.0
sI49
g3
(g7
S'\xa6\xdc*n\x11\xf5\x04@'
p2025
tp2026
Rp2027
sI53
F1.2697987278902199
sI54
F0.0
sI87
F0.0
sI59
g3
(g7
S'\xb4E\xafd\xbd\xd3\n@'
p2028
tp2029
Rp2030
sI60
g3
(g7
S'xvh\x98\xcb\xe6\x14@'
p2031
tp2032
Rp2033
ssI9
(dp2034
I69
g3
(g7
S'\xcc\xd8\x13\x98\xf6#\t@'
p2035
tp2036
Rp2037
sI39
F1.4970617634586234
sI41
F0.535278487985355
sI43
F2.4893897619003105
sI76
F0.0
sI77
F0.864514126151693
sI16
F0.0
sI49
g3
(g7
S'\xb2E\x1b*&G\x11@'
p2038
tp2039
Rp2040
sI53
F1.0804603834492432
sI54
F1.0441737578227543
sI87
F0.0
sI59
g3
(g7
S'pI\x8cE\xbfS\xfd?'
p2041
tp2042
Rp2043
sI60
g3
(g7
S'$\xf4;\xdb\xeb<\xdb?'
p2044
tp2045
Rp2046
ssI10
(dp2047
I67
g3
(g7
S'\x00\x1b\xb4\x86v\xdfn?'
p2048
tp2049
Rp2050
sI35
F1.3098385203681229
sI37
F2.0574368975867903
ssI11
(dp2051
I33
g3
(g7
S'\xfd\xee\xeb\n~\xed\x08@'
p2052
tp2053
Rp2054
sI84
g3
(g7
S':V\x00\xce\xb63\x05@'
p2055
tp2056
Rp2057
sI17
F0.9287668643155429
sI49
F0.0
sI7
g3
(g7
S"r'7\xe6\xb1\x8a\xf0?"
p2058
tp2059
Rp2060
sI63
g3
(g7
S'\x90P\xd0\xa0\xe91\xe0?'
p2061
tp2062
Rp2063
ssI12
(dp2064
I97
g3
(g7
S'\x03\x19>\xa0\xa6"\xfb?'
p2065
tp2066
Rp2067
sI34
F0.0
sI35
g3
(g7
S'C\xc8\xbc\x03\xa2\xb0\x0e@'
p2068
tp2069
Rp2070
sI4
F0.956154396785711
sI40
F0.0
sI46
F0.0
sI16
g3
(g7
S'\xe1T\x1c\xf1\xc7\xb5\n@'
p2071
tp2072
Rp2073
sI20
F0.0
sI87
F0.0
sI91
F0.6843198892388814
sI60
g3
(g7
S'\xc7\xca\x98;\xfet\t@'
p2074
tp2075
Rp2076
ssI13
(dp2077
I69
g3
(g7
S'\xe4h\x1ai\xef^\x00@'
p2078
tp2079
Rp2080
sI41
F0.21924152694087362
sI76
F0.8246272474496428
sI45
F1.9942988876399383
sI16
F0.0
sI20
F0.8810406741153771
sI53
F2.0792191126056903
sI54
F4.5810885339916885
sI87
F0.1580057737527924
sI59
g3
(g7
S'\xb0\\\xf7+ &\t@'
p2081
tp2082
Rp2083
sI60
g3
(g7
S'\xaa\\\xfa\xdb\x826\xee?'
p2084
tp2085
Rp2086
ssI14
(dp2087
I14
g3
(g7
S'\xeac<\xb8K\x92\xf0?'
p2088
tp2089
Rp2090
sssI73
(dp2091
I0
(dp2092
I8
F3.368160551015366
sI48
F1.9715901464407652
sI52
F0.0
sI21
F0.8836226176210592
sI88
g3
(g7
S'\xfc\xd7|y;\xd0\r@'
p2093
tp2094
Rp2095
sI57
F0.9621531214857824
sI27
F0.0
sI60
F1.5158781173137033
ssI1
(dp2096
I32
F1.3629344808724415
sI16
g3
(g7
S'%&\xd5\xde\x82\x03\xf5?'
p2097
tp2098
Rp2099
sI34
F1.5456442559863108
sI71
g3
(g7
S"'\xca\xb1\x12W4\x08@"
p2100
tp2101
Rp2102
sI88
g3
(g7
S'87"\x89A\x96\xbe?'
p2103
tp2104
Rp2105
sI9
F0.5161609557072572
sI79
F0.731644063180191
ssI2
(dp2106
I98
F2.268784182106082
sI4
g3
(g7
S'-\xcd\xc4[\xd5\x9f\x02@'
p2107
tp2108
Rp2109
sI86
F1.5997781098188326
sI6
g3
(g7
S'\x96\xe0vo\x81\xe8\x12@'
p2110
tp2111
Rp2112
sI100
F1.6427504448118224
sI13
F0.03253165010243628
sI21
F2.857383823058622
ssI3
(dp2113
I64
g3
(g7
S'z\x03\xb0\x94iV\x15@'
p2114
tp2115
Rp2116
sI1
F3.3260501038592216
sI4
F0.7352319341253805
sI70
F0.34728145304559765
sI72
g3
(g7
S'\xf6FdW\x02\xa3\x0e@'
p2117
tp2118
Rp2119
sI77
F2.643608880940569
sI83
F3.9776039569261066
sI23
F4.3600581017317195
sI94
F4.281628616593082
sI99
F0.2974337151626545
sI46
F1.596921699668303
sI50
F0.5343888746369617
sI51
F2.3594612999455356
sI56
g3
(g7
S'RD\xa2?\x11R\x1d@'
p2120
tp2121
Rp2122
sI60
F1.9505837196424904
sI61
F3.1953540091109915
ssI4
(dp2123
I69
g3
(g7
S'P\xe0Vj1\x97\t@'
p2124
tp2125
Rp2126
sI41
F0.2186866225202886
sI76
F3.8488654706406744
sI16
F1.3532026192759234
sI20
F0.0
sI53
F0.10151606436621313
sI54
F5.793128498449804
sI87
F2.1289473589864265
sI60
g3
(g7
S'\x90\x1aq\xd4\xf1\x97\x10@'
p2127
tp2128
Rp2129
ssI5
(dp2130
I13
g3
(g7
S'\x16\x89\x02g\x99\x82\x12@'
p2131
tp2132
Rp2133
sI6
g3
(g7
S'\x91&:2:I\xfa?'
p2134
tp2135
Rp2136
sI21
F1.3547801534231039
ssI6
(dp2137
I67
g3
(g7
S'\xf0&+\x88\xd9\xad\xb9?'
p2138
tp2139
Rp2140
sI37
F4.9928327647190756
ssI7
(dp2141
I11
g3
(g7
S'\xec\x007d\x13_\x06@'
p2142
tp2143
Rp2144
sI13
F0.0
sI78
F0.9694051622557537
sI80
g3
(g7
S'\xcf\xb5\xa6\xc5\xc7\x03\x12@'
p2145
tp2146
Rp2147
sI82
F3.997378219518093
sI23
F0.0
sI24
g3
(g7
S'\r\xcf\xea*\xde\xcb\x03@'
p2148
tp2149
Rp2150
sI58
F0.564202351841371
sI30
F5.706486420155789
ssI8
(dp2151
I69
g3
(g7
S'J\xd8\xc3\xfam\x83\xf9?'
p2152
tp2153
Rp2154
sI76
F0.0874892616681065
sI16
F1.4911925782028215
sI49
g3
(g7
S'\xad\x05\xb3H:\xd1\xe6?'
p2155
tp2156
Rp2157
sI53
F1.702259808758512
sI54
F0.0
sI87
F0.0
sI59
g3
(g7
S'o\xccY\xe1P\xb3\x10@'
p2158
tp2159
Rp2160
sI60
g3
(g7
S'j\xfa\x0cV1\xf5\x15@'
p2161
tp2162
Rp2163
ssI9
(dp2164
I69
g3
(g7
S'\xb9cd\x04\x8b\xaa\x04@'
p2165
tp2166
Rp2167
sI39
F1.9205664761071275
sI41
F0.0
sI43
F3.114569795894531
sI76
F1.2378144467869256
sI16
F0.0
sI49
g3
(g7
S'Ac\x0c\x07\xdf\xe6\x13@'
p2168
tp2169
Rp2170
sI53
F2.0405909616974354
sI54
F0.0
sI87
F1.5436731139654851
sI25
F0.17425294479001063
sI59
g3
(g7
S'\xa7\x1dnDcs\x07@'
p2171
tp2172
Rp2173
sI60
g3
(g7
S'\xda(\x8d\xe9\xacX\xf3?'
p2174
tp2175
Rp2176
ssI10
(dp2177
I35
F1.4091942281657959
sI67
g3
(g7
S'\x14\xef4\x8b\xc1\xc6\xfb?'
p2178
tp2179
Rp2180
sI37
F2.353176730338344
sI79
F0.5098358193628582
ssI11
(dp2181
I33
g3
(g7
S'\xfd\x06\xe2\x7f\x1c\xc4\t@'
p2182
tp2183
Rp2184
sI7
g3
(g7
S'p0A\x15\x15y\x10@'
p2185
tp2186
Rp2187
sI84
g3
(g7
S'x:\x0c\x8aU\n\x05@'
p2188
tp2189
Rp2190
sI49
F0.0
sI63
g3
(g7
S'\x8b\x8a\xad\x81\xdeq\xe5?'
p2191
tp2192
Rp2193
ssI12
(dp2194
I97
g3
(g7
S'\xc7\xdf$\xb1\xec\xa8\xfb?'
p2195
tp2196
Rp2197
sI34
F0.7473802234348568
sI35
g3
(g7
S'\xf6\x9co\xf7e\xc0\x11@'
p2198
tp2199
Rp2200
sI40
F0.0
sI46
F0.0
sI16
g3
(g7
S'v!2\xea\xab\xa3\xea?'
p2201
tp2202
Rp2203
sI20
g3
(g7
S'e\x8d.o5\xe7\xf7?'
p2204
tp2205
Rp2206
sI91
F0.5303329617013768
sI60
F0.0
ssI13
(dp2207
I69
g3
(g7
S'\xde\x14_I\xf8n\x00@'
p2208
tp2209
Rp2210
sI41
F3.4499567294998403
sI76
F0.0
sI45
F0.7003127882880129
sI16
F2.0167130897946195
sI20
F0.0
sI53
F1.3374445530047951
sI54
F3.4626924193636395
sI87
F0.0
sI59
g3
(g7
S'\xd3c\xc9\xaa\xf4\xf5\xf4?'
p2211
tp2212
Rp2213
sI60
g3
(g7
S'\xb0\xf4\xc2\x19\r\xcd\xe2?'
p2214
tp2215
Rp2216
ssI14
(dp2217
I88
F0.755907483311328
sI3
g3
(g7
S'f\xf4t\xd9,\x86\xf6?'
p2218
tp2219
Rp2220
sI14
g3
(g7
S'4\xfel\x9b\x1c\xa3\xc8?'
p2221
tp2222
Rp2223
ssI15
(dp2224
I3
F0.699339099499554
sI69
g3
(g7
S'\x9fy\x94\xaeb\xb1\xf8?'
p2225
tp2226
Rp2227
sI41
F0.7331752481078475
sI76
F0.0
sI45
F0.6592639513195933
sI16
F0.16356280850476979
sI20
F1.6883367409049064
sI53
F2.071061819563048
sI54
F0.42796368159209264
sI87
F0.2463446671590961
sI59
g3
(g7
S'\xe4N9;t\x9b\xe8?'
p2228
tp2229
Rp2230
sI60
g3
(g7
S'@\x14.\x1d\xf6\xd3\x03@'
p2231
tp2232
Rp2233
sssI74
(dp2234
I0
(dp2235
I48
F2.101626071106737
sI8
F3.2272398483452016
sI52
F0.9927508174858604
sI88
g1512
sI57
F1.1831804111011441
sI27
F0.0
sI60
F1.7437523683431302
ssI1
(dp2236
I32
F1.2201753820637675
sI16
g1516
sI34
F1.1697754648754906
sI71
g1519
sI88
g1522
sI79
F2.635108744186918
ssI2
(dp2237
I98
F2.6036484193286893
sI4
g1526
sI54
g1529
sI6
g1532
sI13
F0.0
sI21
F3.509887628623879
sI86
F1.5254584590661742
sI100
F0.21894191151485806
ssI3
(dp2238
I64
g1536
sI1
F2.051097018582753
sI99
F1.3468789809048662
sI4
F1.3112630336887472
sI51
F1.521601590206599
sI72
g1539
sI77
F2.407460396561864
sI46
F0.0
sI50
F0.0
sI83
F2.2095581789598477
sI23
F4.7651425380301475
sI56
g1542
sI60
F1.0847988782654425
sI61
F3.2956807456946056
sI94
F1.4507938487397571
ssI4
(dp2239
I69
g1546
sI41
F2.6940669004684805
sI76
F1.7708651928344725
sI16
F0.3365040940313817
sI20
F0.4821415129901811
sI53
F0.0
sI54
F4.65221095310884
sI87
F1.4732159899677275
sI59
g1549
sI60
g1552
ssI5
(dp2240
I13
g1556
sI6
g1559
sI21
F0.5971161970146859
ssI6
(dp2241
I66
g1563
sI67
g1566
sI37
F3.7469471732003234
ssI7
(dp2242
I2
F0.0976179322982057
sI11
g3
(g7
S'\x96\xb3\xc7bY\xc7\x07@'
p2243
tp2244
Rp2245
sI13
F0.23500353302155289
sI78
F1.3869776465875923
sI80
g3
(g7
S'\xac\xb8\x02^\xb0\x1c\xfd?'
p2246
tp2247
Rp2248
sI82
F4.874308697687177
sI23
F0.7085593624066816
sI24
g3
(g7
S'\x00;\x87\xd6\x97\x11\x14@'
p2249
tp2250
Rp2251
sI58
F0.0
sI30
F1.3543935510580125
ssI8
(dp2252
I69
g1580
sI76
F0.551895053334939
sI16
F0.7924300393463448
sI49
g1583
sI53
F0.3631009258434822
sI54
F0.0
sI87
F0.10746325058451932
sI59
g1586
sI60
g1589
ssI9
(dp2253
I98
F0.33480352288661286
sI69
g1855
sI39
F1.5320844231272637
sI41
F0.08592175733534657
sI43
F1.8271365493362426
sI76
F2.553710539880137
sI16
F1.5405422907866175
sI49
g1858
sI53
F1.581623459916843
sI54
F0.8836783997509695
sI87
F0.43840613619897095
sI59
g1861
sI60
g1864
ssI10
(dp2254
I67
g1606
sI35
F1.5322119915123436
sI37
F2.1443704899312133
ssI11
(dp2255
I33
g1610
sI63
g1613
sI84
g1616
sI49
F0.0
sI7
g1619
ssI12
(dp2256
I97
g1623
sI34
F0.05648079876885337
sI35
g1626
sI40
F0.0
sI46
F0.0
sI16
g1629
sI20
g1632
sI87
g1635
sI91
F0.0
sI60
g1638
ssI13
(dp2257
I69
g1642
sI41
F1.585051353709713
sI76
F0.8334395474775967
sI45
F0.9708509768206148
sI16
F0.004638239025463287
sI20
F0.4049646118442455
sI53
F1.9029472563911796
sI54
F2.355922315142867
sI87
F0.0
sI59
g1645
sI60
g1648
ssI14
(dp2258
I3
g1667
sI14
g1670
ssI15
(dp2259
I29
g1934
sI30
g1937
ssI16
(dp2260
I3
g1667
sI14
g1670
sssI75
(dp2261
I0
(dp2262
I48
F2.101626071106737
sI88
g1512
sI52
F0.9927508174858604
sI8
F3.2272398483452016
sI57
F1.1831804111011441
sI27
F0.0
sI60
F1.7437523683431302
ssI1
(dp2263
I32
F1.2201753820637675
sI16
g1516
sI34
F1.1697754648754906
sI71
g1519
sI88
g1522
sI79
F2.635108744186918
ssI2
(dp2264
I98
F2.6036484193286893
sI4
g1526
sI86
F1.5254584590661742
sI6
g1532
sI13
F0.0
sI21
F3.509887628623879
sI54
g1529
sI100
F0.21894191151485806
ssI3
(dp2265
I64
g1536
sI1
F2.051097018582753
sI83
F2.2095581789598477
sI99
F1.3468789809048662
sI4
F1.3112630336887472
sI72
g1539
sI77
F2.407460396561864
sI46
F0.0
sI50
F0.0
sI51
F1.521601590206599
sI23
F4.7651425380301475
sI56
g1542
sI60
F1.0847988782654425
sI61
F3.2956807456946056
sI94
F1.4507938487397571
ssI4
(dp2266
I69
g1546
sI41
F2.6940669004684805
sI76
F1.7708651928344725
sI16
F0.3365040940313817
sI20
F0.4821415129901811
sI53
F0.0
sI54
F4.65221095310884
sI87
F1.4732159899677275
sI59
g1549
sI60
g1552
ssI5
(dp2267
I13
g1556
sI6
g1559
sI21
F0.5971161970146859
ssI6
(dp2268
I66
g1563
sI67
g1566
sI37
F3.7469471732003234
ssI7
(dp2269
I2
F0.0976179322982057
sI11
g2245
sI13
F0.23500353302155289
sI78
F1.3869776465875923
sI80
g2248
sI82
F4.874308697687177
sI23
F0.7085593624066816
sI24
g2251
sI58
F0.0
sI30
F1.3543935510580125
ssI8
(dp2270
I69
g1580
sI76
F0.551895053334939
sI16
F0.7924300393463448
sI49
g1583
sI53
F0.3631009258434822
sI54
F0.0
sI87
F0.10746325058451932
sI59
g1586
sI60
g1589
ssI9
(dp2271
I98
F0.33480352288661286
sI69
g1855
sI39
F1.5320844231272637
sI41
F0.08592175733534657
sI43
F1.8271365493362426
sI76
F2.553710539880137
sI16
F1.5405422907866175
sI49
g1858
sI53
F1.581623459916843
sI54
F0.8836783997509695
sI87
F0.43840613619897095
sI59
g1861
sI60
g1864
ssI10
(dp2272
I35
F1.5322119915123436
sI67
g1606
sI37
F2.1443704899312133
ssI11
(dp2273
I33
g1610
sI7
g1619
sI84
g1616
sI49
F0.0
sI63
g1613
ssI12
(dp2274
I97
g1623
sI34
F0.05648079876885337
sI35
g1626
sI40
F0.0
sI46
F0.0
sI16
g1629
sI20
g1632
sI87
g1635
sI91
F0.0
sI60
g1638
ssI13
(dp2275
I69
g1642
sI41
F1.585051353709713
sI76
F0.8334395474775967
sI45
F0.9708509768206148
sI16
F0.004638239025463287
sI20
F0.4049646118442455
sI53
F1.9029472563911796
sI54
F2.355922315142867
sI87
F0.0
sI59
g1645
sI60
g1648
ssI14
(dp2276
I3
g3
(g7
S'\x0b\xdar\x00\xb6\xa8\xe5?'
p2277
tp2278
Rp2279
sI14
F0.0
ssI15
(dp2280
I29
g1934
sI30
g1937
ssI16
(dp2281
I3
g1667
sI14
g1670
sssI76
(dp2282
I0
(dp2283
I48
F2.101626071106737
sI8
F3.2272398483452016
sI52
F0.9927508174858604
sI88
g1512
sI57
F1.1831804111011441
sI27
F0.0
sI60
F1.7437523683431302
ssI1
(dp2284
I32
F1.2201753820637675
sI16
g1516
sI34
F1.1697754648754906
sI71
g1519
sI88
g1522
sI79
F2.635108744186918
ssI2
(dp2285
I98
F2.6036484193286893
sI4
g1526
sI54
g1529
sI6
g1532
sI13
F0.0
sI21
F3.509887628623879
sI86
F1.5254584590661742
sI100
F0.21894191151485806
ssI3
(dp2286
I64
g1536
sI1
F2.051097018582753
sI99
F1.3468789809048662
sI4
F1.3112630336887472
sI51
F1.521601590206599
sI72
g1539
sI77
F2.407460396561864
sI46
F0.0
sI50
F0.0
sI83
F2.2095581789598477
sI23
F4.7651425380301475
sI56
g1542
sI60
F1.0847988782654425
sI61
F3.2956807456946056
sI94
F1.4507938487397571
ssI4
(dp2287
I69
g1546
sI41
F2.6940669004684805
sI76
F1.7708651928344725
sI16
F0.3365040940313817
sI20
F0.4821415129901811
sI53
F0.0
sI54
F4.65221095310884
sI87
F1.4732159899677275
sI59
g1549
sI60
g1552
ssI5
(dp2288
I13
g1556
sI6
g1559
sI21
F0.5971161970146859
ssI6
(dp2289
I66
g1563
sI67
g1566
sI37
F3.7469471732003234
ssI7
(dp2290
I2
F0.0976179322982057
sI11
g2245
sI13
F0.23500353302155289
sI78
F1.3869776465875923
sI80
g2248
sI82
F4.874308697687177
sI23
F0.7085593624066816
sI24
g2251
sI58
F0.0
sI30
F1.3543935510580125
ssI8
(dp2291
I69
g1580
sI76
F0.551895053334939
sI16
F0.7924300393463448
sI49
g1583
sI53
F0.3631009258434822
sI54
F0.0
sI87
F0.10746325058451932
sI59
g1586
sI60
g1589
ssI9
(dp2292
I98
F0.33480352288661286
sI69
g1855
sI39
F1.5320844231272637
sI41
F0.08592175733534657
sI43
F1.8271365493362426
sI76
F2.553710539880137
sI16
F1.5405422907866175
sI49
g1858
sI53
F1.581623459916843
sI54
F0.8836783997509695
sI87
F0.43840613619897095
sI59
g1861
sI60
g1864
ssI10
(dp2293
I67
g1606
sI35
F1.5322119915123436
sI37
F2.1443704899312133
ssI11
(dp2294
I33
g1610
sI63
g1613
sI84
g1616
sI49
F0.0
sI7
g1619
ssI12
(dp2295
I97
g1623
sI34
F0.05648079876885337
sI35
g1626
sI40
F0.0
sI46
F0.0
sI16
g1629
sI20
g1632
sI87
g1635
sI91
F0.0
sI60
g1638
ssI13
(dp2296
I69
g1642
sI41
F1.585051353709713
sI76
F0.8334395474775967
sI45
F0.9708509768206148
sI16
F0.004638239025463287
sI20
F0.4049646118442455
sI53
F1.9029472563911796
sI54
F2.355922315142867
sI87
F0.0
sI59
g1645
sI60
g1648
ssI14
(dp2297
I3
g3
(g7
S'\xdd\xc8\xdcn\xea(\xf3?'
p2298
tp2299
Rp2300
sI14
F0.0
ssI15
(dp2301
I29
g1934
sI30
g1937
ssI16
(dp2302
I3
g1667
sI14
g1670
sssI77
(dp2303
I0
(dp2304
I48
F2.2817762430127178
sI88
g1965
sI52
F0.0
sI8
F1.461600376268341
sI57
F2.2866466417698077
sI27
F0.0
ssI1
(dp2305
I16
g1969
sI88
g1972
sI34
F1.7550389644828606
sI71
g1975
sI79
F2.281584284390117
ssI2
(dp2306
I98
F1.73486937494691
sI100
F1.3144410481252287
sI86
F2.4049169122145324
sI6
g1979
sI54
g1982
sI13
F0.0
sI21
F3.718999164620141
ssI3
(dp2307
I64
g1986
sI1
F1.5624880234264995
sI3
F0.37379439004733384
sI4
F1.2417433218681326
sI72
g1989
sI77
F3.7661223862872832
sI83
F2.1231275386008392
sI23
F4.761652238082796
sI94
F1.751645659000412
sI99
F2.0754657894851958
sI46
F0.0
sI50
F0.8098355640187977
sI51
F1.0826133192946514
sI56
g1992
sI60
F1.584904045062074
sI61
F1.8926576526189232
ssI4
(dp2308
I69
g1996
sI41
F2.699862312620658
sI76
F0.0
sI16
F0.164454924864709
sI20
F0.2066556820502406
sI53
F0.0
sI54
F4.949996275366139
sI87
F1.366311587844605
sI59
g1999
sI60
g2002
ssI5
(dp2309
I21
F0.027014767031658393
sI6
F0.0
ssI6
(dp2310
I66
g2007
sI67
g2010
sI37
F4.704298184449185
ssI7
(dp2311
I11
g2014
sI13
F0.0
sI78
F1.3676898748650193
sI80
g2017
sI82
F3.783227638249802
sI23
F1.1799900119680387
sI24
g2020
sI58
F0.0
sI30
F1.3044845059246168
ssI8
(dp2312
I69
g2024
sI42
F0.6937700379325732
sI76
F1.2546320071093375
sI16
F0.0
sI49
g2027
sI53
F1.2697987278902199
sI54
F0.0
sI87
F0.0
sI59
g2030
sI60
g2033
ssI9
(dp2313
I69
g2037
sI39
F1.4970617634586234
sI41
F0.535278487985355
sI43
F2.4893897619003105
sI76
F0.0
sI77
F0.864514126151693
sI16
F0.0
sI49
g2040
sI53
F1.0804603834492432
sI54
F1.0441737578227543
sI87
F0.0
sI59
g2043
sI60
g2046
ssI10
(dp2314
I35
F1.3098385203681229
sI67
g2050
sI37
F2.0574368975867903
ssI11
(dp2315
I33
g2054
sI84
g2057
sI49
F0.0
sI17
F0.9287668643155429
sI7
g2060
sI63
g2063
ssI12
(dp2316
I97
g2067
sI34
F0.0
sI35
g2070
sI4
F0.956154396785711
sI40
F0.0
sI46
F0.0
sI16
g2073
sI20
F0.0
sI87
F0.0
sI91
F0.6843198892388814
sI60
g2076
ssI13
(dp2317
I69
g2080
sI41
F0.21924152694087362
sI76
F0.8246272474496428
sI45
F1.9942988876399383
sI16
F0.0
sI20
F0.8810406741153771
sI53
F2.0792191126056903
sI54
F4.5810885339916885
sI87
F0.1580057737527924
sI59
g2083
sI60
g2086
ssI14
(dp2318
I14
g2090
ssI15
(dp2319
I39
g3
(g7
S'\xa6\xef\xf4 \x16V\xea?'
p2320
tp2321
Rp2322
sI43
g3
(g7
S'x\xfa\x0cA\x04\xa4\xdc?'
p2323
tp2324
Rp2325
sI44
g3
(g7
S'\x05\x83\xa5\xd2\xb5\n\xee?'
p2326
tp2327
Rp2328
sI29
g3
(g7
S'\x04\xb5\x95E#\x18\xee?'
p2329
tp2330
Rp2331
sI57
g3
(g7
S'\xc8\x874\x82.\r\xd5?'
p2332
tp2333
Rp2334
sI61
g3
(g7
S'$\xbb)3\xea\xe8\xd7?'
p2335
tp2336
Rp2337
sssI78
(dp2338
I0
(dp2339
I48
F2.2817762430127178
sI88
g1965
sI52
F0.0
sI8
F1.461600376268341
sI57
F2.2866466417698077
sI27
F0.0
ssI1
(dp2340
I16
g1969
sI88
g1972
sI34
F1.7550389644828606
sI71
g1975
sI79
F2.281584284390117
ssI2
(dp2341
I98
F1.73486937494691
sI100
F1.3144410481252287
sI86
F2.4049169122145324
sI6
g1979
sI54
g1982
sI13
F0.0
sI21
F3.718999164620141
ssI3
(dp2342
I64
g1986
sI1
F1.5624880234264995
sI3
F0.37379439004733384
sI4
F1.2417433218681326
sI72
g1989
sI77
F3.7661223862872832
sI83
F2.1231275386008392
sI23
F4.761652238082796
sI94
F1.751645659000412
sI99
F2.0754657894851958
sI46
F0.0
sI50
F0.8098355640187977
sI51
F1.0826133192946514
sI56
g1992
sI60
F1.584904045062074
sI61
F1.8926576526189232
ssI4
(dp2343
I69
g1996
sI41
F2.699862312620658
sI76
F0.0
sI16
F0.164454924864709
sI20
F0.2066556820502406
sI53
F0.0
sI54
F4.949996275366139
sI87
F1.366311587844605
sI59
g1999
sI60
g2002
ssI5
(dp2344
I21
F0.027014767031658393
sI6
F0.0
ssI6
(dp2345
I66
g2007
sI67
g2010
sI37
F4.704298184449185
ssI7
(dp2346
I11
g2014
sI13
F0.0
sI78
F1.3676898748650193
sI80
g2017
sI82
F3.783227638249802
sI23
F1.1799900119680387
sI24
g2020
sI58
F0.0
sI30
F1.3044845059246168
ssI8
(dp2347
I69
g2024
sI42
F0.6937700379325732
sI76
F1.2546320071093375
sI16
F0.0
sI49
g2027
sI53
F1.2697987278902199
sI54
F0.0
sI87
F0.0
sI59
g2030
sI60
g2033
ssI9
(dp2348
I69
g2037
sI39
F1.4970617634586234
sI41
F0.535278487985355
sI43
F2.4893897619003105
sI76
F0.0
sI77
F0.864514126151693
sI16
F0.0
sI49
g2040
sI53
F1.0804603834492432
sI54
F1.0441737578227543
sI87
F0.0
sI59
g2043
sI60
g2046
ssI10
(dp2349
I35
F1.3098385203681229
sI67
g2050
sI37
F2.0574368975867903
ssI11
(dp2350
I33
g2054
sI84
g2057
sI49
F0.0
sI17
F0.9287668643155429
sI7
g2060
sI63
g2063
ssI12
(dp2351
I97
g3
(g7
S'cR\x9e\xb9Z)\x00@'
p2352
tp2353
Rp2354
sI34
F1.4057393379717538
sI35
g3
(g7
S'\xf3\xbe\x97P\xd9\xdb\x06@'
p2355
tp2356
Rp2357
sI4
F1.8444586550953215
sI40
F0.5917665319213885
sI9
F0.973120443467062
sI46
F0.740106315980149
sI16
g3
(g7
S'w\xbbyO,\xcf\x10@'
p2358
tp2359
Rp2360
sI20
F0.0
sI87
F0.0
sI91
F1.5449358383508045
sI60
g3
(g7
S'k\xbf\xbd\x11u"\xfa?'
p2361
tp2362
Rp2363
ssI13
(dp2364
I69
g2080
sI41
F0.21924152694087362
sI76
F0.8246272474496428
sI45
F1.9942988876399383
sI16
F0.0
sI20
F0.8810406741153771
sI53
F2.0792191126056903
sI54
F4.5810885339916885
sI87
F0.1580057737527924
sI59
g2083
sI60
g2086
ssI14
(dp2365
I14
g2090
ssI15
(dp2366
I39
g2322
sI57
g2334
sI43
g2325
sI44
g2328
sI29
g2331
sI61
g2337
sssI79
(dp2367
I0
(dp2368
I48
F2.2817762430127178
sI8
F1.461600376268341
sI52
F0.0
sI88
g1965
sI57
F2.2866466417698077
sI27
F0.0
ssI1
(dp2369
I16
g1969
sI88
g1972
sI34
F1.7550389644828606
sI79
F2.281584284390117
sI71
g1975
ssI2
(dp2370
I98
F1.73486937494691
sI100
F1.3144410481252287
sI6
g1979
sI86
F2.4049169122145324
sI54
g1982
sI13
F0.0
sI21
F3.718999164620141
ssI3
(dp2371
I64
g1986
sI1
F1.5624880234264995
sI3
F0.37379439004733384
sI4
F1.2417433218681326
sI72
g1989
sI77
F3.7661223862872832
sI83
F2.1231275386008392
sI23
F4.761652238082796
sI94
F1.751645659000412
sI99
F2.0754657894851958
sI46
F0.0
sI50
F0.8098355640187977
sI51
F1.0826133192946514
sI56
g1992
sI60
F1.584904045062074
sI61
F1.8926576526189232
ssI4
(dp2372
I69
g1996
sI41
F2.699862312620658
sI76
F0.0
sI16
F0.164454924864709
sI20
F0.2066556820502406
sI53
F0.0
sI54
F4.949996275366139
sI87
F1.366311587844605
sI59
g1999
sI60
g2002
ssI5
(dp2373
I21
F0.027014767031658393
sI6
F0.0
ssI6
(dp2374
I66
g2007
sI67
g2010
sI37
F4.704298184449185
ssI7
(dp2375
I11
g2014
sI13
F0.0
sI78
F1.3676898748650193
sI80
g2017
sI82
F3.783227638249802
sI23
F1.1799900119680387
sI24
g2020
sI58
F0.0
sI30
F1.3044845059246168
ssI8
(dp2376
I69
g2024
sI42
F0.6937700379325732
sI76
F1.2546320071093375
sI16
F0.0
sI49
g2027
sI53
F1.2697987278902199
sI54
F0.0
sI87
F0.0
sI59
g2030
sI60
g2033
ssI9
(dp2377
I69
g2037
sI39
F1.4970617634586234
sI41
F0.535278487985355
sI43
F2.4893897619003105
sI76
F0.0
sI77
F0.864514126151693
sI16
F0.0
sI49
g2040
sI53
F1.0804603834492432
sI54
F1.0441737578227543
sI87
F0.0
sI59
g2043
sI60
g2046
ssI10
(dp2378
I67
g2050
sI35
F1.3098385203681229
sI37
F2.0574368975867903
ssI11
(dp2379
I33
g2054
sI84
g2057
sI17
F0.9287668643155429
sI49
F0.0
sI7
g2060
sI63
g2063
ssI12
(dp2380
I97
g2354
sI34
F1.4057393379717538
sI35
g2357
sI4
F1.8444586550953215
sI40
F0.5917665319213885
sI9
F0.973120443467062
sI46
F0.740106315980149
sI16
g2360
sI20
F0.0
sI87
F0.0
sI91
F1.5449358383508045
sI60
g2363
ssI13
(dp2381
I69
g2080
sI41
F0.21924152694087362
sI76
F0.8246272474496428
sI45
F1.9942988876399383
sI16
F0.0
sI20
F0.8810406741153771
sI53
F2.0792191126056903
sI54
F4.5810885339916885
sI87
F0.1580057737527924
sI59
g2083
sI60
g2086
ssI14
(dp2382
I14
g2090
ssI15
(dp2383
I39
g2322
sI57
g2334
sI43
g2325
sI44
g2328
sI29
g2331
sI61
g2337
ssI16
(dp2384
I64
g3
(g7
S'\xd0\xe5\x97\xc8\xb7\x93\xcf?'
p2385
tp2386
Rp2387
sI19
g3
(g7
S'\x04\xdc\x8bg\xe0\xe7\xdf?'
p2388
tp2389
Rp2390
sI66
g3
(g7
S'\xd0F\xe6\xb9W\xea\xd0?'
p2391
tp2392
Rp2393
sI78
g3
(g7
S'\xa8\xb1\x9e%cc\xe1?'
p2394
tp2395
Rp2396
sI51
g3
(g7
S'\xde[\xe7\xbez\x91\xea?'
p2397
tp2398
Rp2399
sI29
g3
(g7
S'\x8c5w%\x99b\xda?'
p2400
tp2401
Rp2402
sssI80
(dp2403
I0
(dp2404
I48
F2.2817762430127178
sI88
g1965
sI52
F0.0
sI8
F1.461600376268341
sI57
F2.2866466417698077
sI27
F0.0
ssI1
(dp2405
I16
g1969
sI88
g1972
sI34
F1.7550389644828606
sI71
g1975
sI79
F2.281584284390117
ssI2
(dp2406
I98
F1.73486937494691
sI100
F1.3144410481252287
sI86
F2.4049169122145324
sI6
g1979
sI54
g1982
sI13
F0.0
sI21
F3.718999164620141
ssI3
(dp2407
I64
g1986
sI1
F1.5624880234264995
sI3
F0.37379439004733384
sI4
F1.2417433218681326
sI72
g1989
sI77
F3.7661223862872832
sI83
F2.1231275386008392
sI23
F4.761652238082796
sI94
F1.751645659000412
sI99
F2.0754657894851958
sI46
F0.0
sI50
F0.8098355640187977
sI51
F1.0826133192946514
sI56
g1992
sI60
F1.584904045062074
sI61
F1.8926576526189232
ssI4
(dp2408
I69
g1996
sI41
F2.699862312620658
sI76
F0.0
sI16
F0.164454924864709
sI20
F0.2066556820502406
sI53
F0.0
sI54
F4.949996275366139
sI87
F1.366311587844605
sI59
g1999
sI60
g2002
ssI5
(dp2409
I21
F0.027014767031658393
sI6
F0.0
ssI6
(dp2410
I66
g2007
sI67
g2010
sI37
F4.704298184449185
ssI7
(dp2411
I11
g2014
sI13
F0.0
sI78
F1.3676898748650193
sI80
g2017
sI82
F3.783227638249802
sI23
F1.1799900119680387
sI24
g2020
sI58
F0.0
sI30
F1.3044845059246168
ssI8
(dp2412
I69
g2024
sI42
F0.6937700379325732
sI76
F1.2546320071093375
sI16
F0.0
sI49
g2027
sI53
F1.2697987278902199
sI54
F0.0
sI87
F0.0
sI59
g2030
sI60
g2033
ssI9
(dp2413
I69
g2037
sI39
F1.4970617634586234
sI41
F0.535278487985355
sI43
F2.4893897619003105
sI76
F0.0
sI77
F0.864514126151693
sI16
F0.0
sI49
g2040
sI53
F1.0804603834492432
sI54
F1.0441737578227543
sI87
F0.0
sI59
g2043
sI60
g2046
ssI10
(dp2414
I35
F1.3098385203681229
sI67
g2050
sI37
F2.0574368975867903
ssI11
(dp2415
I33
g2054
sI84
g2057
sI49
F0.0
sI17
F0.9287668643155429
sI7
g2060
sI63
g2063
ssI12
(dp2416
I97
g3
(g7
S'\xe7^\xc0Q\xf2\x0f\xf8?'
p2417
tp2418
Rp2419
sI34
F1.86208160312116
sI35
g3
(g7
S'JYP\xf3#\x19\x08@'
p2420
tp2421
Rp2422
sI4
F3.0978187744027617
sI40
F0.336102203445634
sI9
F2.61777011925657
sI46
F0.0
sI16
g3
(g7
S'\xa2>\xb6(\xdd(\n@'
p2423
tp2424
Rp2425
sI20
F0.0
sI87
F0.0
sI91
F0.252813902277522
sI60
g3
(g7
S'l\xa0\r*\xd4\xd9\xfe?'
p2426
tp2427
Rp2428
ssI13
(dp2429
I69
g2080
sI41
F0.21924152694087362
sI76
F0.8246272474496428
sI45
F1.9942988876399383
sI16
F0.0
sI20
F0.8810406741153771
sI53
F2.0792191126056903
sI54
F4.5810885339916885
sI87
F0.1580057737527924
sI59
g2083
sI60
g2086
ssI14
(dp2430
I14
g2090
ssI15
(dp2431
I39
g2322
sI57
g2334
sI43
g2325
sI44
g2328
sI29
g2331
sI61
g2337
ssI16
(dp2432
I64
g2387
sI51
g2399
sI66
g2393
sI19
g2390
sI29
g2402
sI78
g2396
sssI81
(dp2433
I0
(dp2434
I48
F2.2817762430127178
sI88
g1965
sI52
F0.0
sI8
F1.461600376268341
sI57
F2.2866466417698077
sI27
F0.0
ssI1
(dp2435
I16
g1969
sI88
g1972
sI34
F1.7550389644828606
sI71
g1975
sI79
F2.281584284390117
ssI2
(dp2436
I98
F1.73486937494691
sI100
F1.3144410481252287
sI86
F2.4049169122145324
sI6
g1979
sI54
g1982
sI13
F0.0
sI21
F3.718999164620141
ssI3
(dp2437
I64
g3
(g7
S'\x8f\x97\xe3\x86\xcc\xee\x13@'
p2438
tp2439
Rp2440
sI1
F2.387516104685912
sI3
F0.6153539247165366
sI4
F0.926625059234822
sI72
g3
(g7
S'\x01\x8c\xd6\xe3A\xe4\xf7?'
p2441
tp2442
Rp2443
sI77
F4.716603723593174
sI83
F0.5789007626969749
sI23
F3.256774385142636
sI94
F0.7465557901219633
sI67
F0.798561079665895
sI99
F1.6166537385127913
sI46
F0.33942271723212314
sI50
F1.3084868474767684
sI51
F0.8453279451515703
sI56
g3
(g7
S'H\xf3\xe3#\x8fa\x1a@'
p2444
tp2445
Rp2446
sI60
F2.3184587327568282
sI61
F1.7869086792816806
ssI4
(dp2447
I69
g1996
sI41
F2.699862312620658
sI76
F0.0
sI16
F0.164454924864709
sI20
F0.2066556820502406
sI53
F0.0
sI54
F4.949996275366139
sI87
F1.366311587844605
sI59
g1999
sI60
g2002
ssI5
(dp2448
I21
F0.027014767031658393
sI6
F0.0
ssI6
(dp2449
I66
g2007
sI67
g2010
sI37
F4.704298184449185
ssI7
(dp2450
I11
g2014
sI13
F0.0
sI78
F1.3676898748650193
sI80
g2017
sI82
F3.783227638249802
sI23
F1.1799900119680387
sI24
g2020
sI58
F0.0
sI30
F1.3044845059246168
ssI8
(dp2451
I69
g2024
sI42
F0.6937700379325732
sI76
F1.2546320071093375
sI16
F0.0
sI49
g2027
sI53
F1.2697987278902199
sI54
F0.0
sI87
F0.0
sI59
g2030
sI60
g2033
ssI9
(dp2452
I69
g2037
sI39
F1.4970617634586234
sI41
F0.535278487985355
sI43
F2.4893897619003105
sI76
F0.0
sI77
F0.864514126151693
sI16
F0.0
sI49
g2040
sI53
F1.0804603834492432
sI54
F1.0441737578227543
sI87
F0.0
sI59
g2043
sI60
g2046
ssI10
(dp2453
I35
F1.3098385203681229
sI67
g2050
sI37
F2.0574368975867903
ssI11
(dp2454
I33
g2054
sI84
g2057
sI49
F0.0
sI17
F0.9287668643155429
sI7
g2060
sI63
g2063
ssI12
(dp2455
I97
g2419
sI34
F1.86208160312116
sI35
g2422
sI4
F3.0978187744027617
sI40
F0.336102203445634
sI9
F2.61777011925657
sI46
F0.0
sI16
g2425
sI20
F0.0
sI87
F0.0
sI91
F0.252813902277522
sI60
g2428
ssI13
(dp2456
I69
g2080
sI41
F0.21924152694087362
sI76
F0.8246272474496428
sI45
F1.9942988876399383
sI16
F0.0
sI20
F0.8810406741153771
sI53
F2.0792191126056903
sI54
F4.5810885339916885
sI87
F0.1580057737527924
sI59
g2083
sI60
g2086
ssI14
(dp2457
I14
g2090
ssI15
(dp2458
I39
g2322
sI57
g2334
sI43
g2325
sI44
g2328
sI29
g2331
sI61
g2337
ssI16
(dp2459
I64
g2387
sI51
g2399
sI66
g2393
sI19
g2390
sI29
g2402
sI78
g2396
sssI82
(dp2460
I0
(dp2461
I48
F2.2817762430127178
sI8
F1.461600376268341
sI52
F0.0
sI88
g1965
sI57
F2.2866466417698077
sI27
F0.0
ssI1
(dp2462
I16
g1969
sI88
g1972
sI34
F1.7550389644828606
sI79
F2.281584284390117
sI71
g1975
ssI2
(dp2463
I98
F1.73486937494691
sI100
F1.3144410481252287
sI6
g1979
sI86
F2.4049169122145324
sI54
g1982
sI13
F0.0
sI21
F3.718999164620141
ssI3
(dp2464
I64
g3
(g7
S'\x16k\xd2\x19A\xbe\x18@'
p2465
tp2466
Rp2467
sI1
F1.9451068203647246
sI3
F3.3556321389802357
sI4
F1.6210383003136783
sI72
g3
(g7
S'\xf4Z\x87\x9f\xfe\xf8\xe4?'
p2468
tp2469
Rp2470
sI77
F3.107626610213305
sI83
F3.768750785612947
sI23
F3.2068144743994917
sI94
F2.140102326126553
sI99
F2.2805455220442985
sI46
F0.0
sI50
F1.4074300445028674
sI51
F0.0
sI56
g3
(g7
S'X\xf8\xd4M\xe9\x18\x1c@'
p2471
tp2472
Rp2473
sI60
F0.4443684042924567
sI61
F3.0581506412776447
ssI4
(dp2474
I69
g1996
sI41
F2.699862312620658
sI76
F0.0
sI16
F0.164454924864709
sI20
F0.2066556820502406
sI53
F0.0
sI54
F4.949996275366139
sI87
F1.366311587844605
sI59
g1999
sI60
g2002
ssI5
(dp2475
I21
F0.027014767031658393
sI6
F0.0
ssI6
(dp2476
I66
g2007
sI67
g2010
sI37
F4.704298184449185
ssI7
(dp2477
I11
g2014
sI13
F0.0
sI78
F1.3676898748650193
sI80
g2017
sI82
F3.783227638249802
sI23
F1.1799900119680387
sI24
g2020
sI58
F0.0
sI30
F1.3044845059246168
ssI8
(dp2478
I69
g2024
sI42
F0.6937700379325732
sI76
F1.2546320071093375
sI16
F0.0
sI49
g2027
sI53
F1.2697987278902199
sI54
F0.0
sI87
F0.0
sI59
g2030
sI60
g2033
ssI9
(dp2479
I69
g2037
sI39
F1.4970617634586234
sI41
F0.535278487985355
sI43
F2.4893897619003105
sI76
F0.0
sI77
F0.864514126151693
sI16
F0.0
sI49
g2040
sI53
F1.0804603834492432
sI54
F1.0441737578227543
sI87
F0.0
sI59
g2043
sI60
g2046
ssI10
(dp2480
I67
g2050
sI35
F1.3098385203681229
sI37
F2.0574368975867903
ssI11
(dp2481
I33
g2054
sI84
g2057
sI17
F0.9287668643155429
sI49
F0.0
sI7
g2060
sI63
g2063
ssI12
(dp2482
I97
g2419
sI34
F1.86208160312116
sI35
g2422
sI4
F3.0978187744027617
sI40
F0.336102203445634
sI9
F2.61777011925657
sI46
F0.0
sI16
g2425
sI20
F0.0
sI87
F0.0
sI91
F0.252813902277522
sI60
g2428
ssI13
(dp2483
I69
g2080
sI41
F0.21924152694087362
sI76
F0.8246272474496428
sI45
F1.9942988876399383
sI16
F0.0
sI20
F0.8810406741153771
sI53
F2.0792191126056903
sI54
F4.5810885339916885
sI87
F0.1580057737527924
sI59
g2083
sI60
g2086
ssI14
(dp2484
I14
g2090
ssI15
(dp2485
I39
g2322
sI57
g2334
sI43
g2325
sI44
g2328
sI29
g2331
sI61
g2337
ssI16
(dp2486
I64
g2387
sI19
g2390
sI66
g2393
sI51
g2399
sI29
g2402
sI78
g2396
sssI83
(dp2487
I0
(dp2488
I48
F2.2817762430127178
sI8
F1.461600376268341
sI52
F0.0
sI88
g1965
sI57
F2.2866466417698077
sI27
F0.0
ssI1
(dp2489
I16
g1969
sI88
g1972
sI34
F1.7550389644828606
sI79
F2.281584284390117
sI71
g1975
ssI2
(dp2490
I98
F1.73486937494691
sI100
F1.3144410481252287
sI6
g1979
sI86
F2.4049169122145324
sI54
g1982
sI13
F0.0
sI21
F3.718999164620141
ssI3
(dp2491
I64
g2467
sI1
F1.9451068203647246
sI3
F3.3556321389802357
sI4
F1.6210383003136783
sI72
g2470
sI77
F3.107626610213305
sI83
F3.768750785612947
sI23
F3.2068144743994917
sI94
F2.140102326126553
sI99
F2.2805455220442985
sI46
F0.0
sI50
F1.4074300445028674
sI51
F0.0
sI56
g2473
sI60
F0.4443684042924567
sI61
F3.0581506412776447
ssI4
(dp2492
I69
g1996
sI41
F2.699862312620658
sI76
F0.0
sI16
F0.164454924864709
sI20
F0.2066556820502406
sI53
F0.0
sI54
F4.949996275366139
sI87
F1.366311587844605
sI59
g1999
sI60
g2002
ssI5
(dp2493
I21
F0.027014767031658393
sI6
F0.0
ssI6
(dp2494
I66
g2007
sI67
g2010
sI37
F4.704298184449185
ssI7
(dp2495
I11
g2014
sI13
F0.0
sI78
F1.3676898748650193
sI80
g2017
sI82
F3.783227638249802
sI23
F1.1799900119680387
sI24
g2020
sI58
F0.0
sI30
F1.3044845059246168
ssI8
(dp2496
I69
g2024
sI42
F0.6937700379325732
sI76
F1.2546320071093375
sI16
F0.0
sI49
g2027
sI53
F1.2697987278902199
sI54
F0.0
sI87
F0.0
sI59
g2030
sI60
g2033
ssI9
(dp2497
I69
g2037
sI39
F1.4970617634586234
sI41
F0.535278487985355
sI43
F2.4893897619003105
sI76
F0.0
sI77
F0.864514126151693
sI16
F0.0
sI49
g2040
sI53
F1.0804603834492432
sI54
F1.0441737578227543
sI87
F0.0
sI59
g2043
sI60
g2046
ssI10
(dp2498
I67
g2050
sI35
F1.3098385203681229
sI37
F2.0574368975867903
ssI11
(dp2499
I33
g2054
sI84
g2057
sI17
F0.9287668643155429
sI49
F0.0
sI7
g2060
sI63
g2063
ssI12
(dp2500
I97
g2419
sI34
F1.86208160312116
sI35
g2422
sI4
F3.0978187744027617
sI40
F0.336102203445634
sI9
F2.61777011925657
sI46
F0.0
sI16
g2425
sI20
F0.0
sI87
F0.0
sI91
F0.252813902277522
sI60
g2428
ssI13
(dp2501
I69
g2080
sI41
F0.21924152694087362
sI76
F0.8246272474496428
sI45
F1.9942988876399383
sI16
F0.0
sI20
F0.8810406741153771
sI53
F2.0792191126056903
sI54
F4.5810885339916885
sI87
F0.1580057737527924
sI59
g2083
sI60
g2086
ssI14
(dp2502
I14
g2090
ssI15
(dp2503
I68
F0.9747314669071325
sI39
g3
(g7
S'\x14Gs~\xb6\xf2\xef?'
p2504
tp2505
Rp2506
sI57
g3
(g7
S'\x18faH\x95\x19\x01@'
p2507
tp2508
Rp2509
sI43
g3
(g7
S'\x10\xf9\xf67\x85\xca\x93?'
p2510
tp2511
Rp2512
sI44
g3
(g7
S'\xfdr\x8f\xc2p\xe9\x02@'
p2513
tp2514
Rp2515
sI29
g3
(g7
S'\xd0\x1a\x06Z\xef\x9d\x08@'
p2516
tp2517
Rp2518
sI61
F0.0
ssI16
(dp2519
I64
g2387
sI19
g2390
sI66
g2393
sI51
g2399
sI29
g2402
sI78
g2396
sssI84
(dp2520
I0
(dp2521
I48
F2.2817762430127178
sI88
g1965
sI52
F0.0
sI8
F1.461600376268341
sI57
F2.2866466417698077
sI27
F0.0
ssI1
(dp2522
I16
g1969
sI88
g1972
sI34
F1.7550389644828606
sI71
g1975
sI79
F2.281584284390117
ssI2
(dp2523
I98
F1.73486937494691
sI100
F1.3144410481252287
sI86
F2.4049169122145324
sI6
g1979
sI54
g1982
sI13
F0.0
sI21
F3.718999164620141
ssI3
(dp2524
I64
g2467
sI1
F1.9451068203647246
sI3
F3.3556321389802357
sI4
F1.6210383003136783
sI72
g2470
sI77
F3.107626610213305
sI83
F3.768750785612947
sI23
F3.2068144743994917
sI94
F2.140102326126553
sI99
F2.2805455220442985
sI46
F0.0
sI50
F1.4074300445028674
sI51
F0.0
sI56
g2473
sI60
F0.4443684042924567
sI61
F3.0581506412776447
ssI4
(dp2525
I69
g1996
sI41
F2.699862312620658
sI76
F0.0
sI16
F0.164454924864709
sI20
F0.2066556820502406
sI53
F0.0
sI54
F4.949996275366139
sI87
F1.366311587844605
sI59
g1999
sI60
g2002
ssI5
(dp2526
I21
F0.027014767031658393
sI6
F0.0
ssI6
(dp2527
I66
g2007
sI67
g2010
sI37
F4.704298184449185
ssI7
(dp2528
I11
g2014
sI13
F0.0
sI78
F1.3676898748650193
sI80
g2017
sI82
F3.783227638249802
sI23
F1.1799900119680387
sI24
g2020
sI58
F0.0
sI30
F1.3044845059246168
ssI8
(dp2529
I69
g2024
sI42
F0.6937700379325732
sI76
F1.2546320071093375
sI16
F0.0
sI49
g2027
sI53
F1.2697987278902199
sI54
F0.0
sI87
F0.0
sI59
g2030
sI60
g2033
ssI9
(dp2530
I69
g2037
sI39
F1.4970617634586234
sI41
F0.535278487985355
sI43
F2.4893897619003105
sI76
F0.0
sI77
F0.864514126151693
sI16
F0.0
sI49
g2040
sI53
F1.0804603834492432
sI54
F1.0441737578227543
sI87
F0.0
sI59
g2043
sI60
g2046
ssI10
(dp2531
I35
F1.3098385203681229
sI67
g2050
sI37
F2.0574368975867903
ssI11
(dp2532
I33
g3
(g7
S'\xe9\xcd|\xaa\xcd\xdc\x10@'
p2533
tp2534
Rp2535
sI84
g3
(g7
S'\x19\x83\xebh<\xe6\xfc?'
p2536
tp2537
Rp2538
sI49
F0.0
sI17
F1.5450780294182054
sI7
g3
(g7
S'\xa7\r\xf1\xa0\xf3\x82\xfc?'
p2539
tp2540
Rp2541
sI63
F0.0
ssI12
(dp2542
I97
g2419
sI34
F1.86208160312116
sI35
g2422
sI4
F3.0978187744027617
sI40
F0.336102203445634
sI9
F2.61777011925657
sI46
F0.0
sI16
g2425
sI20
F0.0
sI87
F0.0
sI91
F0.252813902277522
sI60
g2428
ssI13
(dp2543
I69
g2080
sI41
F0.21924152694087362
sI76
F0.8246272474496428
sI45
F1.9942988876399383
sI16
F0.0
sI20
F0.8810406741153771
sI53
F2.0792191126056903
sI54
F4.5810885339916885
sI87
F0.1580057737527924
sI59
g2083
sI60
g2086
ssI14
(dp2544
I14
g2090
ssI15
(dp2545
I39
g2322
sI57
g2334
sI43
g2325
sI44
g2328
sI29
g2331
sI61
g2337
ssI16
(dp2546
I64
g2387
sI51
g2399
sI66
g2393
sI19
g2390
sI29
g2402
sI78
g2396
sssI85
(dp2547
I0
(dp2548
I48
F2.2817762430127178
sI8
F1.461600376268341
sI52
F0.0
sI88
g1965
sI57
F2.2866466417698077
sI27
F0.0
ssI1
(dp2549
I16
g1969
sI88
g1972
sI34
F1.7550389644828606
sI79
F2.281584284390117
sI71
g1975
ssI2
(dp2550
I98
F1.73486937494691
sI100
F1.3144410481252287
sI6
g1979
sI86
F2.4049169122145324
sI54
g1982
sI13
F0.0
sI21
F3.718999164620141
ssI3
(dp2551
I64
g2467
sI1
F1.9451068203647246
sI3
F3.3556321389802357
sI4
F1.6210383003136783
sI72
g2470
sI77
F3.107626610213305
sI83
F3.768750785612947
sI23
F3.2068144743994917
sI94
F2.140102326126553
sI99
F2.2805455220442985
sI46
F0.0
sI50
F1.4074300445028674
sI51
F0.0
sI56
g2473
sI60
F0.4443684042924567
sI61
F3.0581506412776447
ssI4
(dp2552
I69
g1996
sI41
F2.699862312620658
sI76
F0.0
sI16
F0.164454924864709
sI20
F0.2066556820502406
sI53
F0.0
sI54
F4.949996275366139
sI87
F1.366311587844605
sI59
g1999
sI60
g2002
ssI5
(dp2553
I21
F0.027014767031658393
sI6
F0.0
ssI6
(dp2554
I66
g2007
sI67
g2010
sI37
F4.704298184449185
ssI7
(dp2555
I11
g2014
sI13
F0.0
sI78
F1.3676898748650193
sI80
g2017
sI82
F3.783227638249802
sI23
F1.1799900119680387
sI24
g2020
sI58
F0.0
sI30
F1.3044845059246168
ssI8
(dp2556
I69
g2024
sI42
F0.6937700379325732
sI76
F1.2546320071093375
sI16
F0.0
sI49
g2027
sI53
F1.2697987278902199
sI54
F0.0
sI87
F0.0
sI59
g2030
sI60
g2033
ssI9
(dp2557
I69
g2037
sI39
F1.4970617634586234
sI41
F0.535278487985355
sI43
F2.4893897619003105
sI76
F0.0
sI77
F0.864514126151693
sI16
F0.0
sI49
g2040
sI53
F1.0804603834492432
sI54
F1.0441737578227543
sI87
F0.0
sI59
g2043
sI60
g2046
ssI10
(dp2558
I67
g2050
sI35
F1.3098385203681229
sI37
F2.0574368975867903
ssI11
(dp2559
I33
g2054
sI84
g2057
sI17
F0.9287668643155429
sI49
F0.0
sI7
g2060
sI63
g2063
ssI12
(dp2560
I97
g2419
sI34
F1.86208160312116
sI35
g2422
sI4
F3.0978187744027617
sI40
F0.336102203445634
sI9
F2.61777011925657
sI46
F0.0
sI16
g2425
sI20
F0.0
sI87
F0.0
sI91
F0.252813902277522
sI60
g2428
ssI13
(dp2561
I69
g2080
sI41
F0.21924152694087362
sI76
F0.8246272474496428
sI45
F1.9942988876399383
sI16
F0.0
sI20
F0.8810406741153771
sI53
F2.0792191126056903
sI54
F4.5810885339916885
sI87
F0.1580057737527924
sI59
g2083
sI60
g2086
ssI14
(dp2562
I14
g2090
ssI15
(dp2563
I39
g2322
sI57
g2334
sI43
g2325
sI44
g2328
sI29
g2331
sI61
g2337
ssI16
(dp2564
I64
g3
(g7
S'\x11>\x14nuU\x00@'
p2565
tp2566
Rp2567
sI19
g3
(g7
S'\x8a#\xf7|\x8b\xfc\xf9?'
p2568
tp2569
Rp2570
sI66
F0.0
sI51
g3
(g7
S'\xf48_\x9b\x08\xcd\xf5?'
p2571
tp2572
Rp2573
sI78
g3
(g7
S'^WM\x7f\xf5#\xda?'
p2574
tp2575
Rp2576
sssI86
(dp2577
I0
(dp2578
I48
F2.2817762430127178
sI88
g1965
sI52
F0.0
sI8
F1.461600376268341
sI57
F2.2866466417698077
sI27
F0.0
ssI1
(dp2579
I16
g1969
sI88
g1972
sI34
F1.7550389644828606
sI71
g1975
sI79
F2.281584284390117
ssI2
(dp2580
I98
F1.73486937494691
sI100
F1.3144410481252287
sI86
F2.4049169122145324
sI6
g1979
sI54
g1982
sI13
F0.0
sI21
F3.718999164620141
ssI3
(dp2581
I64
g2467
sI1
F1.9451068203647246
sI3
F3.3556321389802357
sI4
F1.6210383003136783
sI72
g2470
sI77
F3.107626610213305
sI83
F3.768750785612947
sI23
F3.2068144743994917
sI94
F2.140102326126553
sI99
F2.2805455220442985
sI46
F0.0
sI50
F1.4074300445028674
sI51
F0.0
sI56
g2473
sI60
F0.4443684042924567
sI61
F3.0581506412776447
ssI4
(dp2582
I69
g1996
sI41
F2.699862312620658
sI76
F0.0
sI16
F0.164454924864709
sI20
F0.2066556820502406
sI53
F0.0
sI54
F4.949996275366139
sI87
F1.366311587844605
sI59
g1999
sI60
g2002
ssI5
(dp2583
I21
F0.027014767031658393
sI6
F0.0
ssI6
(dp2584
I66
g2007
sI67
g2010
sI37
F4.704298184449185
ssI7
(dp2585
I11
g2014
sI13
F0.0
sI78
F1.3676898748650193
sI80
g2017
sI82
F3.783227638249802
sI23
F1.1799900119680387
sI24
g2020
sI58
F0.0
sI30
F1.3044845059246168
ssI8
(dp2586
I69
g2024
sI42
F0.6937700379325732
sI76
F1.2546320071093375
sI16
F0.0
sI49
g2027
sI53
F1.2697987278902199
sI54
F0.0
sI87
F0.0
sI59
g2030
sI60
g2033
ssI9
(dp2587
I69
g2037
sI39
F1.4970617634586234
sI41
F0.535278487985355
sI43
F2.4893897619003105
sI76
F0.0
sI77
F0.864514126151693
sI16
F0.0
sI49
g2040
sI53
F1.0804603834492432
sI54
F1.0441737578227543
sI87
F0.0
sI59
g2043
sI60
g2046
ssI10
(dp2588
I35
F1.3098385203681229
sI67
g2050
sI37
F2.0574368975867903
ssI11
(dp2589
I33
g2535
sI84
g2538
sI49
F0.0
sI17
F1.5450780294182054
sI7
g2541
sI63
F0.0
ssI12
(dp2590
I97
g2419
sI34
F1.86208160312116
sI35
g2422
sI4
F3.0978187744027617
sI40
F0.336102203445634
sI9
F2.61777011925657
sI46
F0.0
sI16
g2425
sI20
F0.0
sI87
F0.0
sI91
F0.252813902277522
sI60
g2428
ssI13
(dp2591
I69
g2080
sI41
F0.21924152694087362
sI76
F0.8246272474496428
sI45
F1.9942988876399383
sI16
F0.0
sI20
F0.8810406741153771
sI53
F2.0792191126056903
sI54
F4.5810885339916885
sI87
F0.1580057737527924
sI59
g2083
sI60
g2086
ssI14
(dp2592
I14
g2090
ssI15
(dp2593
I39
F0.0
sI57
g3
(g7
S'~ \xb5\xa3\x8c\x04\xe0?'
p2594
tp2595
Rp2596
sI43
g3
(g7
S'\x1b\x1f\xb77\x84\x98\xf1?'
p2597
tp2598
Rp2599
sI44
g3
(g7
S')\x0c\xaeV0\xee\x02@'
p2600
tp2601
Rp2602
sI29
g3
(g7
S'd\xdf`o\xa9\xd8\xe9?'
p2603
tp2604
Rp2605
sI28
F0.3497902749521318
sI61
g3
(g7
S'\x95\xae\x85\xab\x1bV\xeb?'
p2606
tp2607
Rp2608
ssI16
(dp2609
I64
g2387
sI51
g2399
sI66
g2393
sI19
g2390
sI29
g2402
sI78
g2396
sssI87
(dp2610
I0
(dp2611
I48
F2.2817762430127178
sI88
g1965
sI52
F0.0
sI8
F1.461600376268341
sI57
F2.2866466417698077
sI27
F0.0
ssI1
(dp2612
I16
g1969
sI88
g1972
sI34
F1.7550389644828606
sI71
g1975
sI79
F2.281584284390117
ssI2
(dp2613
I98
F1.73486937494691
sI100
F1.3144410481252287
sI86
F2.4049169122145324
sI6
g1979
sI54
g1982
sI13
F0.0
sI21
F3.718999164620141
ssI3
(dp2614
I64
g3
(g7
S'M\xcd\xa6\xec\xef\x02\x1c@'
p2615
tp2616
Rp2617
sI1
F2.438003691483641
sI3
F2.432351832253735
sI4
F1.876252319867451
sI72
g3
(g7
S'\x02\x1e2rj\xce\xd6?'
p2618
tp2619
Rp2620
sI77
F5.12688634581067
sI83
F2.6707363967653195
sI23
F2.87862208511146
sI94
F1.934390896767417
sI99
F3.556540425832389
sI46
F0.2016253497764937
sI50
F2.0395959646574675
sI51
F0.9234358212911122
sI56
g3
(g7
S'\xb1?\xe1\xf7\xa9>\x1f@'
p2621
tp2622
Rp2623
sI60
F0.5593219314917636
sI61
F2.209025972512495
ssI4
(dp2624
I69
g1996
sI41
F2.699862312620658
sI76
F0.0
sI16
F0.164454924864709
sI20
F0.2066556820502406
sI53
F0.0
sI54
F4.949996275366139
sI87
F1.366311587844605
sI59
g1999
sI60
g2002
ssI5
(dp2625
I21
F0.027014767031658393
sI6
F0.0
ssI6
(dp2626
I66
g2007
sI67
g2010
sI37
F4.704298184449185
ssI7
(dp2627
I11
g2014
sI13
F0.0
sI78
F1.3676898748650193
sI80
g2017
sI82
F3.783227638249802
sI23
F1.1799900119680387
sI24
g2020
sI58
F0.0
sI30
F1.3044845059246168
ssI8
(dp2628
I69
g2024
sI42
F0.6937700379325732
sI76
F1.2546320071093375
sI16
F0.0
sI49
g2027
sI53
F1.2697987278902199
sI54
F0.0
sI87
F0.0
sI59
g2030
sI60
g2033
ssI9
(dp2629
I69
g2037
sI39
F1.4970617634586234
sI41
F0.535278487985355
sI43
F2.4893897619003105
sI76
F0.0
sI77
F0.864514126151693
sI16
F0.0
sI49
g2040
sI53
F1.0804603834492432
sI54
F1.0441737578227543
sI87
F0.0
sI59
g2043
sI60
g2046
ssI10
(dp2630
I35
F1.3098385203681229
sI67
g2050
sI37
F2.0574368975867903
ssI11
(dp2631
I33
g2054
sI84
g2057
sI49
F0.0
sI17
F0.9287668643155429
sI7
g2060
sI63
g2063
ssI12
(dp2632
I97
g2419
sI34
F1.86208160312116
sI35
g2422
sI4
F3.0978187744027617
sI40
F0.336102203445634
sI9
F2.61777011925657
sI46
F0.0
sI16
g2425
sI20
F0.0
sI87
F0.0
sI91
F0.252813902277522
sI60
g2428
ssI13
(dp2633
I69
g2080
sI41
F0.21924152694087362
sI76
F0.8246272474496428
sI45
F1.9942988876399383
sI16
F0.0
sI20
F0.8810406741153771
sI53
F2.0792191126056903
sI54
F4.5810885339916885
sI87
F0.1580057737527924
sI59
g2083
sI60
g2086
ssI14
(dp2634
I14
g2090
ssI15
(dp2635
I68
F0.9747314669071325
sI39
g2506
sI57
g2509
sI43
g2512
sI44
g2515
sI29
g2518
sI61
F0.0
ssI16
(dp2636
I64
g2387
sI51
g2399
sI66
g2393
sI19
g2390
sI29
g2402
sI78
g2396
sssI88
(dp2637
I0
(dp2638
I48
F2.2817762430127178
sI88
g1965
sI52
F0.0
sI8
F1.461600376268341
sI57
F2.2866466417698077
sI27
F0.0
ssI1
(dp2639
I16
g1969
sI88
g1972
sI34
F1.7550389644828606
sI71
g1975
sI79
F2.281584284390117
ssI2
(dp2640
I98
F1.73486937494691
sI100
F1.3144410481252287
sI86
F2.4049169122145324
sI6
g1979
sI54
g1982
sI13
F0.0
sI21
F3.718999164620141
ssI3
(dp2641
I64
g2467
sI1
F1.9451068203647246
sI3
F3.3556321389802357
sI4
F1.6210383003136783
sI72
g2470
sI77
F3.107626610213305
sI83
F3.768750785612947
sI23
F3.2068144743994917
sI94
F2.140102326126553
sI99
F2.2805455220442985
sI46
F0.0
sI50
F1.4074300445028674
sI51
F0.0
sI56
g2473
sI60
F0.4443684042924567
sI61
F3.0581506412776447
ssI4
(dp2642
I69
g1996
sI41
F2.699862312620658
sI76
F0.0
sI16
F0.164454924864709
sI20
F0.2066556820502406
sI53
F0.0
sI54
F4.949996275366139
sI87
F1.366311587844605
sI59
g1999
sI60
g2002
ssI5
(dp2643
I21
F0.027014767031658393
sI6
F0.0
ssI6
(dp2644
I66
g2007
sI67
g2010
sI37
F4.704298184449185
ssI7
(dp2645
I11
g2014
sI13
F0.0
sI78
F1.3676898748650193
sI80
g2017
sI82
F3.783227638249802
sI23
F1.1799900119680387
sI24
g2020
sI58
F0.0
sI30
F1.3044845059246168
ssI8
(dp2646
I69
g2024
sI42
F0.6937700379325732
sI76
F1.2546320071093375
sI16
F0.0
sI49
g2027
sI53
F1.2697987278902199
sI54
F0.0
sI87
F0.0
sI59
g2030
sI60
g2033
ssI9
(dp2647
I69
g2037
sI39
F1.4970617634586234
sI41
F0.535278487985355
sI43
F2.4893897619003105
sI76
F0.0
sI77
F0.864514126151693
sI16
F0.0
sI49
g2040
sI53
F1.0804603834492432
sI54
F1.0441737578227543
sI87
F0.0
sI59
g2043
sI60
g2046
ssI10
(dp2648
I35
F1.3098385203681229
sI67
g2050
sI37
F2.0574368975867903
ssI11
(dp2649
I33
g2535
sI84
g2538
sI49
F0.0
sI17
F1.5450780294182054
sI7
g2541
sI63
F0.0
ssI12
(dp2650
I97
g2419
sI34
F1.86208160312116
sI35
g2422
sI4
F3.0978187744027617
sI40
F0.336102203445634
sI9
F2.61777011925657
sI46
F0.0
sI16
g2425
sI20
F0.0
sI87
F0.0
sI91
F0.252813902277522
sI60
g2428
ssI13
(dp2651
I69
g2080
sI41
F0.21924152694087362
sI76
F0.8246272474496428
sI45
F1.9942988876399383
sI16
F0.0
sI20
F0.8810406741153771
sI53
F2.0792191126056903
sI54
F4.5810885339916885
sI87
F0.1580057737527924
sI59
g2083
sI60
g2086
ssI14
(dp2652
I14
g2090
ssI15
(dp2653
I39
F0.0
sI57
g2596
sI43
g2599
sI44
g2602
sI29
g2605
sI28
F0.3497902749521318
sI61
g2608
ssI16
(dp2654
I64
g3
(g7
S'\xf9\xff\xba\xe9\xd5\xbd\xdd?'
p2655
tp2656
Rp2657
sI51
g3
(g7
S'\x109\xe32\xbcR\xf9?'
p2658
tp2659
Rp2660
sI66
g3
(g7
S'\x8a\xa6\xf9\xec\xfc?\xf7?'
p2661
tp2662
Rp2663
sI29
g3
(g7
S'\x95\xcb"[A(\xfa?'
p2664
tp2665
Rp2666
sI78
g3
(g7
S'\xb8\xc7Coe\x18\xd9?'
p2667
tp2668
Rp2669
sss.