(dp0
I0
cnumpy.core.multiarray
scalar
p1
(cnumpy
dtype
p2
(S'f8'
p3
I0
I1
tp4
Rp5
(I3
S'<'
p6
NNNI-1
I-1
I0
tp7
bS'\x97\xb5\xc7/\x94\x88\xe0?'
p8
tp9
Rp10
sI1
g1
(g5
S'\x1a?\x92\x88t\xfd\xe0?'
p11
tp12
Rp13
sI2
g1
(g5
S'\xd2d\x1f_;X\xe1?'
p14
tp15
Rp16
sI3
g1
(g5
S'9\x9d\xf40\x8eA\xe2?'
p17
tp18
Rp19
sI4
F0.625
sI5
F0.691864311823017
sI6
F0.7310202450288343
sI7
F0.75
sI8
F0.8288675460910694
sI9
F0.8715832252488811
sI10
F0.9341040228882473
sI11
F1.0
s.